
OLED1.elf:     file format elf32-littlearm

Sections:
Idx Name          Size      VMA       LMA       File off  Algn
  0 .text         000085e4  00400000  00400000  00010000  2**6
                  CONTENTS, ALLOC, LOAD, READONLY, CODE
  1 .ARM.exidx    00000008  004085e4  004085e4  000185e4  2**2
                  CONTENTS, ALLOC, LOAD, READONLY, DATA
  2 .relocate     000009d0  20400000  004085ec  00020000  2**3
                  CONTENTS, ALLOC, LOAD, CODE
  3 .bss          00000328  204009d0  00408fbc  000209d0  2**2
                  ALLOC
  4 .stack        00002000  20400cf8  004092e4  000209d0  2**0
                  ALLOC
  5 .heap         00000200  20402cf8  0040b2e4  000209d0  2**0
                  ALLOC
  6 .ARM.attributes 0000002e  00000000  00000000  000209d0  2**0
                  CONTENTS, READONLY
  7 .comment      00000059  00000000  00000000  000209fe  2**0
                  CONTENTS, READONLY
  8 .debug_info   00016034  00000000  00000000  00020a57  2**0
                  CONTENTS, READONLY, DEBUGGING
  9 .debug_abbrev 00002fc1  00000000  00000000  00036a8b  2**0
                  CONTENTS, READONLY, DEBUGGING
 10 .debug_loc    000058ee  00000000  00000000  00039a4c  2**0
                  CONTENTS, READONLY, DEBUGGING
 11 .debug_aranges 00000a70  00000000  00000000  0003f33a  2**0
                  CONTENTS, READONLY, DEBUGGING
 12 .debug_ranges 000009f8  00000000  00000000  0003fdaa  2**0
                  CONTENTS, READONLY, DEBUGGING
 13 .debug_macro  00020fb4  00000000  00000000  000407a2  2**0
                  CONTENTS, READONLY, DEBUGGING
 14 .debug_line   0000ea44  00000000  00000000  00061756  2**0
                  CONTENTS, READONLY, DEBUGGING
 15 .debug_str    0008ff76  00000000  00000000  0007019a  2**0
                  CONTENTS, READONLY, DEBUGGING
 16 .debug_frame  000035a4  00000000  00000000  00100110  2**2
                  CONTENTS, READONLY, DEBUGGING

Disassembly of section .text:

00400000 <exception_table>:
  400000:	f8 2c 40 20 cd 26 40 00 7d 27 40 00 7d 27 40 00     .,@ .&@.}'@.}'@.
  400010:	7d 27 40 00 7d 27 40 00 7d 27 40 00 00 00 00 00     }'@.}'@.}'@.....
	...
  40002c:	7d 27 40 00 7d 27 40 00 00 00 00 00 7d 27 40 00     }'@.}'@.....}'@.
  40003c:	7d 27 40 00 7d 27 40 00 7d 27 40 00 7d 27 40 00     }'@.}'@.}'@.}'@.
  40004c:	ed 2b 40 00 7d 27 40 00 7d 27 40 00 7d 27 40 00     .+@.}'@.}'@.}'@.
  40005c:	7d 27 40 00 7d 27 40 00 00 00 00 00 85 22 40 00     }'@.}'@......"@.
  40006c:	9d 22 40 00 b5 22 40 00 7d 27 40 00 7d 27 40 00     ."@.."@.}'@.}'@.
  40007c:	7d 27 40 00 cd 22 40 00 e5 22 40 00 7d 27 40 00     }'@.."@.."@.}'@.
  40008c:	7d 27 40 00 7d 27 40 00 7d 27 40 00 7d 27 40 00     }'@.}'@.}'@.}'@.
  40009c:	7d 27 40 00 7d 27 40 00 7d 27 40 00 7d 27 40 00     }'@.}'@.}'@.}'@.
  4000ac:	7d 27 40 00 7d 27 40 00 7d 27 40 00 7d 27 40 00     }'@.}'@.}'@.}'@.
  4000bc:	7d 27 40 00 7d 27 40 00 7d 27 40 00 7d 27 40 00     }'@.}'@.}'@.}'@.
  4000cc:	7d 27 40 00 00 00 00 00 7d 27 40 00 00 00 00 00     }'@.....}'@.....
  4000dc:	7d 27 40 00 7d 27 40 00 7d 27 40 00 7d 27 40 00     }'@.}'@.}'@.}'@.
  4000ec:	7d 27 40 00 7d 27 40 00 7d 27 40 00 7d 27 40 00     }'@.}'@.}'@.}'@.
  4000fc:	7d 27 40 00 7d 27 40 00 7d 27 40 00 7d 27 40 00     }'@.}'@.}'@.}'@.
  40010c:	7d 27 40 00 7d 27 40 00 00 00 00 00 00 00 00 00     }'@.}'@.........
  40011c:	00 00 00 00 7d 27 40 00 7d 27 40 00 7d 27 40 00     ....}'@.}'@.}'@.
  40012c:	7d 27 40 00 7d 27 40 00 00 00 00 00 7d 27 40 00     }'@.}'@.....}'@.
  40013c:	7d 27 40 00                                         }'@.

00400140 <__do_global_dtors_aux>:
  400140:	b510      	push	{r4, lr}
  400142:	4c05      	ldr	r4, [pc, #20]	; (400158 <__do_global_dtors_aux+0x18>)
  400144:	7823      	ldrb	r3, [r4, #0]
  400146:	b933      	cbnz	r3, 400156 <__do_global_dtors_aux+0x16>
  400148:	4b04      	ldr	r3, [pc, #16]	; (40015c <__do_global_dtors_aux+0x1c>)
  40014a:	b113      	cbz	r3, 400152 <__do_global_dtors_aux+0x12>
  40014c:	4804      	ldr	r0, [pc, #16]	; (400160 <__do_global_dtors_aux+0x20>)
  40014e:	f3af 8000 	nop.w
  400152:	2301      	movs	r3, #1
  400154:	7023      	strb	r3, [r4, #0]
  400156:	bd10      	pop	{r4, pc}
  400158:	204009d0 	.word	0x204009d0
  40015c:	00000000 	.word	0x00000000
  400160:	004085ec 	.word	0x004085ec

00400164 <frame_dummy>:
  400164:	4b0c      	ldr	r3, [pc, #48]	; (400198 <frame_dummy+0x34>)
  400166:	b143      	cbz	r3, 40017a <frame_dummy+0x16>
  400168:	480c      	ldr	r0, [pc, #48]	; (40019c <frame_dummy+0x38>)
  40016a:	490d      	ldr	r1, [pc, #52]	; (4001a0 <frame_dummy+0x3c>)
  40016c:	b510      	push	{r4, lr}
  40016e:	f3af 8000 	nop.w
  400172:	480c      	ldr	r0, [pc, #48]	; (4001a4 <frame_dummy+0x40>)
  400174:	6803      	ldr	r3, [r0, #0]
  400176:	b923      	cbnz	r3, 400182 <frame_dummy+0x1e>
  400178:	bd10      	pop	{r4, pc}
  40017a:	480a      	ldr	r0, [pc, #40]	; (4001a4 <frame_dummy+0x40>)
  40017c:	6803      	ldr	r3, [r0, #0]
  40017e:	b933      	cbnz	r3, 40018e <frame_dummy+0x2a>
  400180:	4770      	bx	lr
  400182:	4b09      	ldr	r3, [pc, #36]	; (4001a8 <frame_dummy+0x44>)
  400184:	2b00      	cmp	r3, #0
  400186:	d0f7      	beq.n	400178 <frame_dummy+0x14>
  400188:	e8bd 4010 	ldmia.w	sp!, {r4, lr}
  40018c:	4718      	bx	r3
  40018e:	4b06      	ldr	r3, [pc, #24]	; (4001a8 <frame_dummy+0x44>)
  400190:	2b00      	cmp	r3, #0
  400192:	d0f5      	beq.n	400180 <frame_dummy+0x1c>
  400194:	4718      	bx	r3
  400196:	bf00      	nop
  400198:	00000000 	.word	0x00000000
  40019c:	004085ec 	.word	0x004085ec
  4001a0:	204009d4 	.word	0x204009d4
  4001a4:	004085ec 	.word	0x004085ec
  4001a8:	00000000 	.word	0x00000000

004001ac <rtt_init>:
 * \param us_prescaler Prescaler value for the RTT.
 *
 * \return 0 if successful.
 */
uint32_t rtt_init(Rtt *p_rtt, uint16_t us_prescaler)
{
  4001ac:	b480      	push	{r7}
  4001ae:	b083      	sub	sp, #12
  4001b0:	af00      	add	r7, sp, #0
  4001b2:	6078      	str	r0, [r7, #4]
  4001b4:	460b      	mov	r3, r1
  4001b6:	807b      	strh	r3, [r7, #2]
#if (SAM4N || SAM4S || SAM4E || SAM4C || SAMG51 || SAM4CP || SAM4CM || SAMV71 || SAMV70 || SAME70 || SAMS70)
	p_rtt->RTT_MR = (us_prescaler | RTT_MR_RTTRST | g_wobits_in_rtt_mr);
  4001b8:	887a      	ldrh	r2, [r7, #2]
  4001ba:	4b07      	ldr	r3, [pc, #28]	; (4001d8 <rtt_init+0x2c>)
  4001bc:	681b      	ldr	r3, [r3, #0]
  4001be:	4313      	orrs	r3, r2
  4001c0:	f443 2280 	orr.w	r2, r3, #262144	; 0x40000
  4001c4:	687b      	ldr	r3, [r7, #4]
  4001c6:	601a      	str	r2, [r3, #0]
#else
	p_rtt->RTT_MR = (us_prescaler | RTT_MR_RTTRST);
#endif
	return 0;
  4001c8:	2300      	movs	r3, #0
}
  4001ca:	4618      	mov	r0, r3
  4001cc:	370c      	adds	r7, #12
  4001ce:	46bd      	mov	sp, r7
  4001d0:	f85d 7b04 	ldr.w	r7, [sp], #4
  4001d4:	4770      	bx	lr
  4001d6:	bf00      	nop
  4001d8:	204009ec 	.word	0x204009ec

004001dc <rtt_sel_source>:
 *
 * \param p_rtt Pointer to an RTT instance.
 * \param is_rtc_sel RTC 1Hz Clock Selection.
 */
void rtt_sel_source(Rtt *p_rtt, bool is_rtc_sel)
{
  4001dc:	b480      	push	{r7}
  4001de:	b083      	sub	sp, #12
  4001e0:	af00      	add	r7, sp, #0
  4001e2:	6078      	str	r0, [r7, #4]
  4001e4:	460b      	mov	r3, r1
  4001e6:	70fb      	strb	r3, [r7, #3]
	if(is_rtc_sel) {
  4001e8:	78fb      	ldrb	r3, [r7, #3]
  4001ea:	2b00      	cmp	r3, #0
  4001ec:	d00d      	beq.n	40020a <rtt_sel_source+0x2e>
		g_wobits_in_rtt_mr |= RTT_MR_RTC1HZ;
  4001ee:	4b10      	ldr	r3, [pc, #64]	; (400230 <rtt_sel_source+0x54>)
  4001f0:	681b      	ldr	r3, [r3, #0]
  4001f2:	f043 7380 	orr.w	r3, r3, #16777216	; 0x1000000
  4001f6:	4a0e      	ldr	r2, [pc, #56]	; (400230 <rtt_sel_source+0x54>)
  4001f8:	6013      	str	r3, [r2, #0]
		p_rtt->RTT_MR |= g_wobits_in_rtt_mr;
  4001fa:	687b      	ldr	r3, [r7, #4]
  4001fc:	681a      	ldr	r2, [r3, #0]
  4001fe:	4b0c      	ldr	r3, [pc, #48]	; (400230 <rtt_sel_source+0x54>)
  400200:	681b      	ldr	r3, [r3, #0]
  400202:	431a      	orrs	r2, r3
  400204:	687b      	ldr	r3, [r7, #4]
  400206:	601a      	str	r2, [r3, #0]
	} else {
		g_wobits_in_rtt_mr &= ~RTT_MR_RTC1HZ;
		p_rtt->RTT_MR |= g_wobits_in_rtt_mr;
	}
}
  400208:	e00c      	b.n	400224 <rtt_sel_source+0x48>
		g_wobits_in_rtt_mr &= ~RTT_MR_RTC1HZ;
  40020a:	4b09      	ldr	r3, [pc, #36]	; (400230 <rtt_sel_source+0x54>)
  40020c:	681b      	ldr	r3, [r3, #0]
  40020e:	f023 7380 	bic.w	r3, r3, #16777216	; 0x1000000
  400212:	4a07      	ldr	r2, [pc, #28]	; (400230 <rtt_sel_source+0x54>)
  400214:	6013      	str	r3, [r2, #0]
		p_rtt->RTT_MR |= g_wobits_in_rtt_mr;
  400216:	687b      	ldr	r3, [r7, #4]
  400218:	681a      	ldr	r2, [r3, #0]
  40021a:	4b05      	ldr	r3, [pc, #20]	; (400230 <rtt_sel_source+0x54>)
  40021c:	681b      	ldr	r3, [r3, #0]
  40021e:	431a      	orrs	r2, r3
  400220:	687b      	ldr	r3, [r7, #4]
  400222:	601a      	str	r2, [r3, #0]
}
  400224:	bf00      	nop
  400226:	370c      	adds	r7, #12
  400228:	46bd      	mov	sp, r7
  40022a:	f85d 7b04 	ldr.w	r7, [sp], #4
  40022e:	4770      	bx	lr
  400230:	204009ec 	.word	0x204009ec

00400234 <rtt_enable_interrupt>:
 *
 * \param p_rtt Pointer to an RTT instance.
 * \param ul_sources Interrupts to be enabled.
 */
void rtt_enable_interrupt(Rtt *p_rtt, uint32_t ul_sources)
{
  400234:	b480      	push	{r7}
  400236:	b085      	sub	sp, #20
  400238:	af00      	add	r7, sp, #0
  40023a:	6078      	str	r0, [r7, #4]
  40023c:	6039      	str	r1, [r7, #0]
	uint32_t temp;

	temp = p_rtt->RTT_MR;
  40023e:	687b      	ldr	r3, [r7, #4]
  400240:	681b      	ldr	r3, [r3, #0]
  400242:	60fb      	str	r3, [r7, #12]
	temp |= ul_sources;
  400244:	68fa      	ldr	r2, [r7, #12]
  400246:	683b      	ldr	r3, [r7, #0]
  400248:	4313      	orrs	r3, r2
  40024a:	60fb      	str	r3, [r7, #12]
#if (SAM4N || SAM4S || SAM4E || SAM4C || SAMG51 || SAM4CP || SAM4CM || SAMV71 || SAMV70 || SAME70 || SAMS70)
	temp |= g_wobits_in_rtt_mr;
  40024c:	4b06      	ldr	r3, [pc, #24]	; (400268 <rtt_enable_interrupt+0x34>)
  40024e:	681b      	ldr	r3, [r3, #0]
  400250:	68fa      	ldr	r2, [r7, #12]
  400252:	4313      	orrs	r3, r2
  400254:	60fb      	str	r3, [r7, #12]
#endif
	p_rtt->RTT_MR = temp;
  400256:	687b      	ldr	r3, [r7, #4]
  400258:	68fa      	ldr	r2, [r7, #12]
  40025a:	601a      	str	r2, [r3, #0]
}
  40025c:	bf00      	nop
  40025e:	3714      	adds	r7, #20
  400260:	46bd      	mov	sp, r7
  400262:	f85d 7b04 	ldr.w	r7, [sp], #4
  400266:	4770      	bx	lr
  400268:	204009ec 	.word	0x204009ec

0040026c <rtt_disable_interrupt>:
 *
 * \param p_rtt Pointer to an RTT instance.
 * \param ul_sources Interrupts to be disabled.
 */
void rtt_disable_interrupt(Rtt *p_rtt, uint32_t ul_sources)
{
  40026c:	b480      	push	{r7}
  40026e:	b085      	sub	sp, #20
  400270:	af00      	add	r7, sp, #0
  400272:	6078      	str	r0, [r7, #4]
  400274:	6039      	str	r1, [r7, #0]
	uint32_t temp = 0;
  400276:	2300      	movs	r3, #0
  400278:	60fb      	str	r3, [r7, #12]

	temp = p_rtt->RTT_MR;
  40027a:	687b      	ldr	r3, [r7, #4]
  40027c:	681b      	ldr	r3, [r3, #0]
  40027e:	60fb      	str	r3, [r7, #12]
	temp &= (~ul_sources);
  400280:	683b      	ldr	r3, [r7, #0]
  400282:	43db      	mvns	r3, r3
  400284:	68fa      	ldr	r2, [r7, #12]
  400286:	4013      	ands	r3, r2
  400288:	60fb      	str	r3, [r7, #12]
#if (SAM4N || SAM4S || SAM4E || SAM4C || SAMG51 || SAM4CP || SAM4CM || SAMV71 || SAMV70 || SAME70 || SAMS70)
	temp |= g_wobits_in_rtt_mr;
  40028a:	4b07      	ldr	r3, [pc, #28]	; (4002a8 <rtt_disable_interrupt+0x3c>)
  40028c:	681b      	ldr	r3, [r3, #0]
  40028e:	68fa      	ldr	r2, [r7, #12]
  400290:	4313      	orrs	r3, r2
  400292:	60fb      	str	r3, [r7, #12]
#endif
	p_rtt->RTT_MR = temp;
  400294:	687b      	ldr	r3, [r7, #4]
  400296:	68fa      	ldr	r2, [r7, #12]
  400298:	601a      	str	r2, [r3, #0]
}
  40029a:	bf00      	nop
  40029c:	3714      	adds	r7, #20
  40029e:	46bd      	mov	sp, r7
  4002a0:	f85d 7b04 	ldr.w	r7, [sp], #4
  4002a4:	4770      	bx	lr
  4002a6:	bf00      	nop
  4002a8:	204009ec 	.word	0x204009ec

004002ac <rtt_read_timer_value>:
 * \param p_rtt Pointer to an RTT instance.
 *
 * \return The current Real-time Timer value.
 */
uint32_t rtt_read_timer_value(Rtt *p_rtt)
{
  4002ac:	b480      	push	{r7}
  4002ae:	b085      	sub	sp, #20
  4002b0:	af00      	add	r7, sp, #0
  4002b2:	6078      	str	r0, [r7, #4]
	uint32_t rtt_val = p_rtt->RTT_VR;
  4002b4:	687b      	ldr	r3, [r7, #4]
  4002b6:	689b      	ldr	r3, [r3, #8]
  4002b8:	60fb      	str	r3, [r7, #12]

	while (rtt_val != p_rtt->RTT_VR) {
  4002ba:	e002      	b.n	4002c2 <rtt_read_timer_value+0x16>
		rtt_val = p_rtt->RTT_VR;
  4002bc:	687b      	ldr	r3, [r7, #4]
  4002be:	689b      	ldr	r3, [r3, #8]
  4002c0:	60fb      	str	r3, [r7, #12]
	while (rtt_val != p_rtt->RTT_VR) {
  4002c2:	687b      	ldr	r3, [r7, #4]
  4002c4:	689a      	ldr	r2, [r3, #8]
  4002c6:	68fb      	ldr	r3, [r7, #12]
  4002c8:	429a      	cmp	r2, r3
  4002ca:	d1f7      	bne.n	4002bc <rtt_read_timer_value+0x10>
	}

	return rtt_val;
  4002cc:	68fb      	ldr	r3, [r7, #12]
}
  4002ce:	4618      	mov	r0, r3
  4002d0:	3714      	adds	r7, #20
  4002d2:	46bd      	mov	sp, r7
  4002d4:	f85d 7b04 	ldr.w	r7, [sp], #4
  4002d8:	4770      	bx	lr

004002da <rtt_get_status>:
 * \param p_rtt Pointer to an RTT instance.
 *
 * \return The Real-time Timer status.
 */
uint32_t rtt_get_status(Rtt *p_rtt)
{
  4002da:	b480      	push	{r7}
  4002dc:	b083      	sub	sp, #12
  4002de:	af00      	add	r7, sp, #0
  4002e0:	6078      	str	r0, [r7, #4]
	return p_rtt->RTT_SR;
  4002e2:	687b      	ldr	r3, [r7, #4]
  4002e4:	68db      	ldr	r3, [r3, #12]
}
  4002e6:	4618      	mov	r0, r3
  4002e8:	370c      	adds	r7, #12
  4002ea:	46bd      	mov	sp, r7
  4002ec:	f85d 7b04 	ldr.w	r7, [sp], #4
  4002f0:	4770      	bx	lr
	...

004002f4 <rtt_write_alarm_time>:
 * \param ul_alarm_time Alarm time,Alarm time = ALMV + 1.
 *
 * \retval 0 Configuration is done.
 */
uint32_t rtt_write_alarm_time(Rtt *p_rtt, uint32_t ul_alarm_time)
{
  4002f4:	b580      	push	{r7, lr}
  4002f6:	b084      	sub	sp, #16
  4002f8:	af00      	add	r7, sp, #0
  4002fa:	6078      	str	r0, [r7, #4]
  4002fc:	6039      	str	r1, [r7, #0]
	uint32_t flag;

	flag = p_rtt->RTT_MR & RTT_MR_ALMIEN;
  4002fe:	687b      	ldr	r3, [r7, #4]
  400300:	681b      	ldr	r3, [r3, #0]
  400302:	f403 3380 	and.w	r3, r3, #65536	; 0x10000
  400306:	60fb      	str	r3, [r7, #12]

	rtt_disable_interrupt(RTT, RTT_MR_ALMIEN);
  400308:	f44f 3180 	mov.w	r1, #65536	; 0x10000
  40030c:	480d      	ldr	r0, [pc, #52]	; (400344 <rtt_write_alarm_time+0x50>)
  40030e:	4b0e      	ldr	r3, [pc, #56]	; (400348 <rtt_write_alarm_time+0x54>)
  400310:	4798      	blx	r3

	/**
	 * Alarm time = ALMV + 1,If the incoming parameter 
	 * is 0, the ALMV is set to 0xFFFFFFFF.
	*/
	if(ul_alarm_time == 0) {
  400312:	683b      	ldr	r3, [r7, #0]
  400314:	2b00      	cmp	r3, #0
  400316:	d104      	bne.n	400322 <rtt_write_alarm_time+0x2e>
		p_rtt->RTT_AR = 0xFFFFFFFF;
  400318:	687b      	ldr	r3, [r7, #4]
  40031a:	f04f 32ff 	mov.w	r2, #4294967295
  40031e:	605a      	str	r2, [r3, #4]
  400320:	e003      	b.n	40032a <rtt_write_alarm_time+0x36>
	}
	else {
		p_rtt->RTT_AR = ul_alarm_time - 1;
  400322:	683b      	ldr	r3, [r7, #0]
  400324:	1e5a      	subs	r2, r3, #1
  400326:	687b      	ldr	r3, [r7, #4]
  400328:	605a      	str	r2, [r3, #4]
	}

	if (flag) {
  40032a:	68fb      	ldr	r3, [r7, #12]
  40032c:	2b00      	cmp	r3, #0
  40032e:	d004      	beq.n	40033a <rtt_write_alarm_time+0x46>
		rtt_enable_interrupt(RTT, RTT_MR_ALMIEN);
  400330:	f44f 3180 	mov.w	r1, #65536	; 0x10000
  400334:	4803      	ldr	r0, [pc, #12]	; (400344 <rtt_write_alarm_time+0x50>)
  400336:	4b05      	ldr	r3, [pc, #20]	; (40034c <rtt_write_alarm_time+0x58>)
  400338:	4798      	blx	r3
	}

	return 0;
  40033a:	2300      	movs	r3, #0
}
  40033c:	4618      	mov	r0, r3
  40033e:	3710      	adds	r7, #16
  400340:	46bd      	mov	sp, r7
  400342:	bd80      	pop	{r7, pc}
  400344:	400e1830 	.word	0x400e1830
  400348:	0040026d 	.word	0x0040026d
  40034c:	00400235 	.word	0x00400235

00400350 <spi_get_peripheral_select_mode>:
 * \param p_spi Pointer to an SPI instance.
 *
 * \return 1 for Variable mode, 0 for fixed mode.
 */
static inline uint32_t spi_get_peripheral_select_mode(Spi *p_spi)
{
  400350:	b480      	push	{r7}
  400352:	b083      	sub	sp, #12
  400354:	af00      	add	r7, sp, #0
  400356:	6078      	str	r0, [r7, #4]
	if (p_spi->SPI_MR & SPI_MR_PS) {
  400358:	687b      	ldr	r3, [r7, #4]
  40035a:	685b      	ldr	r3, [r3, #4]
  40035c:	f003 0302 	and.w	r3, r3, #2
  400360:	2b00      	cmp	r3, #0
  400362:	d001      	beq.n	400368 <spi_get_peripheral_select_mode+0x18>
		return 1;
  400364:	2301      	movs	r3, #1
  400366:	e000      	b.n	40036a <spi_get_peripheral_select_mode+0x1a>
	} else {
		return 0;
  400368:	2300      	movs	r3, #0
	}
}
  40036a:	4618      	mov	r0, r3
  40036c:	370c      	adds	r7, #12
  40036e:	46bd      	mov	sp, r7
  400370:	f85d 7b04 	ldr.w	r7, [sp], #4
  400374:	4770      	bx	lr
	...

00400378 <sysclk_enable_peripheral_clock>:
 * \brief Enable a peripheral's clock.
 *
 * \param ul_id Id (number) of the peripheral clock.
 */
static inline void sysclk_enable_peripheral_clock(uint32_t ul_id)
{
  400378:	b580      	push	{r7, lr}
  40037a:	b082      	sub	sp, #8
  40037c:	af00      	add	r7, sp, #0
  40037e:	6078      	str	r0, [r7, #4]
	pmc_enable_periph_clk(ul_id);
  400380:	6878      	ldr	r0, [r7, #4]
  400382:	4b03      	ldr	r3, [pc, #12]	; (400390 <sysclk_enable_peripheral_clock+0x18>)
  400384:	4798      	blx	r3
}
  400386:	bf00      	nop
  400388:	3708      	adds	r7, #8
  40038a:	46bd      	mov	sp, r7
  40038c:	bd80      	pop	{r7, pc}
  40038e:	bf00      	nop
  400390:	004025c1 	.word	0x004025c1

00400394 <spi_enable_clock>:
 * \brief Enable SPI clock.
 *
 * \param p_spi Pointer to an SPI instance.
 */
void spi_enable_clock(Spi *p_spi)
{
  400394:	b580      	push	{r7, lr}
  400396:	b082      	sub	sp, #8
  400398:	af00      	add	r7, sp, #0
  40039a:	6078      	str	r0, [r7, #4]
#if (SAM4S || SAM3S || SAM3N || SAM3U || SAM4E || SAM4N || SAMG51|| SAMG53|| SAMG54)
	UNUSED(p_spi);
	sysclk_enable_peripheral_clock(ID_SPI);
#elif (SAM3XA || SAM4C || SAM4CP || SAM4CM || SAMV71 || SAMV70 || SAME70 || SAMS70)
	if (p_spi == SPI0) {
  40039c:	687b      	ldr	r3, [r7, #4]
  40039e:	4a09      	ldr	r2, [pc, #36]	; (4003c4 <spi_enable_clock+0x30>)
  4003a0:	4293      	cmp	r3, r2
  4003a2:	d103      	bne.n	4003ac <spi_enable_clock+0x18>
		sysclk_enable_peripheral_clock(ID_SPI0);
  4003a4:	2015      	movs	r0, #21
  4003a6:	4b08      	ldr	r3, [pc, #32]	; (4003c8 <spi_enable_clock+0x34>)
  4003a8:	4798      	blx	r3
	}
	#endif
#elif SAM4L
	sysclk_enable_peripheral_clock(p_spi);
#endif
}
  4003aa:	e006      	b.n	4003ba <spi_enable_clock+0x26>
	else if (p_spi == SPI1) {
  4003ac:	687b      	ldr	r3, [r7, #4]
  4003ae:	4a07      	ldr	r2, [pc, #28]	; (4003cc <spi_enable_clock+0x38>)
  4003b0:	4293      	cmp	r3, r2
  4003b2:	d102      	bne.n	4003ba <spi_enable_clock+0x26>
		sysclk_enable_peripheral_clock(ID_SPI1);
  4003b4:	202a      	movs	r0, #42	; 0x2a
  4003b6:	4b04      	ldr	r3, [pc, #16]	; (4003c8 <spi_enable_clock+0x34>)
  4003b8:	4798      	blx	r3
}
  4003ba:	bf00      	nop
  4003bc:	3708      	adds	r7, #8
  4003be:	46bd      	mov	sp, r7
  4003c0:	bd80      	pop	{r7, pc}
  4003c2:	bf00      	nop
  4003c4:	40008000 	.word	0x40008000
  4003c8:	00400379 	.word	0x00400379
  4003cc:	40058000 	.word	0x40058000

004003d0 <spi_set_peripheral_chip_select_value>:
 *                 The decode mode can be enabled/disabled by follow functions:
 *                 \ref spi_enable_peripheral_select_decode,
 *                 \ref spi_disable_peripheral_select_decode.
 */
void spi_set_peripheral_chip_select_value(Spi *p_spi, uint32_t ul_value)
{
  4003d0:	b480      	push	{r7}
  4003d2:	b083      	sub	sp, #12
  4003d4:	af00      	add	r7, sp, #0
  4003d6:	6078      	str	r0, [r7, #4]
  4003d8:	6039      	str	r1, [r7, #0]
	p_spi->SPI_MR &= (~SPI_MR_PCS_Msk);
  4003da:	687b      	ldr	r3, [r7, #4]
  4003dc:	685b      	ldr	r3, [r3, #4]
  4003de:	f423 2270 	bic.w	r2, r3, #983040	; 0xf0000
  4003e2:	687b      	ldr	r3, [r7, #4]
  4003e4:	605a      	str	r2, [r3, #4]
	p_spi->SPI_MR |= SPI_MR_PCS(ul_value);
  4003e6:	687b      	ldr	r3, [r7, #4]
  4003e8:	685a      	ldr	r2, [r3, #4]
  4003ea:	683b      	ldr	r3, [r7, #0]
  4003ec:	041b      	lsls	r3, r3, #16
  4003ee:	f403 2370 	and.w	r3, r3, #983040	; 0xf0000
  4003f2:	431a      	orrs	r2, r3
  4003f4:	687b      	ldr	r3, [r7, #4]
  4003f6:	605a      	str	r2, [r3, #4]
}
  4003f8:	bf00      	nop
  4003fa:	370c      	adds	r7, #12
  4003fc:	46bd      	mov	sp, r7
  4003fe:	f85d 7b04 	ldr.w	r7, [sp], #4
  400402:	4770      	bx	lr

00400404 <spi_write>:
 * \retval SPI_OK on Success.
 * \retval SPI_ERROR_TIMEOUT on Time-out.
 */
spi_status_t spi_write(Spi *p_spi, uint16_t us_data,
		uint8_t uc_pcs, uint8_t uc_last)
{
  400404:	b580      	push	{r7, lr}
  400406:	b084      	sub	sp, #16
  400408:	af00      	add	r7, sp, #0
  40040a:	6078      	str	r0, [r7, #4]
  40040c:	4608      	mov	r0, r1
  40040e:	4611      	mov	r1, r2
  400410:	461a      	mov	r2, r3
  400412:	4603      	mov	r3, r0
  400414:	807b      	strh	r3, [r7, #2]
  400416:	460b      	mov	r3, r1
  400418:	707b      	strb	r3, [r7, #1]
  40041a:	4613      	mov	r3, r2
  40041c:	703b      	strb	r3, [r7, #0]
	uint32_t timeout = SPI_TIMEOUT;
  40041e:	f643 2398 	movw	r3, #15000	; 0x3a98
  400422:	60fb      	str	r3, [r7, #12]
	uint32_t value;

	while (!(p_spi->SPI_SR & SPI_SR_TDRE)) {
  400424:	e006      	b.n	400434 <spi_write+0x30>
		if (!timeout--) {
  400426:	68fb      	ldr	r3, [r7, #12]
  400428:	1e5a      	subs	r2, r3, #1
  40042a:	60fa      	str	r2, [r7, #12]
  40042c:	2b00      	cmp	r3, #0
  40042e:	d101      	bne.n	400434 <spi_write+0x30>
			return SPI_ERROR_TIMEOUT;
  400430:	2301      	movs	r3, #1
  400432:	e020      	b.n	400476 <spi_write+0x72>
	while (!(p_spi->SPI_SR & SPI_SR_TDRE)) {
  400434:	687b      	ldr	r3, [r7, #4]
  400436:	691b      	ldr	r3, [r3, #16]
  400438:	f003 0302 	and.w	r3, r3, #2
  40043c:	2b00      	cmp	r3, #0
  40043e:	d0f2      	beq.n	400426 <spi_write+0x22>
		}
	}

	if (spi_get_peripheral_select_mode(p_spi)) {
  400440:	6878      	ldr	r0, [r7, #4]
  400442:	4b0f      	ldr	r3, [pc, #60]	; (400480 <spi_write+0x7c>)
  400444:	4798      	blx	r3
  400446:	4603      	mov	r3, r0
  400448:	2b00      	cmp	r3, #0
  40044a:	d00e      	beq.n	40046a <spi_write+0x66>
		value = SPI_TDR_TD(us_data) | SPI_TDR_PCS(uc_pcs);
  40044c:	887a      	ldrh	r2, [r7, #2]
  40044e:	787b      	ldrb	r3, [r7, #1]
  400450:	041b      	lsls	r3, r3, #16
  400452:	f403 2370 	and.w	r3, r3, #983040	; 0xf0000
  400456:	4313      	orrs	r3, r2
  400458:	60bb      	str	r3, [r7, #8]
		if (uc_last) {
  40045a:	783b      	ldrb	r3, [r7, #0]
  40045c:	2b00      	cmp	r3, #0
  40045e:	d006      	beq.n	40046e <spi_write+0x6a>
			value |= SPI_TDR_LASTXFER;
  400460:	68bb      	ldr	r3, [r7, #8]
  400462:	f043 7380 	orr.w	r3, r3, #16777216	; 0x1000000
  400466:	60bb      	str	r3, [r7, #8]
  400468:	e001      	b.n	40046e <spi_write+0x6a>
		}
	} else {
		value = SPI_TDR_TD(us_data);
  40046a:	887b      	ldrh	r3, [r7, #2]
  40046c:	60bb      	str	r3, [r7, #8]
	}

	p_spi->SPI_TDR = value;
  40046e:	687b      	ldr	r3, [r7, #4]
  400470:	68ba      	ldr	r2, [r7, #8]
  400472:	60da      	str	r2, [r3, #12]

	return SPI_OK;
  400474:	2300      	movs	r3, #0
}
  400476:	4618      	mov	r0, r3
  400478:	3710      	adds	r7, #16
  40047a:	46bd      	mov	sp, r7
  40047c:	bd80      	pop	{r7, pc}
  40047e:	bf00      	nop
  400480:	00400351 	.word	0x00400351

00400484 <spi_set_clock_polarity>:
 * \param ul_pcs_ch Peripheral Chip Select channel (0~3).
 * \param ul_polarity Default clock state is logical one(high)/zero(low).
 */
void spi_set_clock_polarity(Spi *p_spi, uint32_t ul_pcs_ch,
		uint32_t ul_polarity)
{
  400484:	b480      	push	{r7}
  400486:	b085      	sub	sp, #20
  400488:	af00      	add	r7, sp, #0
  40048a:	60f8      	str	r0, [r7, #12]
  40048c:	60b9      	str	r1, [r7, #8]
  40048e:	607a      	str	r2, [r7, #4]
	if (ul_polarity) {
  400490:	687b      	ldr	r3, [r7, #4]
  400492:	2b00      	cmp	r3, #0
  400494:	d00c      	beq.n	4004b0 <spi_set_clock_polarity+0x2c>
		p_spi->SPI_CSR[ul_pcs_ch] |= SPI_CSR_CPOL;
  400496:	68fb      	ldr	r3, [r7, #12]
  400498:	68ba      	ldr	r2, [r7, #8]
  40049a:	320c      	adds	r2, #12
  40049c:	f853 3022 	ldr.w	r3, [r3, r2, lsl #2]
  4004a0:	f043 0101 	orr.w	r1, r3, #1
  4004a4:	68fb      	ldr	r3, [r7, #12]
  4004a6:	68ba      	ldr	r2, [r7, #8]
  4004a8:	320c      	adds	r2, #12
  4004aa:	f843 1022 	str.w	r1, [r3, r2, lsl #2]
	} else {
		p_spi->SPI_CSR[ul_pcs_ch] &= (~SPI_CSR_CPOL);
	}
}
  4004ae:	e00b      	b.n	4004c8 <spi_set_clock_polarity+0x44>
		p_spi->SPI_CSR[ul_pcs_ch] &= (~SPI_CSR_CPOL);
  4004b0:	68fb      	ldr	r3, [r7, #12]
  4004b2:	68ba      	ldr	r2, [r7, #8]
  4004b4:	320c      	adds	r2, #12
  4004b6:	f853 3022 	ldr.w	r3, [r3, r2, lsl #2]
  4004ba:	f023 0101 	bic.w	r1, r3, #1
  4004be:	68fb      	ldr	r3, [r7, #12]
  4004c0:	68ba      	ldr	r2, [r7, #8]
  4004c2:	320c      	adds	r2, #12
  4004c4:	f843 1022 	str.w	r1, [r3, r2, lsl #2]
}
  4004c8:	bf00      	nop
  4004ca:	3714      	adds	r7, #20
  4004cc:	46bd      	mov	sp, r7
  4004ce:	f85d 7b04 	ldr.w	r7, [sp], #4
  4004d2:	4770      	bx	lr

004004d4 <spi_set_clock_phase>:
 * \param p_spi Pointer to an SPI instance.
 *  \param ul_pcs_ch Peripheral Chip Select channel (0~3).
 *  \param ul_phase Data capture on the rising/falling edge of clock.
 */
void spi_set_clock_phase(Spi *p_spi, uint32_t ul_pcs_ch, uint32_t ul_phase)
{
  4004d4:	b480      	push	{r7}
  4004d6:	b085      	sub	sp, #20
  4004d8:	af00      	add	r7, sp, #0
  4004da:	60f8      	str	r0, [r7, #12]
  4004dc:	60b9      	str	r1, [r7, #8]
  4004de:	607a      	str	r2, [r7, #4]
	if (ul_phase) {
  4004e0:	687b      	ldr	r3, [r7, #4]
  4004e2:	2b00      	cmp	r3, #0
  4004e4:	d00c      	beq.n	400500 <spi_set_clock_phase+0x2c>
		p_spi->SPI_CSR[ul_pcs_ch] |= SPI_CSR_NCPHA;
  4004e6:	68fb      	ldr	r3, [r7, #12]
  4004e8:	68ba      	ldr	r2, [r7, #8]
  4004ea:	320c      	adds	r2, #12
  4004ec:	f853 3022 	ldr.w	r3, [r3, r2, lsl #2]
  4004f0:	f043 0102 	orr.w	r1, r3, #2
  4004f4:	68fb      	ldr	r3, [r7, #12]
  4004f6:	68ba      	ldr	r2, [r7, #8]
  4004f8:	320c      	adds	r2, #12
  4004fa:	f843 1022 	str.w	r1, [r3, r2, lsl #2]
	} else {
		p_spi->SPI_CSR[ul_pcs_ch] &= (~SPI_CSR_NCPHA);
	}
}
  4004fe:	e00b      	b.n	400518 <spi_set_clock_phase+0x44>
		p_spi->SPI_CSR[ul_pcs_ch] &= (~SPI_CSR_NCPHA);
  400500:	68fb      	ldr	r3, [r7, #12]
  400502:	68ba      	ldr	r2, [r7, #8]
  400504:	320c      	adds	r2, #12
  400506:	f853 3022 	ldr.w	r3, [r3, r2, lsl #2]
  40050a:	f023 0102 	bic.w	r1, r3, #2
  40050e:	68fb      	ldr	r3, [r7, #12]
  400510:	68ba      	ldr	r2, [r7, #8]
  400512:	320c      	adds	r2, #12
  400514:	f843 1022 	str.w	r1, [r3, r2, lsl #2]
}
  400518:	bf00      	nop
  40051a:	3714      	adds	r7, #20
  40051c:	46bd      	mov	sp, r7
  40051e:	f85d 7b04 	ldr.w	r7, [sp], #4
  400522:	4770      	bx	lr

00400524 <spi_configure_cs_behavior>:
 * \param ul_pcs_ch Peripheral Chip Select channel (0~3).
 * \param ul_cs_behavior Behavior of the Chip Select after transfer.
 */
void spi_configure_cs_behavior(Spi *p_spi, uint32_t ul_pcs_ch,
		uint32_t ul_cs_behavior)
{
  400524:	b480      	push	{r7}
  400526:	b085      	sub	sp, #20
  400528:	af00      	add	r7, sp, #0
  40052a:	60f8      	str	r0, [r7, #12]
  40052c:	60b9      	str	r1, [r7, #8]
  40052e:	607a      	str	r2, [r7, #4]
	if (ul_cs_behavior == SPI_CS_RISE_FORCED) {
  400530:	687b      	ldr	r3, [r7, #4]
  400532:	2b04      	cmp	r3, #4
  400534:	d118      	bne.n	400568 <spi_configure_cs_behavior+0x44>
		p_spi->SPI_CSR[ul_pcs_ch] &= (~SPI_CSR_CSAAT);
  400536:	68fb      	ldr	r3, [r7, #12]
  400538:	68ba      	ldr	r2, [r7, #8]
  40053a:	320c      	adds	r2, #12
  40053c:	f853 3022 	ldr.w	r3, [r3, r2, lsl #2]
  400540:	f023 0108 	bic.w	r1, r3, #8
  400544:	68fb      	ldr	r3, [r7, #12]
  400546:	68ba      	ldr	r2, [r7, #8]
  400548:	320c      	adds	r2, #12
  40054a:	f843 1022 	str.w	r1, [r3, r2, lsl #2]
		p_spi->SPI_CSR[ul_pcs_ch] |= SPI_CSR_CSNAAT;
  40054e:	68fb      	ldr	r3, [r7, #12]
  400550:	68ba      	ldr	r2, [r7, #8]
  400552:	320c      	adds	r2, #12
  400554:	f853 3022 	ldr.w	r3, [r3, r2, lsl #2]
  400558:	f043 0104 	orr.w	r1, r3, #4
  40055c:	68fb      	ldr	r3, [r7, #12]
  40055e:	68ba      	ldr	r2, [r7, #8]
  400560:	320c      	adds	r2, #12
  400562:	f843 1022 	str.w	r1, [r3, r2, lsl #2]
		p_spi->SPI_CSR[ul_pcs_ch] &= (~SPI_CSR_CSAAT);
		p_spi->SPI_CSR[ul_pcs_ch] &= (~SPI_CSR_CSNAAT);
	} else if (ul_cs_behavior == SPI_CS_KEEP_LOW) {
		p_spi->SPI_CSR[ul_pcs_ch] |= SPI_CSR_CSAAT;
	}
}
  400566:	e02a      	b.n	4005be <spi_configure_cs_behavior+0x9a>
	} else if (ul_cs_behavior == SPI_CS_RISE_NO_TX) {
  400568:	687b      	ldr	r3, [r7, #4]
  40056a:	2b00      	cmp	r3, #0
  40056c:	d118      	bne.n	4005a0 <spi_configure_cs_behavior+0x7c>
		p_spi->SPI_CSR[ul_pcs_ch] &= (~SPI_CSR_CSAAT);
  40056e:	68fb      	ldr	r3, [r7, #12]
  400570:	68ba      	ldr	r2, [r7, #8]
  400572:	320c      	adds	r2, #12
  400574:	f853 3022 	ldr.w	r3, [r3, r2, lsl #2]
  400578:	f023 0108 	bic.w	r1, r3, #8
  40057c:	68fb      	ldr	r3, [r7, #12]
  40057e:	68ba      	ldr	r2, [r7, #8]
  400580:	320c      	adds	r2, #12
  400582:	f843 1022 	str.w	r1, [r3, r2, lsl #2]
		p_spi->SPI_CSR[ul_pcs_ch] &= (~SPI_CSR_CSNAAT);
  400586:	68fb      	ldr	r3, [r7, #12]
  400588:	68ba      	ldr	r2, [r7, #8]
  40058a:	320c      	adds	r2, #12
  40058c:	f853 3022 	ldr.w	r3, [r3, r2, lsl #2]
  400590:	f023 0104 	bic.w	r1, r3, #4
  400594:	68fb      	ldr	r3, [r7, #12]
  400596:	68ba      	ldr	r2, [r7, #8]
  400598:	320c      	adds	r2, #12
  40059a:	f843 1022 	str.w	r1, [r3, r2, lsl #2]
}
  40059e:	e00e      	b.n	4005be <spi_configure_cs_behavior+0x9a>
	} else if (ul_cs_behavior == SPI_CS_KEEP_LOW) {
  4005a0:	687b      	ldr	r3, [r7, #4]
  4005a2:	2b08      	cmp	r3, #8
  4005a4:	d10b      	bne.n	4005be <spi_configure_cs_behavior+0x9a>
		p_spi->SPI_CSR[ul_pcs_ch] |= SPI_CSR_CSAAT;
  4005a6:	68fb      	ldr	r3, [r7, #12]
  4005a8:	68ba      	ldr	r2, [r7, #8]
  4005aa:	320c      	adds	r2, #12
  4005ac:	f853 3022 	ldr.w	r3, [r3, r2, lsl #2]
  4005b0:	f043 0108 	orr.w	r1, r3, #8
  4005b4:	68fb      	ldr	r3, [r7, #12]
  4005b6:	68ba      	ldr	r2, [r7, #8]
  4005b8:	320c      	adds	r2, #12
  4005ba:	f843 1022 	str.w	r1, [r3, r2, lsl #2]
}
  4005be:	bf00      	nop
  4005c0:	3714      	adds	r7, #20
  4005c2:	46bd      	mov	sp, r7
  4005c4:	f85d 7b04 	ldr.w	r7, [sp], #4
  4005c8:	4770      	bx	lr

004005ca <spi_set_bits_per_transfer>:
 * \param ul_bits Number of bits (8~16), use the pattern defined
 *        in the device header file.
 */
void spi_set_bits_per_transfer(Spi *p_spi, uint32_t ul_pcs_ch,
		uint32_t ul_bits)
{
  4005ca:	b480      	push	{r7}
  4005cc:	b085      	sub	sp, #20
  4005ce:	af00      	add	r7, sp, #0
  4005d0:	60f8      	str	r0, [r7, #12]
  4005d2:	60b9      	str	r1, [r7, #8]
  4005d4:	607a      	str	r2, [r7, #4]
	p_spi->SPI_CSR[ul_pcs_ch] &= (~SPI_CSR_BITS_Msk);
  4005d6:	68fb      	ldr	r3, [r7, #12]
  4005d8:	68ba      	ldr	r2, [r7, #8]
  4005da:	320c      	adds	r2, #12
  4005dc:	f853 3022 	ldr.w	r3, [r3, r2, lsl #2]
  4005e0:	f023 01f0 	bic.w	r1, r3, #240	; 0xf0
  4005e4:	68fb      	ldr	r3, [r7, #12]
  4005e6:	68ba      	ldr	r2, [r7, #8]
  4005e8:	320c      	adds	r2, #12
  4005ea:	f843 1022 	str.w	r1, [r3, r2, lsl #2]
	p_spi->SPI_CSR[ul_pcs_ch] |= ul_bits;
  4005ee:	68fb      	ldr	r3, [r7, #12]
  4005f0:	68ba      	ldr	r2, [r7, #8]
  4005f2:	320c      	adds	r2, #12
  4005f4:	f853 2022 	ldr.w	r2, [r3, r2, lsl #2]
  4005f8:	687b      	ldr	r3, [r7, #4]
  4005fa:	ea42 0103 	orr.w	r1, r2, r3
  4005fe:	68fb      	ldr	r3, [r7, #12]
  400600:	68ba      	ldr	r2, [r7, #8]
  400602:	320c      	adds	r2, #12
  400604:	f843 1022 	str.w	r1, [r3, r2, lsl #2]
}
  400608:	bf00      	nop
  40060a:	3714      	adds	r7, #20
  40060c:	46bd      	mov	sp, r7
  40060e:	f85d 7b04 	ldr.w	r7, [sp], #4
  400612:	4770      	bx	lr

00400614 <spi_calc_baudrate_div>:
 * \return Divider or error code.
 *   \retval > 0  Success.
 *   \retval < 0  Error.
 */
int16_t spi_calc_baudrate_div(const uint32_t baudrate, uint32_t mck)
{
  400614:	b480      	push	{r7}
  400616:	b085      	sub	sp, #20
  400618:	af00      	add	r7, sp, #0
  40061a:	6078      	str	r0, [r7, #4]
  40061c:	6039      	str	r1, [r7, #0]
	int baud_div = div_ceil(mck, baudrate);
  40061e:	683a      	ldr	r2, [r7, #0]
  400620:	687b      	ldr	r3, [r7, #4]
  400622:	4413      	add	r3, r2
  400624:	1e5a      	subs	r2, r3, #1
  400626:	687b      	ldr	r3, [r7, #4]
  400628:	fbb2 f3f3 	udiv	r3, r2, r3
  40062c:	60fb      	str	r3, [r7, #12]

	/* The value of baud_div is from 1 to 255 in the SCBR field. */
	if (baud_div <= 0 || baud_div > 255) {
  40062e:	68fb      	ldr	r3, [r7, #12]
  400630:	2b00      	cmp	r3, #0
  400632:	dd02      	ble.n	40063a <spi_calc_baudrate_div+0x26>
  400634:	68fb      	ldr	r3, [r7, #12]
  400636:	2bff      	cmp	r3, #255	; 0xff
  400638:	dd02      	ble.n	400640 <spi_calc_baudrate_div+0x2c>
		return -1;
  40063a:	f04f 33ff 	mov.w	r3, #4294967295
  40063e:	e001      	b.n	400644 <spi_calc_baudrate_div+0x30>
	}

	return baud_div;
  400640:	68fb      	ldr	r3, [r7, #12]
  400642:	b21b      	sxth	r3, r3
}
  400644:	4618      	mov	r0, r3
  400646:	3714      	adds	r7, #20
  400648:	46bd      	mov	sp, r7
  40064a:	f85d 7b04 	ldr.w	r7, [sp], #4
  40064e:	4770      	bx	lr

00400650 <spi_set_baudrate_div>:
 * \retval is 0 Success.
 * \retval is -1 Error.
 */
int16_t spi_set_baudrate_div(Spi *p_spi, uint32_t ul_pcs_ch,
		uint8_t uc_baudrate_divider)
{
  400650:	b480      	push	{r7}
  400652:	b085      	sub	sp, #20
  400654:	af00      	add	r7, sp, #0
  400656:	60f8      	str	r0, [r7, #12]
  400658:	60b9      	str	r1, [r7, #8]
  40065a:	4613      	mov	r3, r2
  40065c:	71fb      	strb	r3, [r7, #7]
    /* Programming the SCBR field to 0 is forbidden */
    if (!uc_baudrate_divider)
  40065e:	79fb      	ldrb	r3, [r7, #7]
  400660:	2b00      	cmp	r3, #0
  400662:	d102      	bne.n	40066a <spi_set_baudrate_div+0x1a>
        return -1;
  400664:	f04f 33ff 	mov.w	r3, #4294967295
  400668:	e01b      	b.n	4006a2 <spi_set_baudrate_div+0x52>

	p_spi->SPI_CSR[ul_pcs_ch] &= (~SPI_CSR_SCBR_Msk);
  40066a:	68fb      	ldr	r3, [r7, #12]
  40066c:	68ba      	ldr	r2, [r7, #8]
  40066e:	320c      	adds	r2, #12
  400670:	f853 3022 	ldr.w	r3, [r3, r2, lsl #2]
  400674:	f423 417f 	bic.w	r1, r3, #65280	; 0xff00
  400678:	68fb      	ldr	r3, [r7, #12]
  40067a:	68ba      	ldr	r2, [r7, #8]
  40067c:	320c      	adds	r2, #12
  40067e:	f843 1022 	str.w	r1, [r3, r2, lsl #2]
	p_spi->SPI_CSR[ul_pcs_ch] |= SPI_CSR_SCBR(uc_baudrate_divider);
  400682:	68fb      	ldr	r3, [r7, #12]
  400684:	68ba      	ldr	r2, [r7, #8]
  400686:	320c      	adds	r2, #12
  400688:	f853 2022 	ldr.w	r2, [r3, r2, lsl #2]
  40068c:	79fb      	ldrb	r3, [r7, #7]
  40068e:	021b      	lsls	r3, r3, #8
  400690:	b29b      	uxth	r3, r3
  400692:	ea42 0103 	orr.w	r1, r2, r3
  400696:	68fb      	ldr	r3, [r7, #12]
  400698:	68ba      	ldr	r2, [r7, #8]
  40069a:	320c      	adds	r2, #12
  40069c:	f843 1022 	str.w	r1, [r3, r2, lsl #2]
    return 0;
  4006a0:	2300      	movs	r3, #0
}
  4006a2:	4618      	mov	r0, r3
  4006a4:	3714      	adds	r7, #20
  4006a6:	46bd      	mov	sp, r7
  4006a8:	f85d 7b04 	ldr.w	r7, [sp], #4
  4006ac:	4770      	bx	lr
	...

004006b0 <gfx_mono_set_framebuffer>:
	uint8_t framebuffer[FRAMEBUFFER_SIZE];
	gfx_mono_set_framebuffer(framebuffer);
\endcode
 */
void gfx_mono_set_framebuffer(uint8_t *framebuffer)
{
  4006b0:	b480      	push	{r7}
  4006b2:	b083      	sub	sp, #12
  4006b4:	af00      	add	r7, sp, #0
  4006b6:	6078      	str	r0, [r7, #4]
	fbpointer = framebuffer;
  4006b8:	4a04      	ldr	r2, [pc, #16]	; (4006cc <gfx_mono_set_framebuffer+0x1c>)
  4006ba:	687b      	ldr	r3, [r7, #4]
  4006bc:	6013      	str	r3, [r2, #0]
}
  4006be:	bf00      	nop
  4006c0:	370c      	adds	r7, #12
  4006c2:	46bd      	mov	sp, r7
  4006c4:	f85d 7b04 	ldr.w	r7, [sp], #4
  4006c8:	4770      	bx	lr
  4006ca:	bf00      	nop
  4006cc:	204009f0 	.word	0x204009f0

004006d0 <gfx_mono_framebuffer_put_byte>:
	gfx_mono_framebuffer_put_byte(0, 0, 0xFF);
\endcode
 */
void gfx_mono_framebuffer_put_byte(gfx_coord_t page, gfx_coord_t column,
		uint8_t data)
{
  4006d0:	b480      	push	{r7}
  4006d2:	b083      	sub	sp, #12
  4006d4:	af00      	add	r7, sp, #0
  4006d6:	4603      	mov	r3, r0
  4006d8:	71fb      	strb	r3, [r7, #7]
  4006da:	460b      	mov	r3, r1
  4006dc:	71bb      	strb	r3, [r7, #6]
  4006de:	4613      	mov	r3, r2
  4006e0:	717b      	strb	r3, [r7, #5]
	*(fbpointer + (page * GFX_MONO_LCD_WIDTH) + column) = data;
  4006e2:	4b08      	ldr	r3, [pc, #32]	; (400704 <gfx_mono_framebuffer_put_byte+0x34>)
  4006e4:	681a      	ldr	r2, [r3, #0]
  4006e6:	79fb      	ldrb	r3, [r7, #7]
  4006e8:	01db      	lsls	r3, r3, #7
  4006ea:	4619      	mov	r1, r3
  4006ec:	79bb      	ldrb	r3, [r7, #6]
  4006ee:	440b      	add	r3, r1
  4006f0:	4413      	add	r3, r2
  4006f2:	797a      	ldrb	r2, [r7, #5]
  4006f4:	701a      	strb	r2, [r3, #0]
}
  4006f6:	bf00      	nop
  4006f8:	370c      	adds	r7, #12
  4006fa:	46bd      	mov	sp, r7
  4006fc:	f85d 7b04 	ldr.w	r7, [sp], #4
  400700:	4770      	bx	lr
  400702:	bf00      	nop
  400704:	204009f0 	.word	0x204009f0

00400708 <gfx_mono_framebuffer_get_byte>:
 * \code
	data = gfx_mono_framebuffer_get_byte(0, 0);
\endcode
 */
uint8_t gfx_mono_framebuffer_get_byte(gfx_coord_t page, gfx_coord_t column)
{
  400708:	b480      	push	{r7}
  40070a:	b083      	sub	sp, #12
  40070c:	af00      	add	r7, sp, #0
  40070e:	4603      	mov	r3, r0
  400710:	460a      	mov	r2, r1
  400712:	71fb      	strb	r3, [r7, #7]
  400714:	4613      	mov	r3, r2
  400716:	71bb      	strb	r3, [r7, #6]
	return *(fbpointer + (page * GFX_MONO_LCD_WIDTH) + column);
  400718:	4b07      	ldr	r3, [pc, #28]	; (400738 <gfx_mono_framebuffer_get_byte+0x30>)
  40071a:	681a      	ldr	r2, [r3, #0]
  40071c:	79fb      	ldrb	r3, [r7, #7]
  40071e:	01db      	lsls	r3, r3, #7
  400720:	4619      	mov	r1, r3
  400722:	79bb      	ldrb	r3, [r7, #6]
  400724:	440b      	add	r3, r1
  400726:	4413      	add	r3, r2
  400728:	781b      	ldrb	r3, [r3, #0]
}
  40072a:	4618      	mov	r0, r3
  40072c:	370c      	adds	r7, #12
  40072e:	46bd      	mov	sp, r7
  400730:	f85d 7b04 	ldr.w	r7, [sp], #4
  400734:	4770      	bx	lr
  400736:	bf00      	nop
  400738:	204009f0 	.word	0x204009f0

0040073c <gfx_mono_generic_draw_horizontal_line>:
 * \param[in]  length     Length of the line in pixels.
 * \param[in]  color      Pixel operation of the line.
 */
void gfx_mono_generic_draw_horizontal_line(gfx_coord_t x, gfx_coord_t y,
		gfx_coord_t length, enum gfx_mono_color color)
{
  40073c:	b590      	push	{r4, r7, lr}
  40073e:	b085      	sub	sp, #20
  400740:	af00      	add	r7, sp, #0
  400742:	4604      	mov	r4, r0
  400744:	4608      	mov	r0, r1
  400746:	4611      	mov	r1, r2
  400748:	461a      	mov	r2, r3
  40074a:	4623      	mov	r3, r4
  40074c:	71fb      	strb	r3, [r7, #7]
  40074e:	4603      	mov	r3, r0
  400750:	71bb      	strb	r3, [r7, #6]
  400752:	460b      	mov	r3, r1
  400754:	717b      	strb	r3, [r7, #5]
  400756:	4613      	mov	r3, r2
  400758:	713b      	strb	r3, [r7, #4]
	uint8_t page;
	uint8_t pixelmask;
	uint8_t temp;

	/* Clip line length if too long */
	if (x + length > GFX_MONO_LCD_WIDTH) {
  40075a:	79fa      	ldrb	r2, [r7, #7]
  40075c:	797b      	ldrb	r3, [r7, #5]
  40075e:	4413      	add	r3, r2
  400760:	2b80      	cmp	r3, #128	; 0x80
  400762:	dd06      	ble.n	400772 <gfx_mono_generic_draw_horizontal_line+0x36>
		length = GFX_MONO_LCD_WIDTH - x;
  400764:	79fb      	ldrb	r3, [r7, #7]
  400766:	f1c3 23ff 	rsb	r3, r3, #4278255360	; 0xff00ff00
  40076a:	f503 037f 	add.w	r3, r3, #16711680	; 0xff0000
  40076e:	3380      	adds	r3, #128	; 0x80
  400770:	717b      	strb	r3, [r7, #5]
	}

	page = y / 8;
  400772:	79bb      	ldrb	r3, [r7, #6]
  400774:	08db      	lsrs	r3, r3, #3
  400776:	73fb      	strb	r3, [r7, #15]
	pixelmask = (1 << (y - (page * 8)));
  400778:	79ba      	ldrb	r2, [r7, #6]
  40077a:	7bfb      	ldrb	r3, [r7, #15]
  40077c:	00db      	lsls	r3, r3, #3
  40077e:	1ad3      	subs	r3, r2, r3
  400780:	2201      	movs	r2, #1
  400782:	fa02 f303 	lsl.w	r3, r2, r3
  400786:	73bb      	strb	r3, [r7, #14]

	if (length == 0) {
  400788:	797b      	ldrb	r3, [r7, #5]
  40078a:	2b00      	cmp	r3, #0
  40078c:	d066      	beq.n	40085c <gfx_mono_generic_draw_horizontal_line+0x120>
		/* Nothing to do. Move along. */
		return;
	}

	switch (color) {
  40078e:	793b      	ldrb	r3, [r7, #4]
  400790:	2b01      	cmp	r3, #1
  400792:	d01c      	beq.n	4007ce <gfx_mono_generic_draw_horizontal_line+0x92>
  400794:	2b02      	cmp	r3, #2
  400796:	d05b      	beq.n	400850 <gfx_mono_generic_draw_horizontal_line+0x114>
  400798:	2b00      	cmp	r3, #0
  40079a:	d03b      	beq.n	400814 <gfx_mono_generic_draw_horizontal_line+0xd8>
			gfx_mono_put_byte(page, x + length, temp);
		}
		break;

	default:
		break;
  40079c:	e05f      	b.n	40085e <gfx_mono_generic_draw_horizontal_line+0x122>
			temp = gfx_mono_get_byte(page, x + length);
  40079e:	79fa      	ldrb	r2, [r7, #7]
  4007a0:	797b      	ldrb	r3, [r7, #5]
  4007a2:	4413      	add	r3, r2
  4007a4:	b2da      	uxtb	r2, r3
  4007a6:	7bfb      	ldrb	r3, [r7, #15]
  4007a8:	4611      	mov	r1, r2
  4007aa:	4618      	mov	r0, r3
  4007ac:	4b2d      	ldr	r3, [pc, #180]	; (400864 <gfx_mono_generic_draw_horizontal_line+0x128>)
  4007ae:	4798      	blx	r3
  4007b0:	4603      	mov	r3, r0
  4007b2:	737b      	strb	r3, [r7, #13]
			temp |= pixelmask;
  4007b4:	7b7a      	ldrb	r2, [r7, #13]
  4007b6:	7bbb      	ldrb	r3, [r7, #14]
  4007b8:	4313      	orrs	r3, r2
  4007ba:	737b      	strb	r3, [r7, #13]
			gfx_mono_put_byte(page, x + length, temp);
  4007bc:	79fa      	ldrb	r2, [r7, #7]
  4007be:	797b      	ldrb	r3, [r7, #5]
  4007c0:	4413      	add	r3, r2
  4007c2:	b2d9      	uxtb	r1, r3
  4007c4:	7b7a      	ldrb	r2, [r7, #13]
  4007c6:	7bf8      	ldrb	r0, [r7, #15]
  4007c8:	2300      	movs	r3, #0
  4007ca:	4c27      	ldr	r4, [pc, #156]	; (400868 <gfx_mono_generic_draw_horizontal_line+0x12c>)
  4007cc:	47a0      	blx	r4
		while (length-- > 0) {
  4007ce:	797b      	ldrb	r3, [r7, #5]
  4007d0:	1e5a      	subs	r2, r3, #1
  4007d2:	717a      	strb	r2, [r7, #5]
  4007d4:	2b00      	cmp	r3, #0
  4007d6:	d1e2      	bne.n	40079e <gfx_mono_generic_draw_horizontal_line+0x62>
		break;
  4007d8:	e041      	b.n	40085e <gfx_mono_generic_draw_horizontal_line+0x122>
			temp = gfx_mono_get_byte(page, x + length);
  4007da:	79fa      	ldrb	r2, [r7, #7]
  4007dc:	797b      	ldrb	r3, [r7, #5]
  4007de:	4413      	add	r3, r2
  4007e0:	b2da      	uxtb	r2, r3
  4007e2:	7bfb      	ldrb	r3, [r7, #15]
  4007e4:	4611      	mov	r1, r2
  4007e6:	4618      	mov	r0, r3
  4007e8:	4b1e      	ldr	r3, [pc, #120]	; (400864 <gfx_mono_generic_draw_horizontal_line+0x128>)
  4007ea:	4798      	blx	r3
  4007ec:	4603      	mov	r3, r0
  4007ee:	737b      	strb	r3, [r7, #13]
			temp &= ~pixelmask;
  4007f0:	f997 300e 	ldrsb.w	r3, [r7, #14]
  4007f4:	43db      	mvns	r3, r3
  4007f6:	b25a      	sxtb	r2, r3
  4007f8:	f997 300d 	ldrsb.w	r3, [r7, #13]
  4007fc:	4013      	ands	r3, r2
  4007fe:	b25b      	sxtb	r3, r3
  400800:	737b      	strb	r3, [r7, #13]
			gfx_mono_put_byte(page, x + length, temp);
  400802:	79fa      	ldrb	r2, [r7, #7]
  400804:	797b      	ldrb	r3, [r7, #5]
  400806:	4413      	add	r3, r2
  400808:	b2d9      	uxtb	r1, r3
  40080a:	7b7a      	ldrb	r2, [r7, #13]
  40080c:	7bf8      	ldrb	r0, [r7, #15]
  40080e:	2300      	movs	r3, #0
  400810:	4c15      	ldr	r4, [pc, #84]	; (400868 <gfx_mono_generic_draw_horizontal_line+0x12c>)
  400812:	47a0      	blx	r4
		while (length-- > 0) {
  400814:	797b      	ldrb	r3, [r7, #5]
  400816:	1e5a      	subs	r2, r3, #1
  400818:	717a      	strb	r2, [r7, #5]
  40081a:	2b00      	cmp	r3, #0
  40081c:	d1dd      	bne.n	4007da <gfx_mono_generic_draw_horizontal_line+0x9e>
		break;
  40081e:	e01e      	b.n	40085e <gfx_mono_generic_draw_horizontal_line+0x122>
			temp = gfx_mono_get_byte(page, x + length);
  400820:	79fa      	ldrb	r2, [r7, #7]
  400822:	797b      	ldrb	r3, [r7, #5]
  400824:	4413      	add	r3, r2
  400826:	b2da      	uxtb	r2, r3
  400828:	7bfb      	ldrb	r3, [r7, #15]
  40082a:	4611      	mov	r1, r2
  40082c:	4618      	mov	r0, r3
  40082e:	4b0d      	ldr	r3, [pc, #52]	; (400864 <gfx_mono_generic_draw_horizontal_line+0x128>)
  400830:	4798      	blx	r3
  400832:	4603      	mov	r3, r0
  400834:	737b      	strb	r3, [r7, #13]
			temp ^= pixelmask;
  400836:	7b7a      	ldrb	r2, [r7, #13]
  400838:	7bbb      	ldrb	r3, [r7, #14]
  40083a:	4053      	eors	r3, r2
  40083c:	737b      	strb	r3, [r7, #13]
			gfx_mono_put_byte(page, x + length, temp);
  40083e:	79fa      	ldrb	r2, [r7, #7]
  400840:	797b      	ldrb	r3, [r7, #5]
  400842:	4413      	add	r3, r2
  400844:	b2d9      	uxtb	r1, r3
  400846:	7b7a      	ldrb	r2, [r7, #13]
  400848:	7bf8      	ldrb	r0, [r7, #15]
  40084a:	2300      	movs	r3, #0
  40084c:	4c06      	ldr	r4, [pc, #24]	; (400868 <gfx_mono_generic_draw_horizontal_line+0x12c>)
  40084e:	47a0      	blx	r4
		while (length-- > 0) {
  400850:	797b      	ldrb	r3, [r7, #5]
  400852:	1e5a      	subs	r2, r3, #1
  400854:	717a      	strb	r2, [r7, #5]
  400856:	2b00      	cmp	r3, #0
  400858:	d1e2      	bne.n	400820 <gfx_mono_generic_draw_horizontal_line+0xe4>
		break;
  40085a:	e000      	b.n	40085e <gfx_mono_generic_draw_horizontal_line+0x122>
		return;
  40085c:	bf00      	nop
	}
}
  40085e:	3714      	adds	r7, #20
  400860:	46bd      	mov	sp, r7
  400862:	bd90      	pop	{r4, r7, pc}
  400864:	00400c79 	.word	0x00400c79
  400868:	00400bf5 	.word	0x00400bf5

0040086c <gfx_mono_generic_draw_filled_rect>:
 * \param[in]  color       Pixel operation of the line
 */
void gfx_mono_generic_draw_filled_rect(gfx_coord_t x, gfx_coord_t y,
		gfx_coord_t width, gfx_coord_t height,
		enum gfx_mono_color color)
{
  40086c:	b590      	push	{r4, r7, lr}
  40086e:	b083      	sub	sp, #12
  400870:	af00      	add	r7, sp, #0
  400872:	4604      	mov	r4, r0
  400874:	4608      	mov	r0, r1
  400876:	4611      	mov	r1, r2
  400878:	461a      	mov	r2, r3
  40087a:	4623      	mov	r3, r4
  40087c:	71fb      	strb	r3, [r7, #7]
  40087e:	4603      	mov	r3, r0
  400880:	71bb      	strb	r3, [r7, #6]
  400882:	460b      	mov	r3, r1
  400884:	717b      	strb	r3, [r7, #5]
  400886:	4613      	mov	r3, r2
  400888:	713b      	strb	r3, [r7, #4]
	if (height == 0) {
  40088a:	793b      	ldrb	r3, [r7, #4]
  40088c:	2b00      	cmp	r3, #0
  40088e:	d00f      	beq.n	4008b0 <gfx_mono_generic_draw_filled_rect+0x44>
		/* Nothing to do. Move along. */
		return;
	}

	while (height-- > 0) {
  400890:	e008      	b.n	4008a4 <gfx_mono_generic_draw_filled_rect+0x38>
		gfx_mono_draw_horizontal_line(x, y + height, width, color);
  400892:	79ba      	ldrb	r2, [r7, #6]
  400894:	793b      	ldrb	r3, [r7, #4]
  400896:	4413      	add	r3, r2
  400898:	b2d9      	uxtb	r1, r3
  40089a:	7e3b      	ldrb	r3, [r7, #24]
  40089c:	797a      	ldrb	r2, [r7, #5]
  40089e:	79f8      	ldrb	r0, [r7, #7]
  4008a0:	4c05      	ldr	r4, [pc, #20]	; (4008b8 <gfx_mono_generic_draw_filled_rect+0x4c>)
  4008a2:	47a0      	blx	r4
	while (height-- > 0) {
  4008a4:	793b      	ldrb	r3, [r7, #4]
  4008a6:	1e5a      	subs	r2, r3, #1
  4008a8:	713a      	strb	r2, [r7, #4]
  4008aa:	2b00      	cmp	r3, #0
  4008ac:	d1f1      	bne.n	400892 <gfx_mono_generic_draw_filled_rect+0x26>
  4008ae:	e000      	b.n	4008b2 <gfx_mono_generic_draw_filled_rect+0x46>
		return;
  4008b0:	bf00      	nop
	}
}
  4008b2:	370c      	adds	r7, #12
  4008b4:	46bd      	mov	sp, r7
  4008b6:	bd90      	pop	{r4, r7, pc}
  4008b8:	0040073d 	.word	0x0040073d

004008bc <gfx_mono_draw_char_progmem>:
 * \param[in] y        Y coordinate on screen.
 * \param[in] font     Font to draw character in
 */
static void gfx_mono_draw_char_progmem(const char ch, const gfx_coord_t x,
		const gfx_coord_t y, const struct font *font)
{
  4008bc:	b580      	push	{r7, lr}
  4008be:	b086      	sub	sp, #24
  4008c0:	af00      	add	r7, sp, #0
  4008c2:	603b      	str	r3, [r7, #0]
  4008c4:	4603      	mov	r3, r0
  4008c6:	71fb      	strb	r3, [r7, #7]
  4008c8:	460b      	mov	r3, r1
  4008ca:	71bb      	strb	r3, [r7, #6]
  4008cc:	4613      	mov	r3, r2
  4008ce:	717b      	strb	r3, [r7, #5]
	uint8_t i;

	/* Sanity check on parameters, assert if font is NULL. */
	Assert(font != NULL);

	gfx_coord_t inc_x = x;
  4008d0:	79bb      	ldrb	r3, [r7, #6]
  4008d2:	743b      	strb	r3, [r7, #16]
	gfx_coord_t inc_y = y;
  4008d4:	797b      	ldrb	r3, [r7, #5]
  4008d6:	73fb      	strb	r3, [r7, #15]

	char_row_size = font->width / CONFIG_FONT_PIXELS_PER_BYTE;
  4008d8:	683b      	ldr	r3, [r7, #0]
  4008da:	7a1b      	ldrb	r3, [r3, #8]
  4008dc:	08db      	lsrs	r3, r3, #3
  4008de:	74fb      	strb	r3, [r7, #19]
	if (font->width % CONFIG_FONT_PIXELS_PER_BYTE) {
  4008e0:	683b      	ldr	r3, [r7, #0]
  4008e2:	7a1b      	ldrb	r3, [r3, #8]
  4008e4:	f003 0307 	and.w	r3, r3, #7
  4008e8:	b2db      	uxtb	r3, r3
  4008ea:	2b00      	cmp	r3, #0
  4008ec:	d002      	beq.n	4008f4 <gfx_mono_draw_char_progmem+0x38>
		char_row_size++;
  4008ee:	7cfb      	ldrb	r3, [r7, #19]
  4008f0:	3301      	adds	r3, #1
  4008f2:	74fb      	strb	r3, [r7, #19]
	}

	glyph_data_offset = char_row_size * font->height *
  4008f4:	7cfb      	ldrb	r3, [r7, #19]
  4008f6:	b29a      	uxth	r2, r3
  4008f8:	683b      	ldr	r3, [r7, #0]
  4008fa:	7a5b      	ldrb	r3, [r3, #9]
  4008fc:	b29b      	uxth	r3, r3
  4008fe:	fb12 f303 	smulbb	r3, r2, r3
  400902:	b29a      	uxth	r2, r3
			((uint8_t)ch - font->first_char);
  400904:	79fb      	ldrb	r3, [r7, #7]
  400906:	6839      	ldr	r1, [r7, #0]
  400908:	7a89      	ldrb	r1, [r1, #10]
  40090a:	1a5b      	subs	r3, r3, r1
	glyph_data_offset = char_row_size * font->height *
  40090c:	b29b      	uxth	r3, r3
  40090e:	fb12 f303 	smulbb	r3, r2, r3
  400912:	81bb      	strh	r3, [r7, #12]
	glyph_data = font->data.progmem + glyph_data_offset;
  400914:	683b      	ldr	r3, [r7, #0]
  400916:	685a      	ldr	r2, [r3, #4]
  400918:	89bb      	ldrh	r3, [r7, #12]
  40091a:	4413      	add	r3, r2
  40091c:	617b      	str	r3, [r7, #20]
	rows_left = font->height;
  40091e:	683b      	ldr	r3, [r7, #0]
  400920:	7a5b      	ldrb	r3, [r3, #9]
  400922:	74bb      	strb	r3, [r7, #18]

	do {
		uint8_t glyph_byte = 0;
  400924:	2300      	movs	r3, #0
  400926:	73bb      	strb	r3, [r7, #14]
		uint8_t pixelsToDraw = font->width;
  400928:	683b      	ldr	r3, [r7, #0]
  40092a:	7a1b      	ldrb	r3, [r3, #8]
  40092c:	72fb      	strb	r3, [r7, #11]

		for (i = 0; i < pixelsToDraw; i++) {
  40092e:	2300      	movs	r3, #0
  400930:	747b      	strb	r3, [r7, #17]
  400932:	e01e      	b.n	400972 <gfx_mono_draw_char_progmem+0xb6>
			if (i % CONFIG_FONT_PIXELS_PER_BYTE == 0) {
  400934:	7c7b      	ldrb	r3, [r7, #17]
  400936:	f003 0307 	and.w	r3, r3, #7
  40093a:	b2db      	uxtb	r3, r3
  40093c:	2b00      	cmp	r3, #0
  40093e:	d105      	bne.n	40094c <gfx_mono_draw_char_progmem+0x90>
				glyph_byte = PROGMEM_READ_BYTE(glyph_data);
  400940:	697b      	ldr	r3, [r7, #20]
  400942:	781b      	ldrb	r3, [r3, #0]
  400944:	73bb      	strb	r3, [r7, #14]
				glyph_data++;
  400946:	697b      	ldr	r3, [r7, #20]
  400948:	3301      	adds	r3, #1
  40094a:	617b      	str	r3, [r7, #20]
			}

			if ((glyph_byte & 0x80)) {
  40094c:	f997 300e 	ldrsb.w	r3, [r7, #14]
  400950:	2b00      	cmp	r3, #0
  400952:	da05      	bge.n	400960 <gfx_mono_draw_char_progmem+0xa4>
				gfx_mono_draw_pixel(inc_x, inc_y,
  400954:	7bf9      	ldrb	r1, [r7, #15]
  400956:	7c3b      	ldrb	r3, [r7, #16]
  400958:	2201      	movs	r2, #1
  40095a:	4618      	mov	r0, r3
  40095c:	4b0e      	ldr	r3, [pc, #56]	; (400998 <gfx_mono_draw_char_progmem+0xdc>)
  40095e:	4798      	blx	r3
						GFX_PIXEL_SET);
			}

			inc_x += 1;
  400960:	7c3b      	ldrb	r3, [r7, #16]
  400962:	3301      	adds	r3, #1
  400964:	743b      	strb	r3, [r7, #16]
			glyph_byte <<= 1;
  400966:	7bbb      	ldrb	r3, [r7, #14]
  400968:	005b      	lsls	r3, r3, #1
  40096a:	73bb      	strb	r3, [r7, #14]
		for (i = 0; i < pixelsToDraw; i++) {
  40096c:	7c7b      	ldrb	r3, [r7, #17]
  40096e:	3301      	adds	r3, #1
  400970:	747b      	strb	r3, [r7, #17]
  400972:	7c7a      	ldrb	r2, [r7, #17]
  400974:	7afb      	ldrb	r3, [r7, #11]
  400976:	429a      	cmp	r2, r3
  400978:	d3dc      	bcc.n	400934 <gfx_mono_draw_char_progmem+0x78>
		}

		inc_y += 1;
  40097a:	7bfb      	ldrb	r3, [r7, #15]
  40097c:	3301      	adds	r3, #1
  40097e:	73fb      	strb	r3, [r7, #15]
		inc_x = x;
  400980:	79bb      	ldrb	r3, [r7, #6]
  400982:	743b      	strb	r3, [r7, #16]
		rows_left--;
  400984:	7cbb      	ldrb	r3, [r7, #18]
  400986:	3b01      	subs	r3, #1
  400988:	74bb      	strb	r3, [r7, #18]
	} while (rows_left > 0);
  40098a:	7cbb      	ldrb	r3, [r7, #18]
  40098c:	2b00      	cmp	r3, #0
  40098e:	d1c9      	bne.n	400924 <gfx_mono_draw_char_progmem+0x68>
}
  400990:	bf00      	nop
  400992:	3718      	adds	r7, #24
  400994:	46bd      	mov	sp, r7
  400996:	bd80      	pop	{r7, pc}
  400998:	00400b59 	.word	0x00400b59

0040099c <gfx_mono_draw_char>:
 * \param[in] y        Y coordinate on screen.
 * \param[in] font     Font to draw character in
 */
void gfx_mono_draw_char(const char c, const gfx_coord_t x, const gfx_coord_t y,
		const struct font *font)
{
  40099c:	b590      	push	{r4, r7, lr}
  40099e:	b085      	sub	sp, #20
  4009a0:	af02      	add	r7, sp, #8
  4009a2:	603b      	str	r3, [r7, #0]
  4009a4:	4603      	mov	r3, r0
  4009a6:	71fb      	strb	r3, [r7, #7]
  4009a8:	460b      	mov	r3, r1
  4009aa:	71bb      	strb	r3, [r7, #6]
  4009ac:	4613      	mov	r3, r2
  4009ae:	717b      	strb	r3, [r7, #5]
	gfx_mono_draw_filled_rect(x, y, font->width, font->height,
  4009b0:	683b      	ldr	r3, [r7, #0]
  4009b2:	7a1a      	ldrb	r2, [r3, #8]
  4009b4:	683b      	ldr	r3, [r7, #0]
  4009b6:	7a5c      	ldrb	r4, [r3, #9]
  4009b8:	7979      	ldrb	r1, [r7, #5]
  4009ba:	79b8      	ldrb	r0, [r7, #6]
  4009bc:	2300      	movs	r3, #0
  4009be:	9300      	str	r3, [sp, #0]
  4009c0:	4623      	mov	r3, r4
  4009c2:	4c09      	ldr	r4, [pc, #36]	; (4009e8 <gfx_mono_draw_char+0x4c>)
  4009c4:	47a0      	blx	r4
			GFX_PIXEL_CLR);

	switch (font->type) {
  4009c6:	683b      	ldr	r3, [r7, #0]
  4009c8:	781b      	ldrb	r3, [r3, #0]
  4009ca:	2b00      	cmp	r3, #0
  4009cc:	d000      	beq.n	4009d0 <gfx_mono_draw_char+0x34>

#endif
	default:
		/* Unsupported mode, call assert */
		Assert(false);
		break;
  4009ce:	e006      	b.n	4009de <gfx_mono_draw_char+0x42>
		gfx_mono_draw_char_progmem(c, x, y, font);
  4009d0:	797a      	ldrb	r2, [r7, #5]
  4009d2:	79b9      	ldrb	r1, [r7, #6]
  4009d4:	79f8      	ldrb	r0, [r7, #7]
  4009d6:	683b      	ldr	r3, [r7, #0]
  4009d8:	4c04      	ldr	r4, [pc, #16]	; (4009ec <gfx_mono_draw_char+0x50>)
  4009da:	47a0      	blx	r4
		break;
  4009dc:	bf00      	nop
	}
}
  4009de:	bf00      	nop
  4009e0:	370c      	adds	r7, #12
  4009e2:	46bd      	mov	sp, r7
  4009e4:	bd90      	pop	{r4, r7, pc}
  4009e6:	bf00      	nop
  4009e8:	0040086d 	.word	0x0040086d
  4009ec:	004008bd 	.word	0x004008bd

004009f0 <gfx_mono_draw_string>:
 * \param[in] y         Y coordinate on screen.
 * \param[in] font      Font to draw string in
 */
void gfx_mono_draw_string(const char *str, gfx_coord_t x, gfx_coord_t y,
		const struct font *font)
{
  4009f0:	b590      	push	{r4, r7, lr}
  4009f2:	b087      	sub	sp, #28
  4009f4:	af00      	add	r7, sp, #0
  4009f6:	60f8      	str	r0, [r7, #12]
  4009f8:	607b      	str	r3, [r7, #4]
  4009fa:	460b      	mov	r3, r1
  4009fc:	72fb      	strb	r3, [r7, #11]
  4009fe:	4613      	mov	r3, r2
  400a00:	72bb      	strb	r3, [r7, #10]
	/* Save X in order to know where to return to on CR. */
	const gfx_coord_t start_of_string_position_x = x;
  400a02:	7afb      	ldrb	r3, [r7, #11]
  400a04:	75fb      	strb	r3, [r7, #23]
	Assert(font != NULL);

	/* Draw characters until trailing null byte */
	do {
		/* Handle '\n' as newline, draw normal characters. */
		if (*str == '\n') {
  400a06:	68fb      	ldr	r3, [r7, #12]
  400a08:	781b      	ldrb	r3, [r3, #0]
  400a0a:	2b0a      	cmp	r3, #10
  400a0c:	d109      	bne.n	400a22 <gfx_mono_draw_string+0x32>
			x = start_of_string_position_x;
  400a0e:	7dfb      	ldrb	r3, [r7, #23]
  400a10:	72fb      	strb	r3, [r7, #11]
			y += font->height + 1;
  400a12:	687b      	ldr	r3, [r7, #4]
  400a14:	7a5a      	ldrb	r2, [r3, #9]
  400a16:	7abb      	ldrb	r3, [r7, #10]
  400a18:	4413      	add	r3, r2
  400a1a:	b2db      	uxtb	r3, r3
  400a1c:	3301      	adds	r3, #1
  400a1e:	72bb      	strb	r3, [r7, #10]
  400a20:	e00f      	b.n	400a42 <gfx_mono_draw_string+0x52>
		} else if (*str == '\r') {
  400a22:	68fb      	ldr	r3, [r7, #12]
  400a24:	781b      	ldrb	r3, [r3, #0]
  400a26:	2b0d      	cmp	r3, #13
  400a28:	d00b      	beq.n	400a42 <gfx_mono_draw_string+0x52>
			/* Skip '\r' characters. */
		} else {
			gfx_mono_draw_char(*str, x, y, font);
  400a2a:	68fb      	ldr	r3, [r7, #12]
  400a2c:	7818      	ldrb	r0, [r3, #0]
  400a2e:	7aba      	ldrb	r2, [r7, #10]
  400a30:	7af9      	ldrb	r1, [r7, #11]
  400a32:	687b      	ldr	r3, [r7, #4]
  400a34:	4c08      	ldr	r4, [pc, #32]	; (400a58 <gfx_mono_draw_string+0x68>)
  400a36:	47a0      	blx	r4
			x += font->width;
  400a38:	687b      	ldr	r3, [r7, #4]
  400a3a:	7a1a      	ldrb	r2, [r3, #8]
  400a3c:	7afb      	ldrb	r3, [r7, #11]
  400a3e:	4413      	add	r3, r2
  400a40:	72fb      	strb	r3, [r7, #11]
		}
	} while (*(++str));
  400a42:	68fb      	ldr	r3, [r7, #12]
  400a44:	3301      	adds	r3, #1
  400a46:	60fb      	str	r3, [r7, #12]
  400a48:	68fb      	ldr	r3, [r7, #12]
  400a4a:	781b      	ldrb	r3, [r3, #0]
  400a4c:	2b00      	cmp	r3, #0
  400a4e:	d1da      	bne.n	400a06 <gfx_mono_draw_string+0x16>
}
  400a50:	bf00      	nop
  400a52:	371c      	adds	r7, #28
  400a54:	46bd      	mov	sp, r7
  400a56:	bd90      	pop	{r4, r7, pc}
  400a58:	0040099d 	.word	0x0040099d

00400a5c <ssd1306_set_page_address>:
 * RAM.
 *
 * \param address the page address
 */
static inline void ssd1306_set_page_address(uint8_t address)
{
  400a5c:	b580      	push	{r7, lr}
  400a5e:	b082      	sub	sp, #8
  400a60:	af00      	add	r7, sp, #0
  400a62:	4603      	mov	r3, r0
  400a64:	71fb      	strb	r3, [r7, #7]
	// Make sure that the address is 4 bits (only 8 pages)
	address &= 0x0F;
  400a66:	79fb      	ldrb	r3, [r7, #7]
  400a68:	f003 030f 	and.w	r3, r3, #15
  400a6c:	71fb      	strb	r3, [r7, #7]
	ssd1306_write_command(SSD1306_CMD_SET_PAGE_START_ADDRESS(address));
  400a6e:	79fb      	ldrb	r3, [r7, #7]
  400a70:	f063 034f 	orn	r3, r3, #79	; 0x4f
  400a74:	b2db      	uxtb	r3, r3
  400a76:	4618      	mov	r0, r3
  400a78:	4b02      	ldr	r3, [pc, #8]	; (400a84 <ssd1306_set_page_address+0x28>)
  400a7a:	4798      	blx	r3
	
}
  400a7c:	bf00      	nop
  400a7e:	3708      	adds	r7, #8
  400a80:	46bd      	mov	sp, r7
  400a82:	bd80      	pop	{r7, pc}
  400a84:	00401361 	.word	0x00401361

00400a88 <ssd1306_set_column_address>:
 * \brief Set current column in display RAM
 *
 * \param address the column address
 */
static inline void ssd1306_set_column_address(uint8_t address)
{
  400a88:	b580      	push	{r7, lr}
  400a8a:	b082      	sub	sp, #8
  400a8c:	af00      	add	r7, sp, #0
  400a8e:	4603      	mov	r3, r0
  400a90:	71fb      	strb	r3, [r7, #7]
	// Make sure the address is 7 bits
	address &= 0x7F;
  400a92:	79fb      	ldrb	r3, [r7, #7]
  400a94:	f003 037f 	and.w	r3, r3, #127	; 0x7f
  400a98:	71fb      	strb	r3, [r7, #7]
	ssd1306_write_command(SSD1306_CMD_COL_ADD_SET_MSB(address >> 4));
  400a9a:	79fb      	ldrb	r3, [r7, #7]
  400a9c:	091b      	lsrs	r3, r3, #4
  400a9e:	b2db      	uxtb	r3, r3
  400aa0:	f043 0310 	orr.w	r3, r3, #16
  400aa4:	b2db      	uxtb	r3, r3
  400aa6:	4618      	mov	r0, r3
  400aa8:	4b06      	ldr	r3, [pc, #24]	; (400ac4 <ssd1306_set_column_address+0x3c>)
  400aaa:	4798      	blx	r3
	ssd1306_write_command(SSD1306_CMD_COL_ADD_SET_LSB(address & 0x0F));
  400aac:	79fb      	ldrb	r3, [r7, #7]
  400aae:	f003 030f 	and.w	r3, r3, #15
  400ab2:	b2db      	uxtb	r3, r3
  400ab4:	4618      	mov	r0, r3
  400ab6:	4b03      	ldr	r3, [pc, #12]	; (400ac4 <ssd1306_set_column_address+0x3c>)
  400ab8:	4798      	blx	r3
}
  400aba:	bf00      	nop
  400abc:	3708      	adds	r7, #8
  400abe:	46bd      	mov	sp, r7
  400ac0:	bd80      	pop	{r7, pc}
  400ac2:	bf00      	nop
  400ac4:	00401361 	.word	0x00401361

00400ac8 <ssd1306_set_display_start_line_address>:
 * \brief Set the display start draw line address
 *
 * This function will set which line should be the start draw line for the OLED.
 */
static inline void ssd1306_set_display_start_line_address(uint8_t address)
{
  400ac8:	b580      	push	{r7, lr}
  400aca:	b082      	sub	sp, #8
  400acc:	af00      	add	r7, sp, #0
  400ace:	4603      	mov	r3, r0
  400ad0:	71fb      	strb	r3, [r7, #7]
	// Make sure address is 6 bits
	address &= 0x3F;
  400ad2:	79fb      	ldrb	r3, [r7, #7]
  400ad4:	f003 033f 	and.w	r3, r3, #63	; 0x3f
  400ad8:	71fb      	strb	r3, [r7, #7]
	ssd1306_write_command(SSD1306_CMD_SET_DISPLAY_START_LINE(address));
  400ada:	79fb      	ldrb	r3, [r7, #7]
  400adc:	f043 0340 	orr.w	r3, r3, #64	; 0x40
  400ae0:	b2db      	uxtb	r3, r3
  400ae2:	4618      	mov	r0, r3
  400ae4:	4b02      	ldr	r3, [pc, #8]	; (400af0 <ssd1306_set_display_start_line_address+0x28>)
  400ae6:	4798      	blx	r3
}
  400ae8:	bf00      	nop
  400aea:	3708      	adds	r7, #8
  400aec:	46bd      	mov	sp, r7
  400aee:	bd80      	pop	{r7, pc}
  400af0:	00401361 	.word	0x00401361

00400af4 <gfx_mono_ssd1306_init>:
 * It will also write the graphic controller RAM to all zeroes.
 *
 * \note This function will clear the contents of the display.
 */
void gfx_mono_ssd1306_init(void)
{
  400af4:	b590      	push	{r4, r7, lr}
  400af6:	b083      	sub	sp, #12
  400af8:	af00      	add	r7, sp, #0
	uint8_t page;
	uint8_t column;

#ifdef CONFIG_SSD1306_FRAMEBUFFER
	gfx_mono_set_framebuffer(framebuffer);
  400afa:	4812      	ldr	r0, [pc, #72]	; (400b44 <gfx_mono_ssd1306_init+0x50>)
  400afc:	4b12      	ldr	r3, [pc, #72]	; (400b48 <gfx_mono_ssd1306_init+0x54>)
  400afe:	4798      	blx	r3
#endif

	/* Initialize the low-level display controller. */
	ssd1306_init();
  400b00:	4b12      	ldr	r3, [pc, #72]	; (400b4c <gfx_mono_ssd1306_init+0x58>)
  400b02:	4798      	blx	r3

	/* Set display to output data from line 0 */
	ssd1306_set_display_start_line_address(0);
  400b04:	2000      	movs	r0, #0
  400b06:	4b12      	ldr	r3, [pc, #72]	; (400b50 <gfx_mono_ssd1306_init+0x5c>)
  400b08:	4798      	blx	r3

	/* Clear the contents of the display.
	 * If using a framebuffer (SPI interface) it will both clear the
	 * controller memory and the framebuffer.
	 */
	for (page = 0; page < GFX_MONO_LCD_PAGES; page++) {
  400b0a:	2300      	movs	r3, #0
  400b0c:	71fb      	strb	r3, [r7, #7]
  400b0e:	e012      	b.n	400b36 <gfx_mono_ssd1306_init+0x42>
		for (column = 0; column < GFX_MONO_LCD_WIDTH; column++) {
  400b10:	2300      	movs	r3, #0
  400b12:	71bb      	strb	r3, [r7, #6]
  400b14:	e008      	b.n	400b28 <gfx_mono_ssd1306_init+0x34>
			gfx_mono_ssd1306_put_byte(page, column, 0x00, true);
  400b16:	79b9      	ldrb	r1, [r7, #6]
  400b18:	79f8      	ldrb	r0, [r7, #7]
  400b1a:	2301      	movs	r3, #1
  400b1c:	2200      	movs	r2, #0
  400b1e:	4c0d      	ldr	r4, [pc, #52]	; (400b54 <gfx_mono_ssd1306_init+0x60>)
  400b20:	47a0      	blx	r4
		for (column = 0; column < GFX_MONO_LCD_WIDTH; column++) {
  400b22:	79bb      	ldrb	r3, [r7, #6]
  400b24:	3301      	adds	r3, #1
  400b26:	71bb      	strb	r3, [r7, #6]
  400b28:	f997 3006 	ldrsb.w	r3, [r7, #6]
  400b2c:	2b00      	cmp	r3, #0
  400b2e:	daf2      	bge.n	400b16 <gfx_mono_ssd1306_init+0x22>
	for (page = 0; page < GFX_MONO_LCD_PAGES; page++) {
  400b30:	79fb      	ldrb	r3, [r7, #7]
  400b32:	3301      	adds	r3, #1
  400b34:	71fb      	strb	r3, [r7, #7]
  400b36:	79fb      	ldrb	r3, [r7, #7]
  400b38:	2b03      	cmp	r3, #3
  400b3a:	d9e9      	bls.n	400b10 <gfx_mono_ssd1306_init+0x1c>
		}
	}
}
  400b3c:	bf00      	nop
  400b3e:	370c      	adds	r7, #12
  400b40:	46bd      	mov	sp, r7
  400b42:	bd90      	pop	{r4, r7, pc}
  400b44:	204009f4 	.word	0x204009f4
  400b48:	004006b1 	.word	0x004006b1
  400b4c:	004012b1 	.word	0x004012b1
  400b50:	00400ac9 	.word	0x00400ac9
  400b54:	00400bf5 	.word	0x00400bf5

00400b58 <gfx_mono_ssd1306_draw_pixel>:
	gfx_mono_ssd1306_draw_pixel(10, 10, GFX_PIXEL_XOR);
\endcode
 */
void gfx_mono_ssd1306_draw_pixel(gfx_coord_t x, gfx_coord_t y,
		gfx_coord_t color)
{
  400b58:	b590      	push	{r4, r7, lr}
  400b5a:	b085      	sub	sp, #20
  400b5c:	af00      	add	r7, sp, #0
  400b5e:	4603      	mov	r3, r0
  400b60:	71fb      	strb	r3, [r7, #7]
  400b62:	460b      	mov	r3, r1
  400b64:	71bb      	strb	r3, [r7, #6]
  400b66:	4613      	mov	r3, r2
  400b68:	717b      	strb	r3, [r7, #5]
	uint8_t page;
	uint8_t pixel_mask;
	uint8_t pixel_value;

	/* Discard pixels drawn outside the screen */
	if ((x > GFX_MONO_LCD_WIDTH - 1) || (y > GFX_MONO_LCD_HEIGHT - 1)) {
  400b6a:	f997 3007 	ldrsb.w	r3, [r7, #7]
  400b6e:	2b00      	cmp	r3, #0
  400b70:	db38      	blt.n	400be4 <gfx_mono_ssd1306_draw_pixel+0x8c>
  400b72:	79bb      	ldrb	r3, [r7, #6]
  400b74:	2b1f      	cmp	r3, #31
  400b76:	d835      	bhi.n	400be4 <gfx_mono_ssd1306_draw_pixel+0x8c>
		return;
	}

	page = y / GFX_MONO_LCD_PIXELS_PER_BYTE;
  400b78:	79bb      	ldrb	r3, [r7, #6]
  400b7a:	08db      	lsrs	r3, r3, #3
  400b7c:	73bb      	strb	r3, [r7, #14]
	pixel_mask = (1 << (y - (page * 8)));
  400b7e:	79ba      	ldrb	r2, [r7, #6]
  400b80:	7bbb      	ldrb	r3, [r7, #14]
  400b82:	00db      	lsls	r3, r3, #3
  400b84:	1ad3      	subs	r3, r2, r3
  400b86:	2201      	movs	r2, #1
  400b88:	fa02 f303 	lsl.w	r3, r2, r3
  400b8c:	737b      	strb	r3, [r7, #13]
	/*
	 * Read the page containing the pixel in interest, then perform the
	 * requested action on this pixel before writing the page back to the
	 * display.
	 */
	pixel_value = gfx_mono_get_byte(page, x);
  400b8e:	79fa      	ldrb	r2, [r7, #7]
  400b90:	7bbb      	ldrb	r3, [r7, #14]
  400b92:	4611      	mov	r1, r2
  400b94:	4618      	mov	r0, r3
  400b96:	4b15      	ldr	r3, [pc, #84]	; (400bec <gfx_mono_ssd1306_draw_pixel+0x94>)
  400b98:	4798      	blx	r3
  400b9a:	4603      	mov	r3, r0
  400b9c:	73fb      	strb	r3, [r7, #15]

	switch (color) {
  400b9e:	797b      	ldrb	r3, [r7, #5]
  400ba0:	2b01      	cmp	r3, #1
  400ba2:	d004      	beq.n	400bae <gfx_mono_ssd1306_draw_pixel+0x56>
  400ba4:	2b02      	cmp	r3, #2
  400ba6:	d011      	beq.n	400bcc <gfx_mono_ssd1306_draw_pixel+0x74>
  400ba8:	2b00      	cmp	r3, #0
  400baa:	d005      	beq.n	400bb8 <gfx_mono_ssd1306_draw_pixel+0x60>
	case GFX_PIXEL_XOR:
		pixel_value ^= pixel_mask;
		break;

	default:
		break;
  400bac:	e013      	b.n	400bd6 <gfx_mono_ssd1306_draw_pixel+0x7e>
		pixel_value |= pixel_mask;
  400bae:	7bfa      	ldrb	r2, [r7, #15]
  400bb0:	7b7b      	ldrb	r3, [r7, #13]
  400bb2:	4313      	orrs	r3, r2
  400bb4:	73fb      	strb	r3, [r7, #15]
		break;
  400bb6:	e00e      	b.n	400bd6 <gfx_mono_ssd1306_draw_pixel+0x7e>
		pixel_value &= ~pixel_mask;
  400bb8:	f997 300d 	ldrsb.w	r3, [r7, #13]
  400bbc:	43db      	mvns	r3, r3
  400bbe:	b25a      	sxtb	r2, r3
  400bc0:	f997 300f 	ldrsb.w	r3, [r7, #15]
  400bc4:	4013      	ands	r3, r2
  400bc6:	b25b      	sxtb	r3, r3
  400bc8:	73fb      	strb	r3, [r7, #15]
		break;
  400bca:	e004      	b.n	400bd6 <gfx_mono_ssd1306_draw_pixel+0x7e>
		pixel_value ^= pixel_mask;
  400bcc:	7bfa      	ldrb	r2, [r7, #15]
  400bce:	7b7b      	ldrb	r3, [r7, #13]
  400bd0:	4053      	eors	r3, r2
  400bd2:	73fb      	strb	r3, [r7, #15]
		break;
  400bd4:	bf00      	nop
	}

	gfx_mono_put_byte(page, x, pixel_value);
  400bd6:	7bfa      	ldrb	r2, [r7, #15]
  400bd8:	79f9      	ldrb	r1, [r7, #7]
  400bda:	7bb8      	ldrb	r0, [r7, #14]
  400bdc:	2300      	movs	r3, #0
  400bde:	4c04      	ldr	r4, [pc, #16]	; (400bf0 <gfx_mono_ssd1306_draw_pixel+0x98>)
  400be0:	47a0      	blx	r4
  400be2:	e000      	b.n	400be6 <gfx_mono_ssd1306_draw_pixel+0x8e>
		return;
  400be4:	bf00      	nop
}
  400be6:	3714      	adds	r7, #20
  400be8:	46bd      	mov	sp, r7
  400bea:	bd90      	pop	{r4, r7, pc}
  400bec:	00400c79 	.word	0x00400c79
  400bf0:	00400bf5 	.word	0x00400bf5

00400bf4 <gfx_mono_ssd1306_put_byte>:
	gfx_mono_ssd1306_put_byte(0, 0, 0xFF, false);
\endcode
  */
 void gfx_mono_ssd1306_put_byte(gfx_coord_t page, gfx_coord_t column,
		uint8_t data, bool force)
{
  400bf4:	b590      	push	{r4, r7, lr}
  400bf6:	b083      	sub	sp, #12
  400bf8:	af00      	add	r7, sp, #0
  400bfa:	4604      	mov	r4, r0
  400bfc:	4608      	mov	r0, r1
  400bfe:	4611      	mov	r1, r2
  400c00:	461a      	mov	r2, r3
  400c02:	4623      	mov	r3, r4
  400c04:	71fb      	strb	r3, [r7, #7]
  400c06:	4603      	mov	r3, r0
  400c08:	71bb      	strb	r3, [r7, #6]
  400c0a:	460b      	mov	r3, r1
  400c0c:	717b      	strb	r3, [r7, #5]
  400c0e:	4613      	mov	r3, r2
  400c10:	713b      	strb	r3, [r7, #4]
#ifdef CONFIG_SSD1306_FRAMEBUFFER
	if (!force && data == gfx_mono_framebuffer_get_byte(page, column)) {
  400c12:	793b      	ldrb	r3, [r7, #4]
  400c14:	f083 0301 	eor.w	r3, r3, #1
  400c18:	b2db      	uxtb	r3, r3
  400c1a:	2b00      	cmp	r3, #0
  400c1c:	d00a      	beq.n	400c34 <gfx_mono_ssd1306_put_byte+0x40>
  400c1e:	79ba      	ldrb	r2, [r7, #6]
  400c20:	79fb      	ldrb	r3, [r7, #7]
  400c22:	4611      	mov	r1, r2
  400c24:	4618      	mov	r0, r3
  400c26:	4b0f      	ldr	r3, [pc, #60]	; (400c64 <gfx_mono_ssd1306_put_byte+0x70>)
  400c28:	4798      	blx	r3
  400c2a:	4603      	mov	r3, r0
  400c2c:	461a      	mov	r2, r3
  400c2e:	797b      	ldrb	r3, [r7, #5]
  400c30:	4293      	cmp	r3, r2
  400c32:	d012      	beq.n	400c5a <gfx_mono_ssd1306_put_byte+0x66>
		return;
	}
	gfx_mono_framebuffer_put_byte(page, column, data);
  400c34:	797a      	ldrb	r2, [r7, #5]
  400c36:	79b9      	ldrb	r1, [r7, #6]
  400c38:	79fb      	ldrb	r3, [r7, #7]
  400c3a:	4618      	mov	r0, r3
  400c3c:	4b0a      	ldr	r3, [pc, #40]	; (400c68 <gfx_mono_ssd1306_put_byte+0x74>)
  400c3e:	4798      	blx	r3
#endif

	ssd1306_set_page_address(page);
  400c40:	79fb      	ldrb	r3, [r7, #7]
  400c42:	4618      	mov	r0, r3
  400c44:	4b09      	ldr	r3, [pc, #36]	; (400c6c <gfx_mono_ssd1306_put_byte+0x78>)
  400c46:	4798      	blx	r3
	ssd1306_set_column_address(column);
  400c48:	79bb      	ldrb	r3, [r7, #6]
  400c4a:	4618      	mov	r0, r3
  400c4c:	4b08      	ldr	r3, [pc, #32]	; (400c70 <gfx_mono_ssd1306_put_byte+0x7c>)
  400c4e:	4798      	blx	r3

	ssd1306_write_data(data);
  400c50:	797b      	ldrb	r3, [r7, #5]
  400c52:	4618      	mov	r0, r3
  400c54:	4b07      	ldr	r3, [pc, #28]	; (400c74 <gfx_mono_ssd1306_put_byte+0x80>)
  400c56:	4798      	blx	r3
  400c58:	e000      	b.n	400c5c <gfx_mono_ssd1306_put_byte+0x68>
		return;
  400c5a:	bf00      	nop
}
  400c5c:	370c      	adds	r7, #12
  400c5e:	46bd      	mov	sp, r7
  400c60:	bd90      	pop	{r4, r7, pc}
  400c62:	bf00      	nop
  400c64:	00400709 	.word	0x00400709
  400c68:	004006d1 	.word	0x004006d1
  400c6c:	00400a5d 	.word	0x00400a5d
  400c70:	00400a89 	.word	0x00400a89
  400c74:	00401405 	.word	0x00401405

00400c78 <gfx_mono_ssd1306_get_byte>:
 * \code
	data = gfx_mono_ssd1306_get_byte(0, 0);
\endcode
 */
uint8_t gfx_mono_ssd1306_get_byte(gfx_coord_t page, gfx_coord_t column)
{
  400c78:	b580      	push	{r7, lr}
  400c7a:	b082      	sub	sp, #8
  400c7c:	af00      	add	r7, sp, #0
  400c7e:	4603      	mov	r3, r0
  400c80:	460a      	mov	r2, r1
  400c82:	71fb      	strb	r3, [r7, #7]
  400c84:	4613      	mov	r3, r2
  400c86:	71bb      	strb	r3, [r7, #6]
#ifdef CONFIG_SSD1306_FRAMEBUFFER
	return gfx_mono_framebuffer_get_byte(page, column);
  400c88:	79ba      	ldrb	r2, [r7, #6]
  400c8a:	79fb      	ldrb	r3, [r7, #7]
  400c8c:	4611      	mov	r1, r2
  400c8e:	4618      	mov	r0, r3
  400c90:	4b03      	ldr	r3, [pc, #12]	; (400ca0 <gfx_mono_ssd1306_get_byte+0x28>)
  400c92:	4798      	blx	r3
  400c94:	4603      	mov	r3, r0
	ssd1306_set_column_address(column);

	return ssd1306_read_data();

#endif
}
  400c96:	4618      	mov	r0, r3
  400c98:	3708      	adds	r7, #8
  400c9a:	46bd      	mov	sp, r7
  400c9c:	bd80      	pop	{r7, pc}
  400c9e:	bf00      	nop
  400ca0:	00400709 	.word	0x00400709

00400ca4 <osc_get_rate>:

	return 0;
}

static inline uint32_t osc_get_rate(uint32_t ul_id)
{
  400ca4:	b480      	push	{r7}
  400ca6:	b083      	sub	sp, #12
  400ca8:	af00      	add	r7, sp, #0
  400caa:	6078      	str	r0, [r7, #4]
	switch (ul_id) {
  400cac:	687b      	ldr	r3, [r7, #4]
  400cae:	2b07      	cmp	r3, #7
  400cb0:	d825      	bhi.n	400cfe <osc_get_rate+0x5a>
  400cb2:	a201      	add	r2, pc, #4	; (adr r2, 400cb8 <osc_get_rate+0x14>)
  400cb4:	f852 f023 	ldr.w	pc, [r2, r3, lsl #2]
  400cb8:	00400cd9 	.word	0x00400cd9
  400cbc:	00400cdf 	.word	0x00400cdf
  400cc0:	00400ce5 	.word	0x00400ce5
  400cc4:	00400ceb 	.word	0x00400ceb
  400cc8:	00400cef 	.word	0x00400cef
  400ccc:	00400cf3 	.word	0x00400cf3
  400cd0:	00400cf7 	.word	0x00400cf7
  400cd4:	00400cfb 	.word	0x00400cfb
	case OSC_SLCK_32K_RC:
		return OSC_SLCK_32K_RC_HZ;
  400cd8:	f44f 43fa 	mov.w	r3, #32000	; 0x7d00
  400cdc:	e010      	b.n	400d00 <osc_get_rate+0x5c>

	case OSC_SLCK_32K_XTAL:
		return BOARD_FREQ_SLCK_XTAL;
  400cde:	f44f 4300 	mov.w	r3, #32768	; 0x8000
  400ce2:	e00d      	b.n	400d00 <osc_get_rate+0x5c>

	case OSC_SLCK_32K_BYPASS:
		return BOARD_FREQ_SLCK_BYPASS;
  400ce4:	f44f 4300 	mov.w	r3, #32768	; 0x8000
  400ce8:	e00a      	b.n	400d00 <osc_get_rate+0x5c>

	case OSC_MAINCK_4M_RC:
		return OSC_MAINCK_4M_RC_HZ;
  400cea:	4b08      	ldr	r3, [pc, #32]	; (400d0c <osc_get_rate+0x68>)
  400cec:	e008      	b.n	400d00 <osc_get_rate+0x5c>

	case OSC_MAINCK_8M_RC:
		return OSC_MAINCK_8M_RC_HZ;
  400cee:	4b08      	ldr	r3, [pc, #32]	; (400d10 <osc_get_rate+0x6c>)
  400cf0:	e006      	b.n	400d00 <osc_get_rate+0x5c>

	case OSC_MAINCK_12M_RC:
		return OSC_MAINCK_12M_RC_HZ;
  400cf2:	4b08      	ldr	r3, [pc, #32]	; (400d14 <osc_get_rate+0x70>)
  400cf4:	e004      	b.n	400d00 <osc_get_rate+0x5c>

	case OSC_MAINCK_XTAL:
		return BOARD_FREQ_MAINCK_XTAL;
  400cf6:	4b07      	ldr	r3, [pc, #28]	; (400d14 <osc_get_rate+0x70>)
  400cf8:	e002      	b.n	400d00 <osc_get_rate+0x5c>

	case OSC_MAINCK_BYPASS:
		return BOARD_FREQ_MAINCK_BYPASS;
  400cfa:	4b06      	ldr	r3, [pc, #24]	; (400d14 <osc_get_rate+0x70>)
  400cfc:	e000      	b.n	400d00 <osc_get_rate+0x5c>
	}

	return 0;
  400cfe:	2300      	movs	r3, #0
}
  400d00:	4618      	mov	r0, r3
  400d02:	370c      	adds	r7, #12
  400d04:	46bd      	mov	sp, r7
  400d06:	f85d 7b04 	ldr.w	r7, [sp], #4
  400d0a:	4770      	bx	lr
  400d0c:	003d0900 	.word	0x003d0900
  400d10:	007a1200 	.word	0x007a1200
  400d14:	00b71b00 	.word	0x00b71b00

00400d18 <sysclk_get_main_hz>:
{
  400d18:	b580      	push	{r7, lr}
  400d1a:	af00      	add	r7, sp, #0
		return pll_get_default_rate(0);
  400d1c:	2006      	movs	r0, #6
  400d1e:	4b05      	ldr	r3, [pc, #20]	; (400d34 <sysclk_get_main_hz+0x1c>)
  400d20:	4798      	blx	r3
  400d22:	4602      	mov	r2, r0
  400d24:	4613      	mov	r3, r2
  400d26:	009b      	lsls	r3, r3, #2
  400d28:	4413      	add	r3, r2
  400d2a:	009a      	lsls	r2, r3, #2
  400d2c:	4413      	add	r3, r2
}
  400d2e:	4618      	mov	r0, r3
  400d30:	bd80      	pop	{r7, pc}
  400d32:	bf00      	nop
  400d34:	00400ca5 	.word	0x00400ca5

00400d38 <sysclk_get_cpu_hz>:
{
  400d38:	b580      	push	{r7, lr}
  400d3a:	af00      	add	r7, sp, #0
	return sysclk_get_main_hz() /
  400d3c:	4b02      	ldr	r3, [pc, #8]	; (400d48 <sysclk_get_cpu_hz+0x10>)
  400d3e:	4798      	blx	r3
  400d40:	4603      	mov	r3, r0
}
  400d42:	4618      	mov	r0, r3
  400d44:	bd80      	pop	{r7, pc}
  400d46:	bf00      	nop
  400d48:	00400d19 	.word	0x00400d19

00400d4c <sysclk_get_peripheral_hz>:
{
  400d4c:	b580      	push	{r7, lr}
  400d4e:	af00      	add	r7, sp, #0
	return sysclk_get_main_hz() /
  400d50:	4b02      	ldr	r3, [pc, #8]	; (400d5c <sysclk_get_peripheral_hz+0x10>)
  400d52:	4798      	blx	r3
  400d54:	4603      	mov	r3, r0
  400d56:	085b      	lsrs	r3, r3, #1
}
  400d58:	4618      	mov	r0, r3
  400d5a:	bd80      	pop	{r7, pc}
  400d5c:	00400d19 	.word	0x00400d19

00400d60 <ioport_enable_pin>:
 * IOPORT_CREATE_PIN().
 *
 * \param pin  IOPORT pin to enable
 */
static inline void ioport_enable_pin(ioport_pin_t pin)
{
  400d60:	b480      	push	{r7}
  400d62:	b089      	sub	sp, #36	; 0x24
  400d64:	af00      	add	r7, sp, #0
  400d66:	6078      	str	r0, [r7, #4]
  400d68:	687b      	ldr	r3, [r7, #4]
  400d6a:	61fb      	str	r3, [r7, #28]
  400d6c:	69fb      	ldr	r3, [r7, #28]
  400d6e:	61bb      	str	r3, [r7, #24]
typedef uint32_t ioport_port_t;
typedef uint32_t ioport_port_mask_t;

__always_inline static ioport_port_t arch_ioport_pin_to_port_id(ioport_pin_t pin)
{
	return pin >> 5;
  400d70:	69bb      	ldr	r3, [r7, #24]
  400d72:	095a      	lsrs	r2, r3, #5
  400d74:	69fb      	ldr	r3, [r7, #28]
  400d76:	617b      	str	r3, [r7, #20]
	return arch_ioport_port_to_base(arch_ioport_pin_to_port_id(pin));
}

__always_inline static ioport_port_mask_t arch_ioport_pin_to_mask(ioport_pin_t pin)
{
	return 1U << (pin & 0x1F);
  400d78:	697b      	ldr	r3, [r7, #20]
  400d7a:	f003 031f 	and.w	r3, r3, #31
  400d7e:	2101      	movs	r1, #1
  400d80:	fa01 f303 	lsl.w	r3, r1, r3
  400d84:	613a      	str	r2, [r7, #16]
  400d86:	60fb      	str	r3, [r7, #12]
  400d88:	693b      	ldr	r3, [r7, #16]
  400d8a:	60bb      	str	r3, [r7, #8]
	return (Pio *)((uintptr_t)IOPORT_BASE_ADDRESS +
  400d8c:	68ba      	ldr	r2, [r7, #8]
  400d8e:	4b06      	ldr	r3, [pc, #24]	; (400da8 <ioport_enable_pin+0x48>)
  400d90:	4413      	add	r3, r2
  400d92:	025b      	lsls	r3, r3, #9
  400d94:	461a      	mov	r2, r3
}

__always_inline static void arch_ioport_enable_port(ioport_port_t port,
		ioport_port_mask_t mask)
{
	arch_ioport_port_to_base(port)->PIO_PER = mask;
  400d96:	68fb      	ldr	r3, [r7, #12]
  400d98:	6013      	str	r3, [r2, #0]
	arch_ioport_enable_pin(pin);
}
  400d9a:	bf00      	nop
  400d9c:	3724      	adds	r7, #36	; 0x24
  400d9e:	46bd      	mov	sp, r7
  400da0:	f85d 7b04 	ldr.w	r7, [sp], #4
  400da4:	4770      	bx	lr
  400da6:	bf00      	nop
  400da8:	00200707 	.word	0x00200707

00400dac <ioport_set_pin_mode>:
 *
 * \param pin IOPORT pin to configure
 * \param mode Mode masks to configure for the specified pin (\ref ioport_modes)
 */
static inline void ioport_set_pin_mode(ioport_pin_t pin, ioport_mode_t mode)
{
  400dac:	b480      	push	{r7}
  400dae:	b08d      	sub	sp, #52	; 0x34
  400db0:	af00      	add	r7, sp, #0
  400db2:	6078      	str	r0, [r7, #4]
  400db4:	6039      	str	r1, [r7, #0]
  400db6:	687b      	ldr	r3, [r7, #4]
  400db8:	62fb      	str	r3, [r7, #44]	; 0x2c
  400dba:	683b      	ldr	r3, [r7, #0]
  400dbc:	62bb      	str	r3, [r7, #40]	; 0x28
  400dbe:	6afb      	ldr	r3, [r7, #44]	; 0x2c
  400dc0:	627b      	str	r3, [r7, #36]	; 0x24
	return pin >> 5;
  400dc2:	6a7b      	ldr	r3, [r7, #36]	; 0x24
  400dc4:	095a      	lsrs	r2, r3, #5
  400dc6:	6afb      	ldr	r3, [r7, #44]	; 0x2c
  400dc8:	623b      	str	r3, [r7, #32]
	return 1U << (pin & 0x1F);
  400dca:	6a3b      	ldr	r3, [r7, #32]
  400dcc:	f003 031f 	and.w	r3, r3, #31
  400dd0:	2101      	movs	r1, #1
  400dd2:	fa01 f303 	lsl.w	r3, r1, r3
  400dd6:	61fa      	str	r2, [r7, #28]
  400dd8:	61bb      	str	r3, [r7, #24]
  400dda:	6abb      	ldr	r3, [r7, #40]	; 0x28
  400ddc:	617b      	str	r3, [r7, #20]
  400dde:	69fb      	ldr	r3, [r7, #28]
  400de0:	613b      	str	r3, [r7, #16]
	return (Pio *)((uintptr_t)IOPORT_BASE_ADDRESS +
  400de2:	693a      	ldr	r2, [r7, #16]
  400de4:	4b37      	ldr	r3, [pc, #220]	; (400ec4 <ioport_set_pin_mode+0x118>)
  400de6:	4413      	add	r3, r2
  400de8:	025b      	lsls	r3, r3, #9
}

__always_inline static void arch_ioport_set_port_mode(ioport_port_t port,
		ioport_port_mask_t mask, ioport_mode_t mode)
{
	Pio *base = arch_ioport_port_to_base(port);
  400dea:	60fb      	str	r3, [r7, #12]

	if (mode & IOPORT_MODE_PULLUP) {
  400dec:	697b      	ldr	r3, [r7, #20]
  400dee:	f003 0308 	and.w	r3, r3, #8
  400df2:	2b00      	cmp	r3, #0
  400df4:	d003      	beq.n	400dfe <ioport_set_pin_mode+0x52>
		base->PIO_PUER = mask;
  400df6:	68fb      	ldr	r3, [r7, #12]
  400df8:	69ba      	ldr	r2, [r7, #24]
  400dfa:	665a      	str	r2, [r3, #100]	; 0x64
  400dfc:	e002      	b.n	400e04 <ioport_set_pin_mode+0x58>
	} else {
		base->PIO_PUDR = mask;
  400dfe:	68fb      	ldr	r3, [r7, #12]
  400e00:	69ba      	ldr	r2, [r7, #24]
  400e02:	661a      	str	r2, [r3, #96]	; 0x60
	}

#if defined(IOPORT_MODE_PULLDOWN)
	if (mode & IOPORT_MODE_PULLDOWN) {
  400e04:	697b      	ldr	r3, [r7, #20]
  400e06:	f003 0310 	and.w	r3, r3, #16
  400e0a:	2b00      	cmp	r3, #0
  400e0c:	d004      	beq.n	400e18 <ioport_set_pin_mode+0x6c>
		base->PIO_PPDER = mask;
  400e0e:	68fb      	ldr	r3, [r7, #12]
  400e10:	69ba      	ldr	r2, [r7, #24]
  400e12:	f8c3 2094 	str.w	r2, [r3, #148]	; 0x94
  400e16:	e003      	b.n	400e20 <ioport_set_pin_mode+0x74>
	} else {
		base->PIO_PPDDR = mask;
  400e18:	68fb      	ldr	r3, [r7, #12]
  400e1a:	69ba      	ldr	r2, [r7, #24]
  400e1c:	f8c3 2090 	str.w	r2, [r3, #144]	; 0x90
	}
#endif

	if (mode & IOPORT_MODE_OPEN_DRAIN) {
  400e20:	697b      	ldr	r3, [r7, #20]
  400e22:	f003 0320 	and.w	r3, r3, #32
  400e26:	2b00      	cmp	r3, #0
  400e28:	d003      	beq.n	400e32 <ioport_set_pin_mode+0x86>
		base->PIO_MDER = mask;
  400e2a:	68fb      	ldr	r3, [r7, #12]
  400e2c:	69ba      	ldr	r2, [r7, #24]
  400e2e:	651a      	str	r2, [r3, #80]	; 0x50
  400e30:	e002      	b.n	400e38 <ioport_set_pin_mode+0x8c>
	} else {
		base->PIO_MDDR = mask;
  400e32:	68fb      	ldr	r3, [r7, #12]
  400e34:	69ba      	ldr	r2, [r7, #24]
  400e36:	655a      	str	r2, [r3, #84]	; 0x54
	}

	if (mode & (IOPORT_MODE_GLITCH_FILTER | IOPORT_MODE_DEBOUNCE)) {
  400e38:	697b      	ldr	r3, [r7, #20]
  400e3a:	f003 03c0 	and.w	r3, r3, #192	; 0xc0
  400e3e:	2b00      	cmp	r3, #0
  400e40:	d003      	beq.n	400e4a <ioport_set_pin_mode+0x9e>
		base->PIO_IFER = mask;
  400e42:	68fb      	ldr	r3, [r7, #12]
  400e44:	69ba      	ldr	r2, [r7, #24]
  400e46:	621a      	str	r2, [r3, #32]
  400e48:	e002      	b.n	400e50 <ioport_set_pin_mode+0xa4>
	} else {
		base->PIO_IFDR = mask;
  400e4a:	68fb      	ldr	r3, [r7, #12]
  400e4c:	69ba      	ldr	r2, [r7, #24]
  400e4e:	625a      	str	r2, [r3, #36]	; 0x24
	}

	if (mode & IOPORT_MODE_DEBOUNCE) {
  400e50:	697b      	ldr	r3, [r7, #20]
  400e52:	f003 0380 	and.w	r3, r3, #128	; 0x80
  400e56:	2b00      	cmp	r3, #0
  400e58:	d004      	beq.n	400e64 <ioport_set_pin_mode+0xb8>
#if SAM3U || SAM3XA
		base->PIO_DIFSR = mask;
#else
		base->PIO_IFSCER = mask;
  400e5a:	68fb      	ldr	r3, [r7, #12]
  400e5c:	69ba      	ldr	r2, [r7, #24]
  400e5e:	f8c3 2084 	str.w	r2, [r3, #132]	; 0x84
  400e62:	e003      	b.n	400e6c <ioport_set_pin_mode+0xc0>
#endif
	} else {
#if SAM3U || SAM3XA
		base->PIO_SCIFSR = mask;
#else
		base->PIO_IFSCDR = mask;
  400e64:	68fb      	ldr	r3, [r7, #12]
  400e66:	69ba      	ldr	r2, [r7, #24]
  400e68:	f8c3 2080 	str.w	r2, [r3, #128]	; 0x80
		base->PIO_ABSR |= mask;
	} else {
		base->PIO_ABSR &= ~mask;
	}
#else
	if (mode & IOPORT_MODE_MUX_BIT0) {
  400e6c:	697b      	ldr	r3, [r7, #20]
  400e6e:	f003 0301 	and.w	r3, r3, #1
  400e72:	2b00      	cmp	r3, #0
  400e74:	d006      	beq.n	400e84 <ioport_set_pin_mode+0xd8>
		base->PIO_ABCDSR[0] |= mask;
  400e76:	68fb      	ldr	r3, [r7, #12]
  400e78:	6f1a      	ldr	r2, [r3, #112]	; 0x70
  400e7a:	69bb      	ldr	r3, [r7, #24]
  400e7c:	431a      	orrs	r2, r3
  400e7e:	68fb      	ldr	r3, [r7, #12]
  400e80:	671a      	str	r2, [r3, #112]	; 0x70
  400e82:	e006      	b.n	400e92 <ioport_set_pin_mode+0xe6>
	} else {
		base->PIO_ABCDSR[0] &= ~mask;
  400e84:	68fb      	ldr	r3, [r7, #12]
  400e86:	6f1a      	ldr	r2, [r3, #112]	; 0x70
  400e88:	69bb      	ldr	r3, [r7, #24]
  400e8a:	43db      	mvns	r3, r3
  400e8c:	401a      	ands	r2, r3
  400e8e:	68fb      	ldr	r3, [r7, #12]
  400e90:	671a      	str	r2, [r3, #112]	; 0x70
	}

	if (mode & IOPORT_MODE_MUX_BIT1) {
  400e92:	697b      	ldr	r3, [r7, #20]
  400e94:	f003 0302 	and.w	r3, r3, #2
  400e98:	2b00      	cmp	r3, #0
  400e9a:	d006      	beq.n	400eaa <ioport_set_pin_mode+0xfe>
		base->PIO_ABCDSR[1] |= mask;
  400e9c:	68fb      	ldr	r3, [r7, #12]
  400e9e:	6f5a      	ldr	r2, [r3, #116]	; 0x74
  400ea0:	69bb      	ldr	r3, [r7, #24]
  400ea2:	431a      	orrs	r2, r3
  400ea4:	68fb      	ldr	r3, [r7, #12]
  400ea6:	675a      	str	r2, [r3, #116]	; 0x74
	arch_ioport_set_pin_mode(pin, mode);
}
  400ea8:	e006      	b.n	400eb8 <ioport_set_pin_mode+0x10c>
	} else {
		base->PIO_ABCDSR[1] &= ~mask;
  400eaa:	68fb      	ldr	r3, [r7, #12]
  400eac:	6f5a      	ldr	r2, [r3, #116]	; 0x74
  400eae:	69bb      	ldr	r3, [r7, #24]
  400eb0:	43db      	mvns	r3, r3
  400eb2:	401a      	ands	r2, r3
  400eb4:	68fb      	ldr	r3, [r7, #12]
  400eb6:	675a      	str	r2, [r3, #116]	; 0x74
  400eb8:	bf00      	nop
  400eba:	3734      	adds	r7, #52	; 0x34
  400ebc:	46bd      	mov	sp, r7
  400ebe:	f85d 7b04 	ldr.w	r7, [sp], #4
  400ec2:	4770      	bx	lr
  400ec4:	00200707 	.word	0x00200707

00400ec8 <ioport_set_pin_dir>:
 * \param pin IOPORT pin to configure
 * \param dir Direction to set for the specified pin (\ref ioport_direction)
 */
static inline void ioport_set_pin_dir(ioport_pin_t pin,
		enum ioport_direction dir)
{
  400ec8:	b480      	push	{r7}
  400eca:	b08d      	sub	sp, #52	; 0x34
  400ecc:	af00      	add	r7, sp, #0
  400ece:	6078      	str	r0, [r7, #4]
  400ed0:	460b      	mov	r3, r1
  400ed2:	70fb      	strb	r3, [r7, #3]
  400ed4:	687b      	ldr	r3, [r7, #4]
  400ed6:	62fb      	str	r3, [r7, #44]	; 0x2c
  400ed8:	78fb      	ldrb	r3, [r7, #3]
  400eda:	f887 302b 	strb.w	r3, [r7, #43]	; 0x2b
  400ede:	6afb      	ldr	r3, [r7, #44]	; 0x2c
  400ee0:	627b      	str	r3, [r7, #36]	; 0x24
  400ee2:	6a7b      	ldr	r3, [r7, #36]	; 0x24
  400ee4:	623b      	str	r3, [r7, #32]
	return pin >> 5;
  400ee6:	6a3b      	ldr	r3, [r7, #32]
  400ee8:	095b      	lsrs	r3, r3, #5
  400eea:	61fb      	str	r3, [r7, #28]
	return (Pio *)((uintptr_t)IOPORT_BASE_ADDRESS +
  400eec:	69fa      	ldr	r2, [r7, #28]
  400eee:	4b17      	ldr	r3, [pc, #92]	; (400f4c <ioport_set_pin_dir+0x84>)
  400ef0:	4413      	add	r3, r2
  400ef2:	025b      	lsls	r3, r3, #9
}

__always_inline static void arch_ioport_set_pin_dir(ioport_pin_t pin,
		enum ioport_direction dir)
{
	Pio *base = arch_ioport_pin_to_base(pin);
  400ef4:	61bb      	str	r3, [r7, #24]

	if (dir == IOPORT_DIR_OUTPUT) {
  400ef6:	f897 302b 	ldrb.w	r3, [r7, #43]	; 0x2b
  400efa:	2b01      	cmp	r3, #1
  400efc:	d109      	bne.n	400f12 <ioport_set_pin_dir+0x4a>
  400efe:	6afb      	ldr	r3, [r7, #44]	; 0x2c
  400f00:	617b      	str	r3, [r7, #20]
	return 1U << (pin & 0x1F);
  400f02:	697b      	ldr	r3, [r7, #20]
  400f04:	f003 031f 	and.w	r3, r3, #31
  400f08:	2201      	movs	r2, #1
  400f0a:	409a      	lsls	r2, r3
		base->PIO_OER = arch_ioport_pin_to_mask(pin);
  400f0c:	69bb      	ldr	r3, [r7, #24]
  400f0e:	611a      	str	r2, [r3, #16]
  400f10:	e00c      	b.n	400f2c <ioport_set_pin_dir+0x64>
	} else if (dir == IOPORT_DIR_INPUT) {
  400f12:	f897 302b 	ldrb.w	r3, [r7, #43]	; 0x2b
  400f16:	2b00      	cmp	r3, #0
  400f18:	d108      	bne.n	400f2c <ioport_set_pin_dir+0x64>
  400f1a:	6afb      	ldr	r3, [r7, #44]	; 0x2c
  400f1c:	613b      	str	r3, [r7, #16]
	return 1U << (pin & 0x1F);
  400f1e:	693b      	ldr	r3, [r7, #16]
  400f20:	f003 031f 	and.w	r3, r3, #31
  400f24:	2201      	movs	r2, #1
  400f26:	409a      	lsls	r2, r3
		base->PIO_ODR = arch_ioport_pin_to_mask(pin);
  400f28:	69bb      	ldr	r3, [r7, #24]
  400f2a:	615a      	str	r2, [r3, #20]
  400f2c:	6afb      	ldr	r3, [r7, #44]	; 0x2c
  400f2e:	60fb      	str	r3, [r7, #12]
	return 1U << (pin & 0x1F);
  400f30:	68fb      	ldr	r3, [r7, #12]
  400f32:	f003 031f 	and.w	r3, r3, #31
  400f36:	2201      	movs	r2, #1
  400f38:	409a      	lsls	r2, r3
	}

	base->PIO_OWER = arch_ioport_pin_to_mask(pin);
  400f3a:	69bb      	ldr	r3, [r7, #24]
  400f3c:	f8c3 20a0 	str.w	r2, [r3, #160]	; 0xa0
	arch_ioport_set_pin_dir(pin, dir);
}
  400f40:	bf00      	nop
  400f42:	3734      	adds	r7, #52	; 0x34
  400f44:	46bd      	mov	sp, r7
  400f46:	f85d 7b04 	ldr.w	r7, [sp], #4
  400f4a:	4770      	bx	lr
  400f4c:	00200707 	.word	0x00200707

00400f50 <ioport_set_pin_level>:
 *
 * \param pin IOPORT pin to configure
 * \param level Logical value of the pin
 */
static inline void ioport_set_pin_level(ioport_pin_t pin, bool level)
{
  400f50:	b480      	push	{r7}
  400f52:	b08b      	sub	sp, #44	; 0x2c
  400f54:	af00      	add	r7, sp, #0
  400f56:	6078      	str	r0, [r7, #4]
  400f58:	460b      	mov	r3, r1
  400f5a:	70fb      	strb	r3, [r7, #3]
  400f5c:	687b      	ldr	r3, [r7, #4]
  400f5e:	627b      	str	r3, [r7, #36]	; 0x24
  400f60:	78fb      	ldrb	r3, [r7, #3]
  400f62:	f887 3023 	strb.w	r3, [r7, #35]	; 0x23
  400f66:	6a7b      	ldr	r3, [r7, #36]	; 0x24
  400f68:	61fb      	str	r3, [r7, #28]
  400f6a:	69fb      	ldr	r3, [r7, #28]
  400f6c:	61bb      	str	r3, [r7, #24]
	return pin >> 5;
  400f6e:	69bb      	ldr	r3, [r7, #24]
  400f70:	095b      	lsrs	r3, r3, #5
  400f72:	617b      	str	r3, [r7, #20]
	return (Pio *)((uintptr_t)IOPORT_BASE_ADDRESS +
  400f74:	697a      	ldr	r2, [r7, #20]
  400f76:	4b10      	ldr	r3, [pc, #64]	; (400fb8 <ioport_set_pin_level+0x68>)
  400f78:	4413      	add	r3, r2
  400f7a:	025b      	lsls	r3, r3, #9
}

__always_inline static void arch_ioport_set_pin_level(ioport_pin_t pin,
		bool level)
{
	Pio *base = arch_ioport_pin_to_base(pin);
  400f7c:	613b      	str	r3, [r7, #16]

	if (level) {
  400f7e:	f897 3023 	ldrb.w	r3, [r7, #35]	; 0x23
  400f82:	2b00      	cmp	r3, #0
  400f84:	d009      	beq.n	400f9a <ioport_set_pin_level+0x4a>
  400f86:	6a7b      	ldr	r3, [r7, #36]	; 0x24
  400f88:	60fb      	str	r3, [r7, #12]
	return 1U << (pin & 0x1F);
  400f8a:	68fb      	ldr	r3, [r7, #12]
  400f8c:	f003 031f 	and.w	r3, r3, #31
  400f90:	2201      	movs	r2, #1
  400f92:	409a      	lsls	r2, r3
		base->PIO_SODR = arch_ioport_pin_to_mask(pin);
  400f94:	693b      	ldr	r3, [r7, #16]
  400f96:	631a      	str	r2, [r3, #48]	; 0x30
	arch_ioport_set_pin_level(pin, level);
}
  400f98:	e008      	b.n	400fac <ioport_set_pin_level+0x5c>
  400f9a:	6a7b      	ldr	r3, [r7, #36]	; 0x24
  400f9c:	60bb      	str	r3, [r7, #8]
	return 1U << (pin & 0x1F);
  400f9e:	68bb      	ldr	r3, [r7, #8]
  400fa0:	f003 031f 	and.w	r3, r3, #31
  400fa4:	2201      	movs	r2, #1
  400fa6:	409a      	lsls	r2, r3
	} else {
		base->PIO_CODR = arch_ioport_pin_to_mask(pin);
  400fa8:	693b      	ldr	r3, [r7, #16]
  400faa:	635a      	str	r2, [r3, #52]	; 0x34
  400fac:	bf00      	nop
  400fae:	372c      	adds	r7, #44	; 0x2c
  400fb0:	46bd      	mov	sp, r7
  400fb2:	f85d 7b04 	ldr.w	r7, [sp], #4
  400fb6:	4770      	bx	lr
  400fb8:	00200707 	.word	0x00200707

00400fbc <spi_reset>:
{
  400fbc:	b480      	push	{r7}
  400fbe:	b083      	sub	sp, #12
  400fc0:	af00      	add	r7, sp, #0
  400fc2:	6078      	str	r0, [r7, #4]
	p_spi->SPI_CR = SPI_CR_SWRST;
  400fc4:	687b      	ldr	r3, [r7, #4]
  400fc6:	2280      	movs	r2, #128	; 0x80
  400fc8:	601a      	str	r2, [r3, #0]
}
  400fca:	bf00      	nop
  400fcc:	370c      	adds	r7, #12
  400fce:	46bd      	mov	sp, r7
  400fd0:	f85d 7b04 	ldr.w	r7, [sp], #4
  400fd4:	4770      	bx	lr

00400fd6 <spi_enable>:
{
  400fd6:	b480      	push	{r7}
  400fd8:	b083      	sub	sp, #12
  400fda:	af00      	add	r7, sp, #0
  400fdc:	6078      	str	r0, [r7, #4]
	p_spi->SPI_CR = SPI_CR_SPIEN;
  400fde:	687b      	ldr	r3, [r7, #4]
  400fe0:	2201      	movs	r2, #1
  400fe2:	601a      	str	r2, [r3, #0]
}
  400fe4:	bf00      	nop
  400fe6:	370c      	adds	r7, #12
  400fe8:	46bd      	mov	sp, r7
  400fea:	f85d 7b04 	ldr.w	r7, [sp], #4
  400fee:	4770      	bx	lr

00400ff0 <spi_disable>:
{
  400ff0:	b480      	push	{r7}
  400ff2:	b083      	sub	sp, #12
  400ff4:	af00      	add	r7, sp, #0
  400ff6:	6078      	str	r0, [r7, #4]
	p_spi->SPI_CR = SPI_CR_SPIDIS;
  400ff8:	687b      	ldr	r3, [r7, #4]
  400ffa:	2202      	movs	r2, #2
  400ffc:	601a      	str	r2, [r3, #0]
}
  400ffe:	bf00      	nop
  401000:	370c      	adds	r7, #12
  401002:	46bd      	mov	sp, r7
  401004:	f85d 7b04 	ldr.w	r7, [sp], #4
  401008:	4770      	bx	lr

0040100a <spi_set_master_mode>:
{
  40100a:	b480      	push	{r7}
  40100c:	b083      	sub	sp, #12
  40100e:	af00      	add	r7, sp, #0
  401010:	6078      	str	r0, [r7, #4]
	p_spi->SPI_MR |= SPI_MR_MSTR;
  401012:	687b      	ldr	r3, [r7, #4]
  401014:	685b      	ldr	r3, [r3, #4]
  401016:	f043 0201 	orr.w	r2, r3, #1
  40101a:	687b      	ldr	r3, [r7, #4]
  40101c:	605a      	str	r2, [r3, #4]
}
  40101e:	bf00      	nop
  401020:	370c      	adds	r7, #12
  401022:	46bd      	mov	sp, r7
  401024:	f85d 7b04 	ldr.w	r7, [sp], #4
  401028:	4770      	bx	lr

0040102a <spi_set_fixed_peripheral_select>:
{
  40102a:	b480      	push	{r7}
  40102c:	b083      	sub	sp, #12
  40102e:	af00      	add	r7, sp, #0
  401030:	6078      	str	r0, [r7, #4]
	p_spi->SPI_MR &= (~SPI_MR_PS);
  401032:	687b      	ldr	r3, [r7, #4]
  401034:	685b      	ldr	r3, [r3, #4]
  401036:	f023 0202 	bic.w	r2, r3, #2
  40103a:	687b      	ldr	r3, [r7, #4]
  40103c:	605a      	str	r2, [r3, #4]
}
  40103e:	bf00      	nop
  401040:	370c      	adds	r7, #12
  401042:	46bd      	mov	sp, r7
  401044:	f85d 7b04 	ldr.w	r7, [sp], #4
  401048:	4770      	bx	lr

0040104a <spi_disable_mode_fault_detect>:
 * \brief Disable Mode Fault Detection.
 *
 * \param p_spi Pointer to an SPI instance.
 */
static inline void spi_disable_mode_fault_detect(Spi *p_spi)
{
  40104a:	b480      	push	{r7}
  40104c:	b083      	sub	sp, #12
  40104e:	af00      	add	r7, sp, #0
  401050:	6078      	str	r0, [r7, #4]
	p_spi->SPI_MR |= SPI_MR_MODFDIS;
  401052:	687b      	ldr	r3, [r7, #4]
  401054:	685b      	ldr	r3, [r3, #4]
  401056:	f043 0210 	orr.w	r2, r3, #16
  40105a:	687b      	ldr	r3, [r7, #4]
  40105c:	605a      	str	r2, [r3, #4]
}
  40105e:	bf00      	nop
  401060:	370c      	adds	r7, #12
  401062:	46bd      	mov	sp, r7
  401064:	f85d 7b04 	ldr.w	r7, [sp], #4
  401068:	4770      	bx	lr

0040106a <spi_disable_loopback>:
 * \brief Disable loopback mode.
 *
 * \param p_spi Pointer to an SPI instance.
 */
static inline void spi_disable_loopback(Spi *p_spi)
{
  40106a:	b480      	push	{r7}
  40106c:	b083      	sub	sp, #12
  40106e:	af00      	add	r7, sp, #0
  401070:	6078      	str	r0, [r7, #4]
	p_spi->SPI_MR &= (~SPI_MR_LLB);
  401072:	687b      	ldr	r3, [r7, #4]
  401074:	685b      	ldr	r3, [r3, #4]
  401076:	f023 0280 	bic.w	r2, r3, #128	; 0x80
  40107a:	687b      	ldr	r3, [r7, #4]
  40107c:	605a      	str	r2, [r3, #4]
}
  40107e:	bf00      	nop
  401080:	370c      	adds	r7, #12
  401082:	46bd      	mov	sp, r7
  401084:	f85d 7b04 	ldr.w	r7, [sp], #4
  401088:	4770      	bx	lr
	...

0040108c <ssd1306_hard_reset>:
{
  40108c:	b580      	push	{r7, lr}
  40108e:	b082      	sub	sp, #8
  401090:	af00      	add	r7, sp, #0
	uint32_t delay_10us = 10 * (sysclk_get_cpu_hz()/1000000);
  401092:	4b0f      	ldr	r3, [pc, #60]	; (4010d0 <ssd1306_hard_reset+0x44>)
  401094:	4798      	blx	r3
  401096:	4602      	mov	r2, r0
  401098:	4b0e      	ldr	r3, [pc, #56]	; (4010d4 <ssd1306_hard_reset+0x48>)
  40109a:	fba3 2302 	umull	r2, r3, r3, r2
  40109e:	0c9a      	lsrs	r2, r3, #18
  4010a0:	4613      	mov	r3, r2
  4010a2:	009b      	lsls	r3, r3, #2
  4010a4:	4413      	add	r3, r2
  4010a6:	005b      	lsls	r3, r3, #1
  4010a8:	607b      	str	r3, [r7, #4]
	ioport_set_pin_level(SSD1306_RES_PIN, false);
  4010aa:	2100      	movs	r1, #0
  4010ac:	2051      	movs	r0, #81	; 0x51
  4010ae:	4b0a      	ldr	r3, [pc, #40]	; (4010d8 <ssd1306_hard_reset+0x4c>)
  4010b0:	4798      	blx	r3
	delay_cycles(delay_10us); // At lest 10us
  4010b2:	6878      	ldr	r0, [r7, #4]
  4010b4:	4b09      	ldr	r3, [pc, #36]	; (4010dc <ssd1306_hard_reset+0x50>)
  4010b6:	4798      	blx	r3
	ioport_set_pin_level(SSD1306_RES_PIN, true);
  4010b8:	2101      	movs	r1, #1
  4010ba:	2051      	movs	r0, #81	; 0x51
  4010bc:	4b06      	ldr	r3, [pc, #24]	; (4010d8 <ssd1306_hard_reset+0x4c>)
  4010be:	4798      	blx	r3
	delay_cycles(delay_10us); // At lest 10us
  4010c0:	6878      	ldr	r0, [r7, #4]
  4010c2:	4b06      	ldr	r3, [pc, #24]	; (4010dc <ssd1306_hard_reset+0x50>)
  4010c4:	4798      	blx	r3
}
  4010c6:	bf00      	nop
  4010c8:	3708      	adds	r7, #8
  4010ca:	46bd      	mov	sp, r7
  4010cc:	bd80      	pop	{r7, pc}
  4010ce:	bf00      	nop
  4010d0:	00400d39 	.word	0x00400d39
  4010d4:	431bde83 	.word	0x431bde83
  4010d8:	00400f51 	.word	0x00400f51
  4010dc:	20400001 	.word	0x20400001

004010e0 <ssd1306_display_on>:
 * \brief Turn the OLED display on
 *
 * This function will turn on the OLED.
 */
static inline void ssd1306_display_on(void)
{
  4010e0:	b580      	push	{r7, lr}
  4010e2:	af00      	add	r7, sp, #0
	ssd1306_write_command(SSD1306_CMD_SET_DISPLAY_ON);
  4010e4:	20af      	movs	r0, #175	; 0xaf
  4010e6:	4b02      	ldr	r3, [pc, #8]	; (4010f0 <ssd1306_display_on+0x10>)
  4010e8:	4798      	blx	r3
}
  4010ea:	bf00      	nop
  4010ec:	bd80      	pop	{r7, pc}
  4010ee:	bf00      	nop
  4010f0:	00401361 	.word	0x00401361

004010f4 <ssd1306_set_contrast>:
 * \param contrast a number between 0 and 0xFF
 *
 * \retval contrast the contrast value written to the OLED controller
 */
static inline uint8_t ssd1306_set_contrast(uint8_t contrast)
{
  4010f4:	b580      	push	{r7, lr}
  4010f6:	b082      	sub	sp, #8
  4010f8:	af00      	add	r7, sp, #0
  4010fa:	4603      	mov	r3, r0
  4010fc:	71fb      	strb	r3, [r7, #7]
	ssd1306_write_command(SSD1306_CMD_SET_CONTRAST_CONTROL_FOR_BANK0);
  4010fe:	2081      	movs	r0, #129	; 0x81
  401100:	4b05      	ldr	r3, [pc, #20]	; (401118 <ssd1306_set_contrast+0x24>)
  401102:	4798      	blx	r3
	ssd1306_write_command(contrast);
  401104:	79fb      	ldrb	r3, [r7, #7]
  401106:	4618      	mov	r0, r3
  401108:	4b03      	ldr	r3, [pc, #12]	; (401118 <ssd1306_set_contrast+0x24>)
  40110a:	4798      	blx	r3
	return contrast;
  40110c:	79fb      	ldrb	r3, [r7, #7]
}
  40110e:	4618      	mov	r0, r3
  401110:	3708      	adds	r7, #8
  401112:	46bd      	mov	sp, r7
  401114:	bd80      	pop	{r7, pc}
  401116:	bf00      	nop
  401118:	00401361 	.word	0x00401361

0040111c <ssd1306_display_invert_disable>:
 *
 * This function will disable invert on all pixels on the OLED
 *
 */
static inline void ssd1306_display_invert_disable(void)
{
  40111c:	b580      	push	{r7, lr}
  40111e:	af00      	add	r7, sp, #0
	ssd1306_write_command(SSD1306_CMD_SET_NORMAL_DISPLAY);
  401120:	20a6      	movs	r0, #166	; 0xa6
  401122:	4b02      	ldr	r3, [pc, #8]	; (40112c <ssd1306_display_invert_disable+0x10>)
  401124:	4798      	blx	r3
}
  401126:	bf00      	nop
  401128:	bd80      	pop	{r7, pc}
  40112a:	bf00      	nop
  40112c:	00401361 	.word	0x00401361

00401130 <ssd1306_interface_init>:
#define SPI_MOSI_MASK 21
#define SPI_CLK_MASK 22


static void ssd1306_interface_init(void)
{
  401130:	b590      	push	{r4, r7, lr}
  401132:	b083      	sub	sp, #12
  401134:	af00      	add	r7, sp, #0
	
	ioport_set_pin_dir(SSD1306_RES_PIN, IOPORT_DIR_OUTPUT);
  401136:	2101      	movs	r1, #1
  401138:	2051      	movs	r0, #81	; 0x51
  40113a:	4b46      	ldr	r3, [pc, #280]	; (401254 <ssd1306_interface_init+0x124>)
  40113c:	4798      	blx	r3
	ioport_set_pin_dir(SSD1306_DC_PIN, IOPORT_DIR_OUTPUT);
  40113e:	2101      	movs	r1, #1
  401140:	2023      	movs	r0, #35	; 0x23
  401142:	4b44      	ldr	r3, [pc, #272]	; (401254 <ssd1306_interface_init+0x124>)
  401144:	4798      	blx	r3
	ioport_set_pin_mode(SSD1306_RES_PIN, IOPORT_MODE_PULLUP);
  401146:	2108      	movs	r1, #8
  401148:	2051      	movs	r0, #81	; 0x51
  40114a:	4b43      	ldr	r3, [pc, #268]	; (401258 <ssd1306_interface_init+0x128>)
  40114c:	4798      	blx	r3
	ioport_set_pin_mode(SSD1306_DC_PIN, IOPORT_MODE_PULLUP);
  40114e:	2108      	movs	r1, #8
  401150:	2023      	movs	r0, #35	; 0x23
  401152:	4b41      	ldr	r3, [pc, #260]	; (401258 <ssd1306_interface_init+0x128>)
  401154:	4798      	blx	r3
	ioport_enable_pin(SSD1306_DC_PIN);
  401156:	2023      	movs	r0, #35	; 0x23
  401158:	4b40      	ldr	r3, [pc, #256]	; (40125c <ssd1306_interface_init+0x12c>)
  40115a:	4798      	blx	r3
	ioport_enable_pin(SSD1306_RES_PIN);
  40115c:	2051      	movs	r0, #81	; 0x51
  40115e:	4b3f      	ldr	r3, [pc, #252]	; (40125c <ssd1306_interface_init+0x12c>)
  401160:	4798      	blx	r3
	ioport_set_pin_level(SSD1306_DC_PIN, true);
  401162:	2101      	movs	r1, #1
  401164:	2023      	movs	r0, #35	; 0x23
  401166:	4b3e      	ldr	r3, [pc, #248]	; (401260 <ssd1306_interface_init+0x130>)
  401168:	4798      	blx	r3
	ioport_set_pin_level(SSD1306_RES_PIN, true);
  40116a:	2101      	movs	r1, #1
  40116c:	2051      	movs	r0, #81	; 0x51
  40116e:	4b3c      	ldr	r3, [pc, #240]	; (401260 <ssd1306_interface_init+0x130>)
  401170:	4798      	blx	r3
	
	
	pio_configure(PIOD, PIO_PERIPH_B, 1 << SPI_CLK_MASK, PIO_DEFAULT);
  401172:	2300      	movs	r3, #0
  401174:	f44f 0280 	mov.w	r2, #4194304	; 0x400000
  401178:	f04f 5180 	mov.w	r1, #268435456	; 0x10000000
  40117c:	4839      	ldr	r0, [pc, #228]	; (401264 <ssd1306_interface_init+0x134>)
  40117e:	4c3a      	ldr	r4, [pc, #232]	; (401268 <ssd1306_interface_init+0x138>)
  401180:	47a0      	blx	r4
	pio_configure(PIOD, PIO_PERIPH_B, 1 << SPI_MOSI_MASK, PIO_DEFAULT);
  401182:	2300      	movs	r3, #0
  401184:	f44f 1200 	mov.w	r2, #2097152	; 0x200000
  401188:	f04f 5180 	mov.w	r1, #268435456	; 0x10000000
  40118c:	4835      	ldr	r0, [pc, #212]	; (401264 <ssd1306_interface_init+0x134>)
  40118e:	4c36      	ldr	r4, [pc, #216]	; (401268 <ssd1306_interface_init+0x138>)
  401190:	47a0      	blx	r4
	pio_configure(PIOD, PIO_PERIPH_B, 1 << SPI_CS_MASK, PIO_DEFAULT);
  401192:	2300      	movs	r3, #0
  401194:	f04f 7200 	mov.w	r2, #33554432	; 0x2000000
  401198:	f04f 5180 	mov.w	r1, #268435456	; 0x10000000
  40119c:	4831      	ldr	r0, [pc, #196]	; (401264 <ssd1306_interface_init+0x134>)
  40119e:	4c32      	ldr	r4, [pc, #200]	; (401268 <ssd1306_interface_init+0x138>)
  4011a0:	47a0      	blx	r4
	
		pio_configure(PIOD, PIO_PERIPH_B, 1 << SPI_CLK_MASK, PIO_DEFAULT);
  4011a2:	2300      	movs	r3, #0
  4011a4:	f44f 0280 	mov.w	r2, #4194304	; 0x400000
  4011a8:	f04f 5180 	mov.w	r1, #268435456	; 0x10000000
  4011ac:	482d      	ldr	r0, [pc, #180]	; (401264 <ssd1306_interface_init+0x134>)
  4011ae:	4c2e      	ldr	r4, [pc, #184]	; (401268 <ssd1306_interface_init+0x138>)
  4011b0:	47a0      	blx	r4
		pio_configure(PIOD, PIO_PERIPH_B, 1 << SPI_MOSI_MASK, PIO_DEFAULT);
  4011b2:	2300      	movs	r3, #0
  4011b4:	f44f 1200 	mov.w	r2, #2097152	; 0x200000
  4011b8:	f04f 5180 	mov.w	r1, #268435456	; 0x10000000
  4011bc:	4829      	ldr	r0, [pc, #164]	; (401264 <ssd1306_interface_init+0x134>)
  4011be:	4c2a      	ldr	r4, [pc, #168]	; (401268 <ssd1306_interface_init+0x138>)
  4011c0:	47a0      	blx	r4
		pio_configure(PIOD, PIO_PERIPH_B, 1 << SPI_CS_MASK, PIO_DEFAULT);
  4011c2:	2300      	movs	r3, #0
  4011c4:	f04f 7200 	mov.w	r2, #33554432	; 0x2000000
  4011c8:	f04f 5180 	mov.w	r1, #268435456	; 0x10000000
  4011cc:	4825      	ldr	r0, [pc, #148]	; (401264 <ssd1306_interface_init+0x134>)
  4011ce:	4c26      	ldr	r4, [pc, #152]	; (401268 <ssd1306_interface_init+0x138>)
  4011d0:	47a0      	blx	r4
		
		spi_disable(SPI0);
  4011d2:	4826      	ldr	r0, [pc, #152]	; (40126c <ssd1306_interface_init+0x13c>)
  4011d4:	4b26      	ldr	r3, [pc, #152]	; (401270 <ssd1306_interface_init+0x140>)
  4011d6:	4798      	blx	r3
		spi_reset(SPI0);
  4011d8:	4824      	ldr	r0, [pc, #144]	; (40126c <ssd1306_interface_init+0x13c>)
  4011da:	4b26      	ldr	r3, [pc, #152]	; (401274 <ssd1306_interface_init+0x144>)
  4011dc:	4798      	blx	r3
		spi_set_master_mode(SPI0);
  4011de:	4823      	ldr	r0, [pc, #140]	; (40126c <ssd1306_interface_init+0x13c>)
  4011e0:	4b25      	ldr	r3, [pc, #148]	; (401278 <ssd1306_interface_init+0x148>)
  4011e2:	4798      	blx	r3
		//spi_set_transfer_delay(SPI0, 1, 40, 30);
		spi_configure_cs_behavior(SPI0, 1, SPI_CS_KEEP_LOW);
  4011e4:	2208      	movs	r2, #8
  4011e6:	2101      	movs	r1, #1
  4011e8:	4820      	ldr	r0, [pc, #128]	; (40126c <ssd1306_interface_init+0x13c>)
  4011ea:	4b24      	ldr	r3, [pc, #144]	; (40127c <ssd1306_interface_init+0x14c>)
  4011ec:	4798      	blx	r3
		spi_set_clock_polarity(SPI0, 1, 0);
  4011ee:	2200      	movs	r2, #0
  4011f0:	2101      	movs	r1, #1
  4011f2:	481e      	ldr	r0, [pc, #120]	; (40126c <ssd1306_interface_init+0x13c>)
  4011f4:	4b22      	ldr	r3, [pc, #136]	; (401280 <ssd1306_interface_init+0x150>)
  4011f6:	4798      	blx	r3
		spi_set_clock_phase(SPI0, 1, 0);
  4011f8:	2200      	movs	r2, #0
  4011fa:	2101      	movs	r1, #1
  4011fc:	481b      	ldr	r0, [pc, #108]	; (40126c <ssd1306_interface_init+0x13c>)
  4011fe:	4b21      	ldr	r3, [pc, #132]	; (401284 <ssd1306_interface_init+0x154>)
  401200:	4798      	blx	r3
		spi_set_fixed_peripheral_select(SPI0);
  401202:	481a      	ldr	r0, [pc, #104]	; (40126c <ssd1306_interface_init+0x13c>)
  401204:	4b20      	ldr	r3, [pc, #128]	; (401288 <ssd1306_interface_init+0x158>)
  401206:	4798      	blx	r3
		spi_set_bits_per_transfer(SPI0, 1, SPI_CSR_BITS_8_BIT);
  401208:	2200      	movs	r2, #0
  40120a:	2101      	movs	r1, #1
  40120c:	4817      	ldr	r0, [pc, #92]	; (40126c <ssd1306_interface_init+0x13c>)
  40120e:	4b1f      	ldr	r3, [pc, #124]	; (40128c <ssd1306_interface_init+0x15c>)
  401210:	4798      	blx	r3
		spi_disable_loopback(SPI0);
  401212:	4816      	ldr	r0, [pc, #88]	; (40126c <ssd1306_interface_init+0x13c>)
  401214:	4b1e      	ldr	r3, [pc, #120]	; (401290 <ssd1306_interface_init+0x160>)
  401216:	4798      	blx	r3

		spi_disable_mode_fault_detect(SPI0);
  401218:	4814      	ldr	r0, [pc, #80]	; (40126c <ssd1306_interface_init+0x13c>)
  40121a:	4b1e      	ldr	r3, [pc, #120]	; (401294 <ssd1306_interface_init+0x164>)
  40121c:	4798      	blx	r3
		int div = spi_calc_baudrate_div(2000000, sysclk_get_peripheral_hz());
  40121e:	4b1e      	ldr	r3, [pc, #120]	; (401298 <ssd1306_interface_init+0x168>)
  401220:	4798      	blx	r3
  401222:	4603      	mov	r3, r0
  401224:	4619      	mov	r1, r3
  401226:	481d      	ldr	r0, [pc, #116]	; (40129c <ssd1306_interface_init+0x16c>)
  401228:	4b1d      	ldr	r3, [pc, #116]	; (4012a0 <ssd1306_interface_init+0x170>)
  40122a:	4798      	blx	r3
  40122c:	4603      	mov	r3, r0
  40122e:	607b      	str	r3, [r7, #4]
		spi_set_baudrate_div(SPI0,1, div);
  401230:	687b      	ldr	r3, [r7, #4]
  401232:	b2db      	uxtb	r3, r3
  401234:	461a      	mov	r2, r3
  401236:	2101      	movs	r1, #1
  401238:	480c      	ldr	r0, [pc, #48]	; (40126c <ssd1306_interface_init+0x13c>)
  40123a:	4b1a      	ldr	r3, [pc, #104]	; (4012a4 <ssd1306_interface_init+0x174>)
  40123c:	4798      	blx	r3
		spi_enable_clock(SPI0);
  40123e:	480b      	ldr	r0, [pc, #44]	; (40126c <ssd1306_interface_init+0x13c>)
  401240:	4b19      	ldr	r3, [pc, #100]	; (4012a8 <ssd1306_interface_init+0x178>)
  401242:	4798      	blx	r3
		
		spi_enable(SPI0);
  401244:	4809      	ldr	r0, [pc, #36]	; (40126c <ssd1306_interface_init+0x13c>)
  401246:	4b19      	ldr	r3, [pc, #100]	; (4012ac <ssd1306_interface_init+0x17c>)
  401248:	4798      	blx	r3
}
  40124a:	bf00      	nop
  40124c:	370c      	adds	r7, #12
  40124e:	46bd      	mov	sp, r7
  401250:	bd90      	pop	{r4, r7, pc}
  401252:	bf00      	nop
  401254:	00400ec9 	.word	0x00400ec9
  401258:	00400dad 	.word	0x00400dad
  40125c:	00400d61 	.word	0x00400d61
  401260:	00400f51 	.word	0x00400f51
  401264:	400e1400 	.word	0x400e1400
  401268:	00401f91 	.word	0x00401f91
  40126c:	40008000 	.word	0x40008000
  401270:	00400ff1 	.word	0x00400ff1
  401274:	00400fbd 	.word	0x00400fbd
  401278:	0040100b 	.word	0x0040100b
  40127c:	00400525 	.word	0x00400525
  401280:	00400485 	.word	0x00400485
  401284:	004004d5 	.word	0x004004d5
  401288:	0040102b 	.word	0x0040102b
  40128c:	004005cb 	.word	0x004005cb
  401290:	0040106b 	.word	0x0040106b
  401294:	0040104b 	.word	0x0040104b
  401298:	00400d4d 	.word	0x00400d4d
  40129c:	001e8480 	.word	0x001e8480
  4012a0:	00400615 	.word	0x00400615
  4012a4:	00400651 	.word	0x00400651
  4012a8:	00400395 	.word	0x00400395
  4012ac:	00400fd7 	.word	0x00400fd7

004012b0 <ssd1306_init>:
 a
 a
 a
 */
void ssd1306_init(void)
{
  4012b0:	b580      	push	{r7, lr}
  4012b2:	af00      	add	r7, sp, #0
	// Initialize delay routine
	delay_init();

	// Initialize the interface
	ssd1306_interface_init();
  4012b4:	4b23      	ldr	r3, [pc, #140]	; (401344 <ssd1306_init+0x94>)
  4012b6:	4798      	blx	r3

	// Do a hard reset of the OLED display controller
	ssd1306_hard_reset();
  4012b8:	4b23      	ldr	r3, [pc, #140]	; (401348 <ssd1306_init+0x98>)
  4012ba:	4798      	blx	r3

	// Set the reset pin to the default state
	ioport_set_pin_level(SSD1306_RES_PIN, true);
  4012bc:	2101      	movs	r1, #1
  4012be:	2051      	movs	r0, #81	; 0x51
  4012c0:	4b22      	ldr	r3, [pc, #136]	; (40134c <ssd1306_init+0x9c>)
  4012c2:	4798      	blx	r3
	
	// 1/32 Duty (0x0F~0x3F)
	ssd1306_write_command(SSD1306_CMD_SET_MULTIPLEX_RATIO);
  4012c4:	20a8      	movs	r0, #168	; 0xa8
  4012c6:	4b22      	ldr	r3, [pc, #136]	; (401350 <ssd1306_init+0xa0>)
  4012c8:	4798      	blx	r3
	ssd1306_write_command(0x1F);
  4012ca:	201f      	movs	r0, #31
  4012cc:	4b20      	ldr	r3, [pc, #128]	; (401350 <ssd1306_init+0xa0>)
  4012ce:	4798      	blx	r3

	// Shift Mapping RAM Counter (0x00~0x3F)
	ssd1306_write_command(SSD1306_CMD_SET_DISPLAY_OFFSET);
  4012d0:	20d3      	movs	r0, #211	; 0xd3
  4012d2:	4b1f      	ldr	r3, [pc, #124]	; (401350 <ssd1306_init+0xa0>)
  4012d4:	4798      	blx	r3
	ssd1306_write_command(0x00);
  4012d6:	2000      	movs	r0, #0
  4012d8:	4b1d      	ldr	r3, [pc, #116]	; (401350 <ssd1306_init+0xa0>)
  4012da:	4798      	blx	r3

	// Set Mapping RAM Display Start Line (0x00~0x3F)
	ssd1306_write_command(SSD1306_CMD_SET_DISPLAY_START_LINE(0x00));
  4012dc:	2040      	movs	r0, #64	; 0x40
  4012de:	4b1c      	ldr	r3, [pc, #112]	; (401350 <ssd1306_init+0xa0>)
  4012e0:	4798      	blx	r3

	// Set Column Address 0 Mapped to SEG0
	ssd1306_write_command(SSD1306_CMD_SET_SEGMENT_RE_MAP_COL127_SEG0);
  4012e2:	20a1      	movs	r0, #161	; 0xa1
  4012e4:	4b1a      	ldr	r3, [pc, #104]	; (401350 <ssd1306_init+0xa0>)
  4012e6:	4798      	blx	r3

	// Set COM/Row Scan Scan from COM63 to 0
	ssd1306_write_command(SSD1306_CMD_SET_COM_OUTPUT_SCAN_DOWN);
  4012e8:	20c8      	movs	r0, #200	; 0xc8
  4012ea:	4b19      	ldr	r3, [pc, #100]	; (401350 <ssd1306_init+0xa0>)
  4012ec:	4798      	blx	r3

	// Set COM Pins hardware configuration
	ssd1306_write_command(SSD1306_CMD_SET_COM_PINS);
  4012ee:	20da      	movs	r0, #218	; 0xda
  4012f0:	4b17      	ldr	r3, [pc, #92]	; (401350 <ssd1306_init+0xa0>)
  4012f2:	4798      	blx	r3
	ssd1306_write_command(0x02);
  4012f4:	2002      	movs	r0, #2
  4012f6:	4b16      	ldr	r3, [pc, #88]	; (401350 <ssd1306_init+0xa0>)
  4012f8:	4798      	blx	r3

	ssd1306_set_contrast(0x8F);
  4012fa:	208f      	movs	r0, #143	; 0x8f
  4012fc:	4b15      	ldr	r3, [pc, #84]	; (401354 <ssd1306_init+0xa4>)
  4012fe:	4798      	blx	r3

	// Disable Entire display On
	ssd1306_write_command(SSD1306_CMD_ENTIRE_DISPLAY_AND_GDDRAM_ON);
  401300:	20a4      	movs	r0, #164	; 0xa4
  401302:	4b13      	ldr	r3, [pc, #76]	; (401350 <ssd1306_init+0xa0>)
  401304:	4798      	blx	r3

	ssd1306_display_invert_disable();
  401306:	4b14      	ldr	r3, [pc, #80]	; (401358 <ssd1306_init+0xa8>)
  401308:	4798      	blx	r3

	// Set Display Clock Divide Ratio / Oscillator Frequency (Default => 0x80)
	ssd1306_write_command(SSD1306_CMD_SET_DISPLAY_CLOCK_DIVIDE_RATIO);
  40130a:	20d5      	movs	r0, #213	; 0xd5
  40130c:	4b10      	ldr	r3, [pc, #64]	; (401350 <ssd1306_init+0xa0>)
  40130e:	4798      	blx	r3
	ssd1306_write_command(0x80);
  401310:	2080      	movs	r0, #128	; 0x80
  401312:	4b0f      	ldr	r3, [pc, #60]	; (401350 <ssd1306_init+0xa0>)
  401314:	4798      	blx	r3

	// Enable charge pump regulator
	ssd1306_write_command(SSD1306_CMD_SET_CHARGE_PUMP_SETTING);
  401316:	208d      	movs	r0, #141	; 0x8d
  401318:	4b0d      	ldr	r3, [pc, #52]	; (401350 <ssd1306_init+0xa0>)
  40131a:	4798      	blx	r3
	ssd1306_write_command(0x14);
  40131c:	2014      	movs	r0, #20
  40131e:	4b0c      	ldr	r3, [pc, #48]	; (401350 <ssd1306_init+0xa0>)
  401320:	4798      	blx	r3

	// Set VCOMH Deselect Level
	ssd1306_write_command(SSD1306_CMD_SET_VCOMH_DESELECT_LEVEL);
  401322:	20db      	movs	r0, #219	; 0xdb
  401324:	4b0a      	ldr	r3, [pc, #40]	; (401350 <ssd1306_init+0xa0>)
  401326:	4798      	blx	r3
	ssd1306_write_command(0x40); // Default => 0x20 (0.77*VCC)
  401328:	2040      	movs	r0, #64	; 0x40
  40132a:	4b09      	ldr	r3, [pc, #36]	; (401350 <ssd1306_init+0xa0>)
  40132c:	4798      	blx	r3

	// Set Pre-Charge as 15 Clocks & Discharge as 1 Clock
	ssd1306_write_command(SSD1306_CMD_SET_PRE_CHARGE_PERIOD);
  40132e:	20d9      	movs	r0, #217	; 0xd9
  401330:	4b07      	ldr	r3, [pc, #28]	; (401350 <ssd1306_init+0xa0>)
  401332:	4798      	blx	r3
	ssd1306_write_command(0xF1);
  401334:	20f1      	movs	r0, #241	; 0xf1
  401336:	4b06      	ldr	r3, [pc, #24]	; (401350 <ssd1306_init+0xa0>)
  401338:	4798      	blx	r3

	
	ssd1306_display_on();
  40133a:	4b08      	ldr	r3, [pc, #32]	; (40135c <ssd1306_init+0xac>)
  40133c:	4798      	blx	r3
}
  40133e:	bf00      	nop
  401340:	bd80      	pop	{r7, pc}
  401342:	bf00      	nop
  401344:	00401131 	.word	0x00401131
  401348:	0040108d 	.word	0x0040108d
  40134c:	00400f51 	.word	0x00400f51
  401350:	00401361 	.word	0x00401361
  401354:	004010f5 	.word	0x004010f5
  401358:	0040111d 	.word	0x0040111d
  40135c:	004010e1 	.word	0x004010e1

00401360 <ssd1306_write_command>:
 * data write function is called based on the selected interface.
 *
 * \param command the command to write
 */
void ssd1306_write_command(uint8_t command)
{
  401360:	b5f0      	push	{r4, r5, r6, r7, lr}
  401362:	b083      	sub	sp, #12
  401364:	af00      	add	r7, sp, #0
  401366:	4603      	mov	r3, r0
  401368:	71fb      	strb	r3, [r7, #7]
	ioport_set_pin_level(SSD1306_DC_PIN, false);
  40136a:	2100      	movs	r1, #0
  40136c:	2023      	movs	r0, #35	; 0x23
  40136e:	4b1c      	ldr	r3, [pc, #112]	; (4013e0 <ssd1306_write_command+0x80>)
  401370:	4798      	blx	r3
	
	spi_set_peripheral_chip_select_value(SPI0, 1);
  401372:	2101      	movs	r1, #1
  401374:	481b      	ldr	r0, [pc, #108]	; (4013e4 <ssd1306_write_command+0x84>)
  401376:	4b1c      	ldr	r3, [pc, #112]	; (4013e8 <ssd1306_write_command+0x88>)
  401378:	4798      	blx	r3
	spi_write(SPI0, command, 1, 1);
  40137a:	79fb      	ldrb	r3, [r7, #7]
  40137c:	b299      	uxth	r1, r3
  40137e:	2301      	movs	r3, #1
  401380:	2201      	movs	r2, #1
  401382:	4818      	ldr	r0, [pc, #96]	; (4013e4 <ssd1306_write_command+0x84>)
  401384:	4c19      	ldr	r4, [pc, #100]	; (4013ec <ssd1306_write_command+0x8c>)
  401386:	47a0      	blx	r4
	delay_us(10);
  401388:	4b19      	ldr	r3, [pc, #100]	; (4013f0 <ssd1306_write_command+0x90>)
  40138a:	4798      	blx	r3
  40138c:	4603      	mov	r3, r0
  40138e:	4619      	mov	r1, r3
  401390:	f04f 0200 	mov.w	r2, #0
  401394:	460b      	mov	r3, r1
  401396:	4614      	mov	r4, r2
  401398:	00a6      	lsls	r6, r4, #2
  40139a:	ea46 7693 	orr.w	r6, r6, r3, lsr #30
  40139e:	009d      	lsls	r5, r3, #2
  4013a0:	462b      	mov	r3, r5
  4013a2:	4634      	mov	r4, r6
  4013a4:	185b      	adds	r3, r3, r1
  4013a6:	eb44 0402 	adc.w	r4, r4, r2
  4013aa:	18db      	adds	r3, r3, r3
  4013ac:	eb44 0404 	adc.w	r4, r4, r4
  4013b0:	4619      	mov	r1, r3
  4013b2:	4622      	mov	r2, r4
  4013b4:	4b0f      	ldr	r3, [pc, #60]	; (4013f4 <ssd1306_write_command+0x94>)
  4013b6:	f04f 0400 	mov.w	r4, #0
  4013ba:	18cd      	adds	r5, r1, r3
  4013bc:	eb42 0604 	adc.w	r6, r2, r4
  4013c0:	4628      	mov	r0, r5
  4013c2:	4631      	mov	r1, r6
  4013c4:	4c0c      	ldr	r4, [pc, #48]	; (4013f8 <ssd1306_write_command+0x98>)
  4013c6:	4a0d      	ldr	r2, [pc, #52]	; (4013fc <ssd1306_write_command+0x9c>)
  4013c8:	f04f 0300 	mov.w	r3, #0
  4013cc:	47a0      	blx	r4
  4013ce:	4603      	mov	r3, r0
  4013d0:	460c      	mov	r4, r1
  4013d2:	4618      	mov	r0, r3
  4013d4:	4b0a      	ldr	r3, [pc, #40]	; (401400 <ssd1306_write_command+0xa0>)
  4013d6:	4798      	blx	r3
}
  4013d8:	bf00      	nop
  4013da:	370c      	adds	r7, #12
  4013dc:	46bd      	mov	sp, r7
  4013de:	bdf0      	pop	{r4, r5, r6, r7, pc}
  4013e0:	00400f51 	.word	0x00400f51
  4013e4:	40008000 	.word	0x40008000
  4013e8:	004003d1 	.word	0x004003d1
  4013ec:	00400405 	.word	0x00400405
  4013f0:	00400d39 	.word	0x00400d39
  4013f4:	005a83df 	.word	0x005a83df
  4013f8:	00402fc9 	.word	0x00402fc9
  4013fc:	005a83e0 	.word	0x005a83e0
  401400:	20400001 	.word	0x20400001

00401404 <ssd1306_write_data>:
 * data write function is called based on the selected interface.
 *
 * \param data the data to write
 */
void ssd1306_write_data(uint8_t data)
{
  401404:	b5f0      	push	{r4, r5, r6, r7, lr}
  401406:	b083      	sub	sp, #12
  401408:	af00      	add	r7, sp, #0
  40140a:	4603      	mov	r3, r0
  40140c:	71fb      	strb	r3, [r7, #7]
	ioport_set_pin_level(SSD1306_DC_PIN, true);
  40140e:	2101      	movs	r1, #1
  401410:	2023      	movs	r0, #35	; 0x23
  401412:	4b1c      	ldr	r3, [pc, #112]	; (401484 <ssd1306_write_data+0x80>)
  401414:	4798      	blx	r3
	
	spi_set_peripheral_chip_select_value(SPI0, 1);
  401416:	2101      	movs	r1, #1
  401418:	481b      	ldr	r0, [pc, #108]	; (401488 <ssd1306_write_data+0x84>)
  40141a:	4b1c      	ldr	r3, [pc, #112]	; (40148c <ssd1306_write_data+0x88>)
  40141c:	4798      	blx	r3
	spi_write(SPI0, data, 1, 1);
  40141e:	79fb      	ldrb	r3, [r7, #7]
  401420:	b299      	uxth	r1, r3
  401422:	2301      	movs	r3, #1
  401424:	2201      	movs	r2, #1
  401426:	4818      	ldr	r0, [pc, #96]	; (401488 <ssd1306_write_data+0x84>)
  401428:	4c19      	ldr	r4, [pc, #100]	; (401490 <ssd1306_write_data+0x8c>)
  40142a:	47a0      	blx	r4
	delay_us(10);
  40142c:	4b19      	ldr	r3, [pc, #100]	; (401494 <ssd1306_write_data+0x90>)
  40142e:	4798      	blx	r3
  401430:	4603      	mov	r3, r0
  401432:	4619      	mov	r1, r3
  401434:	f04f 0200 	mov.w	r2, #0
  401438:	460b      	mov	r3, r1
  40143a:	4614      	mov	r4, r2
  40143c:	00a6      	lsls	r6, r4, #2
  40143e:	ea46 7693 	orr.w	r6, r6, r3, lsr #30
  401442:	009d      	lsls	r5, r3, #2
  401444:	462b      	mov	r3, r5
  401446:	4634      	mov	r4, r6
  401448:	185b      	adds	r3, r3, r1
  40144a:	eb44 0402 	adc.w	r4, r4, r2
  40144e:	18db      	adds	r3, r3, r3
  401450:	eb44 0404 	adc.w	r4, r4, r4
  401454:	4619      	mov	r1, r3
  401456:	4622      	mov	r2, r4
  401458:	4b0f      	ldr	r3, [pc, #60]	; (401498 <ssd1306_write_data+0x94>)
  40145a:	f04f 0400 	mov.w	r4, #0
  40145e:	18cd      	adds	r5, r1, r3
  401460:	eb42 0604 	adc.w	r6, r2, r4
  401464:	4628      	mov	r0, r5
  401466:	4631      	mov	r1, r6
  401468:	4c0c      	ldr	r4, [pc, #48]	; (40149c <ssd1306_write_data+0x98>)
  40146a:	4a0d      	ldr	r2, [pc, #52]	; (4014a0 <ssd1306_write_data+0x9c>)
  40146c:	f04f 0300 	mov.w	r3, #0
  401470:	47a0      	blx	r4
  401472:	4603      	mov	r3, r0
  401474:	460c      	mov	r4, r1
  401476:	4618      	mov	r0, r3
  401478:	4b0a      	ldr	r3, [pc, #40]	; (4014a4 <ssd1306_write_data+0xa0>)
  40147a:	4798      	blx	r3
}
  40147c:	bf00      	nop
  40147e:	370c      	adds	r7, #12
  401480:	46bd      	mov	sp, r7
  401482:	bdf0      	pop	{r4, r5, r6, r7, pc}
  401484:	00400f51 	.word	0x00400f51
  401488:	40008000 	.word	0x40008000
  40148c:	004003d1 	.word	0x004003d1
  401490:	00400405 	.word	0x00400405
  401494:	00400d39 	.word	0x00400d39
  401498:	005a83df 	.word	0x005a83df
  40149c:	00402fc9 	.word	0x00402fc9
  4014a0:	005a83e0 	.word	0x005a83e0
  4014a4:	20400001 	.word	0x20400001

004014a8 <osc_enable>:
{
  4014a8:	b580      	push	{r7, lr}
  4014aa:	b082      	sub	sp, #8
  4014ac:	af00      	add	r7, sp, #0
  4014ae:	6078      	str	r0, [r7, #4]
	switch (ul_id) {
  4014b0:	687b      	ldr	r3, [r7, #4]
  4014b2:	2b07      	cmp	r3, #7
  4014b4:	d831      	bhi.n	40151a <osc_enable+0x72>
  4014b6:	a201      	add	r2, pc, #4	; (adr r2, 4014bc <osc_enable+0x14>)
  4014b8:	f852 f023 	ldr.w	pc, [r2, r3, lsl #2]
  4014bc:	00401519 	.word	0x00401519
  4014c0:	004014dd 	.word	0x004014dd
  4014c4:	004014e5 	.word	0x004014e5
  4014c8:	004014ed 	.word	0x004014ed
  4014cc:	004014f5 	.word	0x004014f5
  4014d0:	004014fd 	.word	0x004014fd
  4014d4:	00401505 	.word	0x00401505
  4014d8:	0040150f 	.word	0x0040150f
		pmc_switch_sclk_to_32kxtal(PMC_OSC_XTAL);
  4014dc:	2000      	movs	r0, #0
  4014de:	4b11      	ldr	r3, [pc, #68]	; (401524 <osc_enable+0x7c>)
  4014e0:	4798      	blx	r3
		break;
  4014e2:	e01a      	b.n	40151a <osc_enable+0x72>
		pmc_switch_sclk_to_32kxtal(PMC_OSC_BYPASS);
  4014e4:	2001      	movs	r0, #1
  4014e6:	4b0f      	ldr	r3, [pc, #60]	; (401524 <osc_enable+0x7c>)
  4014e8:	4798      	blx	r3
		break;
  4014ea:	e016      	b.n	40151a <osc_enable+0x72>
		pmc_switch_mainck_to_fastrc(CKGR_MOR_MOSCRCF_4_MHz);
  4014ec:	2000      	movs	r0, #0
  4014ee:	4b0e      	ldr	r3, [pc, #56]	; (401528 <osc_enable+0x80>)
  4014f0:	4798      	blx	r3
		break;
  4014f2:	e012      	b.n	40151a <osc_enable+0x72>
		pmc_switch_mainck_to_fastrc(CKGR_MOR_MOSCRCF_8_MHz);
  4014f4:	2010      	movs	r0, #16
  4014f6:	4b0c      	ldr	r3, [pc, #48]	; (401528 <osc_enable+0x80>)
  4014f8:	4798      	blx	r3
		break;
  4014fa:	e00e      	b.n	40151a <osc_enable+0x72>
		pmc_switch_mainck_to_fastrc(CKGR_MOR_MOSCRCF_12_MHz);
  4014fc:	2020      	movs	r0, #32
  4014fe:	4b0a      	ldr	r3, [pc, #40]	; (401528 <osc_enable+0x80>)
  401500:	4798      	blx	r3
		break;
  401502:	e00a      	b.n	40151a <osc_enable+0x72>
		pmc_switch_mainck_to_xtal(PMC_OSC_XTAL,
  401504:	213e      	movs	r1, #62	; 0x3e
  401506:	2000      	movs	r0, #0
  401508:	4b08      	ldr	r3, [pc, #32]	; (40152c <osc_enable+0x84>)
  40150a:	4798      	blx	r3
		break;
  40150c:	e005      	b.n	40151a <osc_enable+0x72>
		pmc_switch_mainck_to_xtal(PMC_OSC_BYPASS,
  40150e:	213e      	movs	r1, #62	; 0x3e
  401510:	2001      	movs	r0, #1
  401512:	4b06      	ldr	r3, [pc, #24]	; (40152c <osc_enable+0x84>)
  401514:	4798      	blx	r3
		break;
  401516:	e000      	b.n	40151a <osc_enable+0x72>
		break;
  401518:	bf00      	nop
}
  40151a:	bf00      	nop
  40151c:	3708      	adds	r7, #8
  40151e:	46bd      	mov	sp, r7
  401520:	bd80      	pop	{r7, pc}
  401522:	bf00      	nop
  401524:	004023fd 	.word	0x004023fd
  401528:	00402469 	.word	0x00402469
  40152c:	004024d9 	.word	0x004024d9

00401530 <osc_is_ready>:
{
  401530:	b580      	push	{r7, lr}
  401532:	b082      	sub	sp, #8
  401534:	af00      	add	r7, sp, #0
  401536:	6078      	str	r0, [r7, #4]
	switch (ul_id) {
  401538:	687b      	ldr	r3, [r7, #4]
  40153a:	2b07      	cmp	r3, #7
  40153c:	d826      	bhi.n	40158c <osc_is_ready+0x5c>
  40153e:	a201      	add	r2, pc, #4	; (adr r2, 401544 <osc_is_ready+0x14>)
  401540:	f852 f023 	ldr.w	pc, [r2, r3, lsl #2]
  401544:	00401565 	.word	0x00401565
  401548:	00401569 	.word	0x00401569
  40154c:	00401569 	.word	0x00401569
  401550:	0040157b 	.word	0x0040157b
  401554:	0040157b 	.word	0x0040157b
  401558:	0040157b 	.word	0x0040157b
  40155c:	0040157b 	.word	0x0040157b
  401560:	0040157b 	.word	0x0040157b
		return 1;
  401564:	2301      	movs	r3, #1
  401566:	e012      	b.n	40158e <osc_is_ready+0x5e>
		return pmc_osc_is_ready_32kxtal();
  401568:	4b0b      	ldr	r3, [pc, #44]	; (401598 <osc_is_ready+0x68>)
  40156a:	4798      	blx	r3
  40156c:	4603      	mov	r3, r0
  40156e:	2b00      	cmp	r3, #0
  401570:	bf14      	ite	ne
  401572:	2301      	movne	r3, #1
  401574:	2300      	moveq	r3, #0
  401576:	b2db      	uxtb	r3, r3
  401578:	e009      	b.n	40158e <osc_is_ready+0x5e>
		return pmc_osc_is_ready_mainck();
  40157a:	4b08      	ldr	r3, [pc, #32]	; (40159c <osc_is_ready+0x6c>)
  40157c:	4798      	blx	r3
  40157e:	4603      	mov	r3, r0
  401580:	2b00      	cmp	r3, #0
  401582:	bf14      	ite	ne
  401584:	2301      	movne	r3, #1
  401586:	2300      	moveq	r3, #0
  401588:	b2db      	uxtb	r3, r3
  40158a:	e000      	b.n	40158e <osc_is_ready+0x5e>
	return 0;
  40158c:	2300      	movs	r3, #0
}
  40158e:	4618      	mov	r0, r3
  401590:	3708      	adds	r7, #8
  401592:	46bd      	mov	sp, r7
  401594:	bd80      	pop	{r7, pc}
  401596:	bf00      	nop
  401598:	00402435 	.word	0x00402435
  40159c:	00402551 	.word	0x00402551

004015a0 <osc_get_rate>:
{
  4015a0:	b480      	push	{r7}
  4015a2:	b083      	sub	sp, #12
  4015a4:	af00      	add	r7, sp, #0
  4015a6:	6078      	str	r0, [r7, #4]
	switch (ul_id) {
  4015a8:	687b      	ldr	r3, [r7, #4]
  4015aa:	2b07      	cmp	r3, #7
  4015ac:	d825      	bhi.n	4015fa <osc_get_rate+0x5a>
  4015ae:	a201      	add	r2, pc, #4	; (adr r2, 4015b4 <osc_get_rate+0x14>)
  4015b0:	f852 f023 	ldr.w	pc, [r2, r3, lsl #2]
  4015b4:	004015d5 	.word	0x004015d5
  4015b8:	004015db 	.word	0x004015db
  4015bc:	004015e1 	.word	0x004015e1
  4015c0:	004015e7 	.word	0x004015e7
  4015c4:	004015eb 	.word	0x004015eb
  4015c8:	004015ef 	.word	0x004015ef
  4015cc:	004015f3 	.word	0x004015f3
  4015d0:	004015f7 	.word	0x004015f7
		return OSC_SLCK_32K_RC_HZ;
  4015d4:	f44f 43fa 	mov.w	r3, #32000	; 0x7d00
  4015d8:	e010      	b.n	4015fc <osc_get_rate+0x5c>
		return BOARD_FREQ_SLCK_XTAL;
  4015da:	f44f 4300 	mov.w	r3, #32768	; 0x8000
  4015de:	e00d      	b.n	4015fc <osc_get_rate+0x5c>
		return BOARD_FREQ_SLCK_BYPASS;
  4015e0:	f44f 4300 	mov.w	r3, #32768	; 0x8000
  4015e4:	e00a      	b.n	4015fc <osc_get_rate+0x5c>
		return OSC_MAINCK_4M_RC_HZ;
  4015e6:	4b08      	ldr	r3, [pc, #32]	; (401608 <osc_get_rate+0x68>)
  4015e8:	e008      	b.n	4015fc <osc_get_rate+0x5c>
		return OSC_MAINCK_8M_RC_HZ;
  4015ea:	4b08      	ldr	r3, [pc, #32]	; (40160c <osc_get_rate+0x6c>)
  4015ec:	e006      	b.n	4015fc <osc_get_rate+0x5c>
		return OSC_MAINCK_12M_RC_HZ;
  4015ee:	4b08      	ldr	r3, [pc, #32]	; (401610 <osc_get_rate+0x70>)
  4015f0:	e004      	b.n	4015fc <osc_get_rate+0x5c>
		return BOARD_FREQ_MAINCK_XTAL;
  4015f2:	4b07      	ldr	r3, [pc, #28]	; (401610 <osc_get_rate+0x70>)
  4015f4:	e002      	b.n	4015fc <osc_get_rate+0x5c>
		return BOARD_FREQ_MAINCK_BYPASS;
  4015f6:	4b06      	ldr	r3, [pc, #24]	; (401610 <osc_get_rate+0x70>)
  4015f8:	e000      	b.n	4015fc <osc_get_rate+0x5c>
	return 0;
  4015fa:	2300      	movs	r3, #0
}
  4015fc:	4618      	mov	r0, r3
  4015fe:	370c      	adds	r7, #12
  401600:	46bd      	mov	sp, r7
  401602:	f85d 7b04 	ldr.w	r7, [sp], #4
  401606:	4770      	bx	lr
  401608:	003d0900 	.word	0x003d0900
  40160c:	007a1200 	.word	0x007a1200
  401610:	00b71b00 	.word	0x00b71b00

00401614 <osc_wait_ready>:
 * to become stable and ready to use as a clock source.
 *
 * \param id A number identifying the oscillator to wait for.
 */
static inline void osc_wait_ready(uint8_t id)
{
  401614:	b580      	push	{r7, lr}
  401616:	b082      	sub	sp, #8
  401618:	af00      	add	r7, sp, #0
  40161a:	4603      	mov	r3, r0
  40161c:	71fb      	strb	r3, [r7, #7]
	while (!osc_is_ready(id)) {
  40161e:	bf00      	nop
  401620:	79fb      	ldrb	r3, [r7, #7]
  401622:	4618      	mov	r0, r3
  401624:	4b05      	ldr	r3, [pc, #20]	; (40163c <osc_wait_ready+0x28>)
  401626:	4798      	blx	r3
  401628:	4603      	mov	r3, r0
  40162a:	f083 0301 	eor.w	r3, r3, #1
  40162e:	b2db      	uxtb	r3, r3
  401630:	2b00      	cmp	r3, #0
  401632:	d1f5      	bne.n	401620 <osc_wait_ready+0xc>
		/* Do nothing */
	}
}
  401634:	bf00      	nop
  401636:	3708      	adds	r7, #8
  401638:	46bd      	mov	sp, r7
  40163a:	bd80      	pop	{r7, pc}
  40163c:	00401531 	.word	0x00401531

00401640 <pll_config_init>:
 * hardware mul+1 is hidden in this implementation. Use mul as mul effective
 * value.
 */
static inline void pll_config_init(struct pll_config *p_cfg,
		enum pll_source e_src, uint32_t ul_div, uint32_t ul_mul)
{
  401640:	b580      	push	{r7, lr}
  401642:	b086      	sub	sp, #24
  401644:	af00      	add	r7, sp, #0
  401646:	60f8      	str	r0, [r7, #12]
  401648:	607a      	str	r2, [r7, #4]
  40164a:	603b      	str	r3, [r7, #0]
  40164c:	460b      	mov	r3, r1
  40164e:	72fb      	strb	r3, [r7, #11]
	uint32_t vco_hz;

	Assert(e_src < PLL_NR_SOURCES);

	if (ul_div == 0 && ul_mul == 0) { /* Must only be true for UTMI PLL */
  401650:	687b      	ldr	r3, [r7, #4]
  401652:	2b00      	cmp	r3, #0
  401654:	d107      	bne.n	401666 <pll_config_init+0x26>
  401656:	683b      	ldr	r3, [r7, #0]
  401658:	2b00      	cmp	r3, #0
  40165a:	d104      	bne.n	401666 <pll_config_init+0x26>
		p_cfg->ctrl = CKGR_UCKR_UPLLCOUNT(PLL_COUNT);
  40165c:	68fb      	ldr	r3, [r7, #12]
  40165e:	f44f 0270 	mov.w	r2, #15728640	; 0xf00000
  401662:	601a      	str	r2, [r3, #0]
  401664:	e019      	b.n	40169a <pll_config_init+0x5a>
	} else { /* PLLA */
	/* Calculate internal VCO frequency */
	vco_hz = osc_get_rate(e_src) / ul_div;
  401666:	7afb      	ldrb	r3, [r7, #11]
  401668:	4618      	mov	r0, r3
  40166a:	4b0e      	ldr	r3, [pc, #56]	; (4016a4 <pll_config_init+0x64>)
  40166c:	4798      	blx	r3
  40166e:	4602      	mov	r2, r0
  401670:	687b      	ldr	r3, [r7, #4]
  401672:	fbb2 f3f3 	udiv	r3, r2, r3
  401676:	617b      	str	r3, [r7, #20]
	Assert(vco_hz >= PLL_INPUT_MIN_HZ);
	Assert(vco_hz <= PLL_INPUT_MAX_HZ);

	vco_hz *= ul_mul;
  401678:	697b      	ldr	r3, [r7, #20]
  40167a:	683a      	ldr	r2, [r7, #0]
  40167c:	fb02 f303 	mul.w	r3, r2, r3
  401680:	617b      	str	r3, [r7, #20]
	Assert(vco_hz >= PLL_OUTPUT_MIN_HZ);
	Assert(vco_hz <= PLL_OUTPUT_MAX_HZ);

	/* PMC hardware will automatically make it mul+1 */
		p_cfg->ctrl = CKGR_PLLAR_MULA(ul_mul - 1) | CKGR_PLLAR_DIVA(ul_div)  \
  401682:	683b      	ldr	r3, [r7, #0]
  401684:	3b01      	subs	r3, #1
  401686:	041a      	lsls	r2, r3, #16
  401688:	4b07      	ldr	r3, [pc, #28]	; (4016a8 <pll_config_init+0x68>)
  40168a:	4013      	ands	r3, r2
  40168c:	687a      	ldr	r2, [r7, #4]
  40168e:	b2d2      	uxtb	r2, r2
  401690:	4313      	orrs	r3, r2
		| CKGR_PLLAR_PLLACOUNT(PLL_COUNT);
  401692:	f443 527c 	orr.w	r2, r3, #16128	; 0x3f00
		p_cfg->ctrl = CKGR_PLLAR_MULA(ul_mul - 1) | CKGR_PLLAR_DIVA(ul_div)  \
  401696:	68fb      	ldr	r3, [r7, #12]
  401698:	601a      	str	r2, [r3, #0]
	}
}
  40169a:	bf00      	nop
  40169c:	3718      	adds	r7, #24
  40169e:	46bd      	mov	sp, r7
  4016a0:	bd80      	pop	{r7, pc}
  4016a2:	bf00      	nop
  4016a4:	004015a1 	.word	0x004015a1
  4016a8:	07ff0000 	.word	0x07ff0000

004016ac <pll_enable>:
		PMC->CKGR_UCKR = p_cfg->ctrl;
	}
}

static inline void pll_enable(const struct pll_config *p_cfg, uint32_t ul_pll_id)
{
  4016ac:	b580      	push	{r7, lr}
  4016ae:	b082      	sub	sp, #8
  4016b0:	af00      	add	r7, sp, #0
  4016b2:	6078      	str	r0, [r7, #4]
  4016b4:	6039      	str	r1, [r7, #0]
	Assert(ul_pll_id < NR_PLLS);

	if (ul_pll_id == PLLA_ID) {
  4016b6:	683b      	ldr	r3, [r7, #0]
  4016b8:	2b00      	cmp	r3, #0
  4016ba:	d108      	bne.n	4016ce <pll_enable+0x22>
		pmc_disable_pllack(); // Always stop PLL first!
  4016bc:	4b09      	ldr	r3, [pc, #36]	; (4016e4 <pll_enable+0x38>)
  4016be:	4798      	blx	r3
		PMC->CKGR_PLLAR = CKGR_PLLAR_ONE | p_cfg->ctrl;
  4016c0:	4a09      	ldr	r2, [pc, #36]	; (4016e8 <pll_enable+0x3c>)
  4016c2:	687b      	ldr	r3, [r7, #4]
  4016c4:	681b      	ldr	r3, [r3, #0]
  4016c6:	f043 5300 	orr.w	r3, r3, #536870912	; 0x20000000
  4016ca:	6293      	str	r3, [r2, #40]	; 0x28
	} else {
		PMC->CKGR_UCKR = p_cfg->ctrl | CKGR_UCKR_UPLLEN;
	}
}
  4016cc:	e005      	b.n	4016da <pll_enable+0x2e>
		PMC->CKGR_UCKR = p_cfg->ctrl | CKGR_UCKR_UPLLEN;
  4016ce:	4a06      	ldr	r2, [pc, #24]	; (4016e8 <pll_enable+0x3c>)
  4016d0:	687b      	ldr	r3, [r7, #4]
  4016d2:	681b      	ldr	r3, [r3, #0]
  4016d4:	f443 3380 	orr.w	r3, r3, #65536	; 0x10000
  4016d8:	61d3      	str	r3, [r2, #28]
}
  4016da:	bf00      	nop
  4016dc:	3708      	adds	r7, #8
  4016de:	46bd      	mov	sp, r7
  4016e0:	bd80      	pop	{r7, pc}
  4016e2:	bf00      	nop
  4016e4:	0040256d 	.word	0x0040256d
  4016e8:	400e0600 	.word	0x400e0600

004016ec <pll_is_locked>:
		PMC->CKGR_UCKR &= ~CKGR_UCKR_UPLLEN;
	}
}

static inline uint32_t pll_is_locked(uint32_t ul_pll_id)
{
  4016ec:	b580      	push	{r7, lr}
  4016ee:	b082      	sub	sp, #8
  4016f0:	af00      	add	r7, sp, #0
  4016f2:	6078      	str	r0, [r7, #4]
	Assert(ul_pll_id < NR_PLLS);

	if (ul_pll_id == PLLA_ID) {
  4016f4:	687b      	ldr	r3, [r7, #4]
  4016f6:	2b00      	cmp	r3, #0
  4016f8:	d103      	bne.n	401702 <pll_is_locked+0x16>
	return pmc_is_locked_pllack();
  4016fa:	4b05      	ldr	r3, [pc, #20]	; (401710 <pll_is_locked+0x24>)
  4016fc:	4798      	blx	r3
  4016fe:	4603      	mov	r3, r0
  401700:	e002      	b.n	401708 <pll_is_locked+0x1c>
	} else {
		return pmc_is_locked_upll();
  401702:	4b04      	ldr	r3, [pc, #16]	; (401714 <pll_is_locked+0x28>)
  401704:	4798      	blx	r3
  401706:	4603      	mov	r3, r0
	}
}
  401708:	4618      	mov	r0, r3
  40170a:	3708      	adds	r7, #8
  40170c:	46bd      	mov	sp, r7
  40170e:	bd80      	pop	{r7, pc}
  401710:	00402589 	.word	0x00402589
  401714:	004025a5 	.word	0x004025a5

00401718 <pll_enable_source>:

static inline void pll_enable_source(enum pll_source e_src)
{
  401718:	b580      	push	{r7, lr}
  40171a:	b082      	sub	sp, #8
  40171c:	af00      	add	r7, sp, #0
  40171e:	4603      	mov	r3, r0
  401720:	71fb      	strb	r3, [r7, #7]
	switch (e_src) {
  401722:	79fb      	ldrb	r3, [r7, #7]
  401724:	3b03      	subs	r3, #3
  401726:	2b04      	cmp	r3, #4
  401728:	d808      	bhi.n	40173c <pll_enable_source+0x24>
	case PLL_SRC_MAINCK_4M_RC:
	case PLL_SRC_MAINCK_8M_RC:
	case PLL_SRC_MAINCK_12M_RC:
	case PLL_SRC_MAINCK_XTAL:
	case PLL_SRC_MAINCK_BYPASS:
		osc_enable(e_src);
  40172a:	79fb      	ldrb	r3, [r7, #7]
  40172c:	4618      	mov	r0, r3
  40172e:	4b06      	ldr	r3, [pc, #24]	; (401748 <pll_enable_source+0x30>)
  401730:	4798      	blx	r3
		osc_wait_ready(e_src);
  401732:	79fb      	ldrb	r3, [r7, #7]
  401734:	4618      	mov	r0, r3
  401736:	4b05      	ldr	r3, [pc, #20]	; (40174c <pll_enable_source+0x34>)
  401738:	4798      	blx	r3
		break;
  40173a:	e000      	b.n	40173e <pll_enable_source+0x26>

	default:
		Assert(false);
		break;
  40173c:	bf00      	nop
	}
}
  40173e:	bf00      	nop
  401740:	3708      	adds	r7, #8
  401742:	46bd      	mov	sp, r7
  401744:	bd80      	pop	{r7, pc}
  401746:	bf00      	nop
  401748:	004014a9 	.word	0x004014a9
  40174c:	00401615 	.word	0x00401615

00401750 <pll_wait_for_lock>:
 *
 * \retval STATUS_OK The PLL is now locked.
 * \retval ERR_TIMEOUT Timed out waiting for PLL to become locked.
 */
static inline int pll_wait_for_lock(unsigned int pll_id)
{
  401750:	b580      	push	{r7, lr}
  401752:	b082      	sub	sp, #8
  401754:	af00      	add	r7, sp, #0
  401756:	6078      	str	r0, [r7, #4]
	Assert(pll_id < NR_PLLS);

	while (!pll_is_locked(pll_id)) {
  401758:	bf00      	nop
  40175a:	6878      	ldr	r0, [r7, #4]
  40175c:	4b04      	ldr	r3, [pc, #16]	; (401770 <pll_wait_for_lock+0x20>)
  40175e:	4798      	blx	r3
  401760:	4603      	mov	r3, r0
  401762:	2b00      	cmp	r3, #0
  401764:	d0f9      	beq.n	40175a <pll_wait_for_lock+0xa>
		/* Do nothing */
	}

	return 0;
  401766:	2300      	movs	r3, #0
}
  401768:	4618      	mov	r0, r3
  40176a:	3708      	adds	r7, #8
  40176c:	46bd      	mov	sp, r7
  40176e:	bd80      	pop	{r7, pc}
  401770:	004016ed 	.word	0x004016ed

00401774 <sysclk_get_main_hz>:
{
  401774:	b580      	push	{r7, lr}
  401776:	af00      	add	r7, sp, #0
		return pll_get_default_rate(0);
  401778:	2006      	movs	r0, #6
  40177a:	4b05      	ldr	r3, [pc, #20]	; (401790 <sysclk_get_main_hz+0x1c>)
  40177c:	4798      	blx	r3
  40177e:	4602      	mov	r2, r0
  401780:	4613      	mov	r3, r2
  401782:	009b      	lsls	r3, r3, #2
  401784:	4413      	add	r3, r2
  401786:	009a      	lsls	r2, r3, #2
  401788:	4413      	add	r3, r2
}
  40178a:	4618      	mov	r0, r3
  40178c:	bd80      	pop	{r7, pc}
  40178e:	bf00      	nop
  401790:	004015a1 	.word	0x004015a1

00401794 <sysclk_get_cpu_hz>:
{
  401794:	b580      	push	{r7, lr}
  401796:	af00      	add	r7, sp, #0
	return sysclk_get_main_hz() /
  401798:	4b02      	ldr	r3, [pc, #8]	; (4017a4 <sysclk_get_cpu_hz+0x10>)
  40179a:	4798      	blx	r3
  40179c:	4603      	mov	r3, r0
}
  40179e:	4618      	mov	r0, r3
  4017a0:	bd80      	pop	{r7, pc}
  4017a2:	bf00      	nop
  4017a4:	00401775 	.word	0x00401775

004017a8 <sysclk_init>:
	pmc_disable_udpck();
}
#endif // CONFIG_USBCLK_SOURCE

void sysclk_init(void)
{
  4017a8:	b590      	push	{r4, r7, lr}
  4017aa:	b083      	sub	sp, #12
  4017ac:	af00      	add	r7, sp, #0
	struct pll_config pllcfg;

	/* Set flash wait state to max in case the below clock switching. */
	system_init_flash(CHIP_FREQ_CPU_MAX);
  4017ae:	4813      	ldr	r0, [pc, #76]	; (4017fc <sysclk_init+0x54>)
  4017b0:	4b13      	ldr	r3, [pc, #76]	; (401800 <sysclk_init+0x58>)
  4017b2:	4798      	blx	r3
		pmc_switch_mck_to_mainck(CONFIG_SYSCLK_PRES);
	}

#ifdef CONFIG_PLL0_SOURCE
	else if (CONFIG_SYSCLK_SOURCE == SYSCLK_SRC_PLLACK) {
		pll_enable_source(CONFIG_PLL0_SOURCE);
  4017b4:	2006      	movs	r0, #6
  4017b6:	4b13      	ldr	r3, [pc, #76]	; (401804 <sysclk_init+0x5c>)
  4017b8:	4798      	blx	r3
		pll_config_defaults(&pllcfg, 0);
  4017ba:	1d38      	adds	r0, r7, #4
  4017bc:	2319      	movs	r3, #25
  4017be:	2201      	movs	r2, #1
  4017c0:	2106      	movs	r1, #6
  4017c2:	4c11      	ldr	r4, [pc, #68]	; (401808 <sysclk_init+0x60>)
  4017c4:	47a0      	blx	r4
		pll_enable(&pllcfg, 0);
  4017c6:	1d3b      	adds	r3, r7, #4
  4017c8:	2100      	movs	r1, #0
  4017ca:	4618      	mov	r0, r3
  4017cc:	4b0f      	ldr	r3, [pc, #60]	; (40180c <sysclk_init+0x64>)
  4017ce:	4798      	blx	r3
		pll_wait_for_lock(0);
  4017d0:	2000      	movs	r0, #0
  4017d2:	4b0f      	ldr	r3, [pc, #60]	; (401810 <sysclk_init+0x68>)
  4017d4:	4798      	blx	r3
		pmc_mck_set_division(CONFIG_SYSCLK_DIV);
  4017d6:	2002      	movs	r0, #2
  4017d8:	4b0e      	ldr	r3, [pc, #56]	; (401814 <sysclk_init+0x6c>)
  4017da:	4798      	blx	r3
		pmc_switch_mck_to_pllack(CONFIG_SYSCLK_PRES);
  4017dc:	2000      	movs	r0, #0
  4017de:	4b0e      	ldr	r3, [pc, #56]	; (401818 <sysclk_init+0x70>)
  4017e0:	4798      	blx	r3
		pll_wait_for_lock(1);
		pmc_mck_set_division(CONFIG_SYSCLK_DIV);
		pmc_switch_mck_to_upllck(CONFIG_SYSCLK_PRES);
	}
	/* Update the SystemFrequency variable */
	SystemCoreClockUpdate();
  4017e2:	4b0e      	ldr	r3, [pc, #56]	; (40181c <sysclk_init+0x74>)
  4017e4:	4798      	blx	r3

	/* Set a flash wait state depending on the new cpu frequency */
	system_init_flash(sysclk_get_cpu_hz());
  4017e6:	4b0e      	ldr	r3, [pc, #56]	; (401820 <sysclk_init+0x78>)
  4017e8:	4798      	blx	r3
  4017ea:	4603      	mov	r3, r0
  4017ec:	4618      	mov	r0, r3
  4017ee:	4b04      	ldr	r3, [pc, #16]	; (401800 <sysclk_init+0x58>)
  4017f0:	4798      	blx	r3

#if (defined CONFIG_SYSCLK_DEFAULT_RETURNS_SLOW_OSC)
	/* Signal that the internal frequencies are setup */
	sysclk_initialized = 1;
#endif
}
  4017f2:	bf00      	nop
  4017f4:	370c      	adds	r7, #12
  4017f6:	46bd      	mov	sp, r7
  4017f8:	bd90      	pop	{r4, r7, pc}
  4017fa:	bf00      	nop
  4017fc:	11e1a300 	.word	0x11e1a300
  401800:	004028ed 	.word	0x004028ed
  401804:	00401719 	.word	0x00401719
  401808:	00401641 	.word	0x00401641
  40180c:	004016ad 	.word	0x004016ad
  401810:	00401751 	.word	0x00401751
  401814:	004022fd 	.word	0x004022fd
  401818:	00402379 	.word	0x00402379
  40181c:	00402785 	.word	0x00402785
  401820:	00401795 	.word	0x00401795

00401824 <SCB_EnableICache>:
/** \brief Enable I-Cache

    The function turns on I-Cache
  */
__STATIC_INLINE void SCB_EnableICache(void)
{
  401824:	b480      	push	{r7}
  401826:	af00      	add	r7, sp, #0
    This function acts as a special kind of Data Memory Barrier.
    It completes when all explicit memory accesses before this instruction complete.
 */
__attribute__( ( always_inline ) ) __STATIC_INLINE void __DSB(void)
{
  __ASM volatile ("dsb");
  401828:	f3bf 8f4f 	dsb	sy
  __ASM volatile ("isb");
  40182c:	f3bf 8f6f 	isb	sy
  #if (__ICACHE_PRESENT == 1)
    __DSB();
    __ISB();
    SCB->ICIALLU = 0;                       // invalidate I-Cache
  401830:	4b09      	ldr	r3, [pc, #36]	; (401858 <SCB_EnableICache+0x34>)
  401832:	2200      	movs	r2, #0
  401834:	f8c3 2250 	str.w	r2, [r3, #592]	; 0x250
    SCB->CCR |=  SCB_CCR_IC_Msk;            // enable I-Cache
  401838:	4a07      	ldr	r2, [pc, #28]	; (401858 <SCB_EnableICache+0x34>)
  40183a:	4b07      	ldr	r3, [pc, #28]	; (401858 <SCB_EnableICache+0x34>)
  40183c:	695b      	ldr	r3, [r3, #20]
  40183e:	f443 3300 	orr.w	r3, r3, #131072	; 0x20000
  401842:	6153      	str	r3, [r2, #20]
  __ASM volatile ("dsb");
  401844:	f3bf 8f4f 	dsb	sy
  __ASM volatile ("isb");
  401848:	f3bf 8f6f 	isb	sy
    __DSB();
    __ISB();
  #endif
}
  40184c:	bf00      	nop
  40184e:	46bd      	mov	sp, r7
  401850:	f85d 7b04 	ldr.w	r7, [sp], #4
  401854:	4770      	bx	lr
  401856:	bf00      	nop
  401858:	e000ed00 	.word	0xe000ed00

0040185c <SCB_EnableDCache>:
/** \brief Enable D-Cache

    The function turns on D-Cache
  */
__STATIC_INLINE void SCB_EnableDCache(void)
{
  40185c:	b480      	push	{r7}
  40185e:	b08b      	sub	sp, #44	; 0x2c
  401860:	af00      	add	r7, sp, #0
  #if (__DCACHE_PRESENT == 1)
    uint32_t ccsidr, sshift, wshift, sw;
    uint32_t sets, ways;

    ccsidr  = SCB->CCSIDR;
  401862:	4b26      	ldr	r3, [pc, #152]	; (4018fc <SCB_EnableDCache+0xa0>)
  401864:	f8d3 3080 	ldr.w	r3, [r3, #128]	; 0x80
  401868:	61fb      	str	r3, [r7, #28]
    sets    = CCSIDR_SETS(ccsidr);
  40186a:	69fb      	ldr	r3, [r7, #28]
  40186c:	0b5b      	lsrs	r3, r3, #13
  40186e:	f3c3 030e 	ubfx	r3, r3, #0, #15
  401872:	627b      	str	r3, [r7, #36]	; 0x24
    sshift  = CCSIDR_LSSHIFT(ccsidr) + 4;
  401874:	69fb      	ldr	r3, [r7, #28]
  401876:	f003 0307 	and.w	r3, r3, #7
  40187a:	3304      	adds	r3, #4
  40187c:	61bb      	str	r3, [r7, #24]
    ways    = CCSIDR_WAYS(ccsidr);
  40187e:	69fb      	ldr	r3, [r7, #28]
  401880:	08db      	lsrs	r3, r3, #3
  401882:	f3c3 0309 	ubfx	r3, r3, #0, #10
  401886:	617b      	str	r3, [r7, #20]
  401888:	697b      	ldr	r3, [r7, #20]
  40188a:	60bb      	str	r3, [r7, #8]
 */
__attribute__( ( always_inline ) ) __STATIC_INLINE uint8_t __CLZ(uint32_t value)
{
  uint32_t result;

  __ASM volatile ("clz %0, %1" : "=r" (result) : "r" (value) );
  40188c:	68bb      	ldr	r3, [r7, #8]
  40188e:	fab3 f383 	clz	r3, r3
  401892:	607b      	str	r3, [r7, #4]
   return ((uint8_t) result);    /* Add explicit type cast here */
  401894:	687b      	ldr	r3, [r7, #4]
  401896:	b2db      	uxtb	r3, r3
    wshift  = __CLZ(ways) & 0x1f;
  401898:	f003 031f 	and.w	r3, r3, #31
  40189c:	613b      	str	r3, [r7, #16]
  __ASM volatile ("dsb");
  40189e:	f3bf 8f4f 	dsb	sy

    __DSB();

    do {                                    // invalidate D-Cache
         int32_t tmpways = ways;
  4018a2:	697b      	ldr	r3, [r7, #20]
  4018a4:	623b      	str	r3, [r7, #32]
         do {
              sw = ((tmpways << wshift) | (sets << sshift));
  4018a6:	6a3a      	ldr	r2, [r7, #32]
  4018a8:	693b      	ldr	r3, [r7, #16]
  4018aa:	fa02 f303 	lsl.w	r3, r2, r3
  4018ae:	4619      	mov	r1, r3
  4018b0:	6a7a      	ldr	r2, [r7, #36]	; 0x24
  4018b2:	69bb      	ldr	r3, [r7, #24]
  4018b4:	fa02 f303 	lsl.w	r3, r2, r3
  4018b8:	430b      	orrs	r3, r1
  4018ba:	60fb      	str	r3, [r7, #12]
              SCB->DCISW = sw;
  4018bc:	4a0f      	ldr	r2, [pc, #60]	; (4018fc <SCB_EnableDCache+0xa0>)
  4018be:	68fb      	ldr	r3, [r7, #12]
  4018c0:	f8c2 3260 	str.w	r3, [r2, #608]	; 0x260
            } while(tmpways--);
  4018c4:	6a3b      	ldr	r3, [r7, #32]
  4018c6:	1e5a      	subs	r2, r3, #1
  4018c8:	623a      	str	r2, [r7, #32]
  4018ca:	2b00      	cmp	r3, #0
  4018cc:	d1eb      	bne.n	4018a6 <SCB_EnableDCache+0x4a>
        } while(sets--);
  4018ce:	6a7b      	ldr	r3, [r7, #36]	; 0x24
  4018d0:	1e5a      	subs	r2, r3, #1
  4018d2:	627a      	str	r2, [r7, #36]	; 0x24
  4018d4:	2b00      	cmp	r3, #0
  4018d6:	d1e4      	bne.n	4018a2 <SCB_EnableDCache+0x46>
  4018d8:	f3bf 8f4f 	dsb	sy
    __DSB();

    SCB->CCR |=  SCB_CCR_DC_Msk;            // enable D-Cache
  4018dc:	4a07      	ldr	r2, [pc, #28]	; (4018fc <SCB_EnableDCache+0xa0>)
  4018de:	4b07      	ldr	r3, [pc, #28]	; (4018fc <SCB_EnableDCache+0xa0>)
  4018e0:	695b      	ldr	r3, [r3, #20]
  4018e2:	f443 3380 	orr.w	r3, r3, #65536	; 0x10000
  4018e6:	6153      	str	r3, [r2, #20]
  4018e8:	f3bf 8f4f 	dsb	sy
  __ASM volatile ("isb");
  4018ec:	f3bf 8f6f 	isb	sy

    __DSB();
    __ISB();
  #endif
}
  4018f0:	bf00      	nop
  4018f2:	372c      	adds	r7, #44	; 0x2c
  4018f4:	46bd      	mov	sp, r7
  4018f6:	f85d 7b04 	ldr.w	r7, [sp], #4
  4018fa:	4770      	bx	lr
  4018fc:	e000ed00 	.word	0xe000ed00

00401900 <sysclk_enable_peripheral_clock>:
{
  401900:	b580      	push	{r7, lr}
  401902:	b082      	sub	sp, #8
  401904:	af00      	add	r7, sp, #0
  401906:	6078      	str	r0, [r7, #4]
	pmc_enable_periph_clk(ul_id);
  401908:	6878      	ldr	r0, [r7, #4]
  40190a:	4b03      	ldr	r3, [pc, #12]	; (401918 <sysclk_enable_peripheral_clock+0x18>)
  40190c:	4798      	blx	r3
}
  40190e:	bf00      	nop
  401910:	3708      	adds	r7, #8
  401912:	46bd      	mov	sp, r7
  401914:	bd80      	pop	{r7, pc}
  401916:	bf00      	nop
  401918:	004025c1 	.word	0x004025c1

0040191c <ioport_init>:
{
  40191c:	b580      	push	{r7, lr}
  40191e:	af00      	add	r7, sp, #0
	sysclk_enable_peripheral_clock(ID_PIOA);
  401920:	200a      	movs	r0, #10
  401922:	4b08      	ldr	r3, [pc, #32]	; (401944 <ioport_init+0x28>)
  401924:	4798      	blx	r3
	sysclk_enable_peripheral_clock(ID_PIOB);
  401926:	200b      	movs	r0, #11
  401928:	4b06      	ldr	r3, [pc, #24]	; (401944 <ioport_init+0x28>)
  40192a:	4798      	blx	r3
	sysclk_enable_peripheral_clock(ID_PIOC);
  40192c:	200c      	movs	r0, #12
  40192e:	4b05      	ldr	r3, [pc, #20]	; (401944 <ioport_init+0x28>)
  401930:	4798      	blx	r3
	sysclk_enable_peripheral_clock(ID_PIOD);
  401932:	2010      	movs	r0, #16
  401934:	4b03      	ldr	r3, [pc, #12]	; (401944 <ioport_init+0x28>)
  401936:	4798      	blx	r3
	sysclk_enable_peripheral_clock(ID_PIOE);
  401938:	2011      	movs	r0, #17
  40193a:	4b02      	ldr	r3, [pc, #8]	; (401944 <ioport_init+0x28>)
  40193c:	4798      	blx	r3
}
  40193e:	bf00      	nop
  401940:	bd80      	pop	{r7, pc}
  401942:	bf00      	nop
  401944:	00401901 	.word	0x00401901

00401948 <ioport_set_pin_mode>:
{
  401948:	b480      	push	{r7}
  40194a:	b08d      	sub	sp, #52	; 0x34
  40194c:	af00      	add	r7, sp, #0
  40194e:	6078      	str	r0, [r7, #4]
  401950:	6039      	str	r1, [r7, #0]
  401952:	687b      	ldr	r3, [r7, #4]
  401954:	62fb      	str	r3, [r7, #44]	; 0x2c
  401956:	683b      	ldr	r3, [r7, #0]
  401958:	62bb      	str	r3, [r7, #40]	; 0x28
  40195a:	6afb      	ldr	r3, [r7, #44]	; 0x2c
  40195c:	627b      	str	r3, [r7, #36]	; 0x24
	return pin >> 5;
  40195e:	6a7b      	ldr	r3, [r7, #36]	; 0x24
  401960:	095a      	lsrs	r2, r3, #5
  401962:	6afb      	ldr	r3, [r7, #44]	; 0x2c
  401964:	623b      	str	r3, [r7, #32]
	return 1U << (pin & 0x1F);
  401966:	6a3b      	ldr	r3, [r7, #32]
  401968:	f003 031f 	and.w	r3, r3, #31
  40196c:	2101      	movs	r1, #1
  40196e:	fa01 f303 	lsl.w	r3, r1, r3
  401972:	61fa      	str	r2, [r7, #28]
  401974:	61bb      	str	r3, [r7, #24]
  401976:	6abb      	ldr	r3, [r7, #40]	; 0x28
  401978:	617b      	str	r3, [r7, #20]
  40197a:	69fb      	ldr	r3, [r7, #28]
  40197c:	613b      	str	r3, [r7, #16]
	return (Pio *)((uintptr_t)IOPORT_BASE_ADDRESS +
  40197e:	693a      	ldr	r2, [r7, #16]
  401980:	4b37      	ldr	r3, [pc, #220]	; (401a60 <ioport_set_pin_mode+0x118>)
  401982:	4413      	add	r3, r2
  401984:	025b      	lsls	r3, r3, #9
	Pio *base = arch_ioport_port_to_base(port);
  401986:	60fb      	str	r3, [r7, #12]
	if (mode & IOPORT_MODE_PULLUP) {
  401988:	697b      	ldr	r3, [r7, #20]
  40198a:	f003 0308 	and.w	r3, r3, #8
  40198e:	2b00      	cmp	r3, #0
  401990:	d003      	beq.n	40199a <ioport_set_pin_mode+0x52>
		base->PIO_PUER = mask;
  401992:	68fb      	ldr	r3, [r7, #12]
  401994:	69ba      	ldr	r2, [r7, #24]
  401996:	665a      	str	r2, [r3, #100]	; 0x64
  401998:	e002      	b.n	4019a0 <ioport_set_pin_mode+0x58>
		base->PIO_PUDR = mask;
  40199a:	68fb      	ldr	r3, [r7, #12]
  40199c:	69ba      	ldr	r2, [r7, #24]
  40199e:	661a      	str	r2, [r3, #96]	; 0x60
	if (mode & IOPORT_MODE_PULLDOWN) {
  4019a0:	697b      	ldr	r3, [r7, #20]
  4019a2:	f003 0310 	and.w	r3, r3, #16
  4019a6:	2b00      	cmp	r3, #0
  4019a8:	d004      	beq.n	4019b4 <ioport_set_pin_mode+0x6c>
		base->PIO_PPDER = mask;
  4019aa:	68fb      	ldr	r3, [r7, #12]
  4019ac:	69ba      	ldr	r2, [r7, #24]
  4019ae:	f8c3 2094 	str.w	r2, [r3, #148]	; 0x94
  4019b2:	e003      	b.n	4019bc <ioport_set_pin_mode+0x74>
		base->PIO_PPDDR = mask;
  4019b4:	68fb      	ldr	r3, [r7, #12]
  4019b6:	69ba      	ldr	r2, [r7, #24]
  4019b8:	f8c3 2090 	str.w	r2, [r3, #144]	; 0x90
	if (mode & IOPORT_MODE_OPEN_DRAIN) {
  4019bc:	697b      	ldr	r3, [r7, #20]
  4019be:	f003 0320 	and.w	r3, r3, #32
  4019c2:	2b00      	cmp	r3, #0
  4019c4:	d003      	beq.n	4019ce <ioport_set_pin_mode+0x86>
		base->PIO_MDER = mask;
  4019c6:	68fb      	ldr	r3, [r7, #12]
  4019c8:	69ba      	ldr	r2, [r7, #24]
  4019ca:	651a      	str	r2, [r3, #80]	; 0x50
  4019cc:	e002      	b.n	4019d4 <ioport_set_pin_mode+0x8c>
		base->PIO_MDDR = mask;
  4019ce:	68fb      	ldr	r3, [r7, #12]
  4019d0:	69ba      	ldr	r2, [r7, #24]
  4019d2:	655a      	str	r2, [r3, #84]	; 0x54
	if (mode & (IOPORT_MODE_GLITCH_FILTER | IOPORT_MODE_DEBOUNCE)) {
  4019d4:	697b      	ldr	r3, [r7, #20]
  4019d6:	f003 03c0 	and.w	r3, r3, #192	; 0xc0
  4019da:	2b00      	cmp	r3, #0
  4019dc:	d003      	beq.n	4019e6 <ioport_set_pin_mode+0x9e>
		base->PIO_IFER = mask;
  4019de:	68fb      	ldr	r3, [r7, #12]
  4019e0:	69ba      	ldr	r2, [r7, #24]
  4019e2:	621a      	str	r2, [r3, #32]
  4019e4:	e002      	b.n	4019ec <ioport_set_pin_mode+0xa4>
		base->PIO_IFDR = mask;
  4019e6:	68fb      	ldr	r3, [r7, #12]
  4019e8:	69ba      	ldr	r2, [r7, #24]
  4019ea:	625a      	str	r2, [r3, #36]	; 0x24
	if (mode & IOPORT_MODE_DEBOUNCE) {
  4019ec:	697b      	ldr	r3, [r7, #20]
  4019ee:	f003 0380 	and.w	r3, r3, #128	; 0x80
  4019f2:	2b00      	cmp	r3, #0
  4019f4:	d004      	beq.n	401a00 <ioport_set_pin_mode+0xb8>
		base->PIO_IFSCER = mask;
  4019f6:	68fb      	ldr	r3, [r7, #12]
  4019f8:	69ba      	ldr	r2, [r7, #24]
  4019fa:	f8c3 2084 	str.w	r2, [r3, #132]	; 0x84
  4019fe:	e003      	b.n	401a08 <ioport_set_pin_mode+0xc0>
		base->PIO_IFSCDR = mask;
  401a00:	68fb      	ldr	r3, [r7, #12]
  401a02:	69ba      	ldr	r2, [r7, #24]
  401a04:	f8c3 2080 	str.w	r2, [r3, #128]	; 0x80
	if (mode & IOPORT_MODE_MUX_BIT0) {
  401a08:	697b      	ldr	r3, [r7, #20]
  401a0a:	f003 0301 	and.w	r3, r3, #1
  401a0e:	2b00      	cmp	r3, #0
  401a10:	d006      	beq.n	401a20 <ioport_set_pin_mode+0xd8>
		base->PIO_ABCDSR[0] |= mask;
  401a12:	68fb      	ldr	r3, [r7, #12]
  401a14:	6f1a      	ldr	r2, [r3, #112]	; 0x70
  401a16:	69bb      	ldr	r3, [r7, #24]
  401a18:	431a      	orrs	r2, r3
  401a1a:	68fb      	ldr	r3, [r7, #12]
  401a1c:	671a      	str	r2, [r3, #112]	; 0x70
  401a1e:	e006      	b.n	401a2e <ioport_set_pin_mode+0xe6>
		base->PIO_ABCDSR[0] &= ~mask;
  401a20:	68fb      	ldr	r3, [r7, #12]
  401a22:	6f1a      	ldr	r2, [r3, #112]	; 0x70
  401a24:	69bb      	ldr	r3, [r7, #24]
  401a26:	43db      	mvns	r3, r3
  401a28:	401a      	ands	r2, r3
  401a2a:	68fb      	ldr	r3, [r7, #12]
  401a2c:	671a      	str	r2, [r3, #112]	; 0x70
	if (mode & IOPORT_MODE_MUX_BIT1) {
  401a2e:	697b      	ldr	r3, [r7, #20]
  401a30:	f003 0302 	and.w	r3, r3, #2
  401a34:	2b00      	cmp	r3, #0
  401a36:	d006      	beq.n	401a46 <ioport_set_pin_mode+0xfe>
		base->PIO_ABCDSR[1] |= mask;
  401a38:	68fb      	ldr	r3, [r7, #12]
  401a3a:	6f5a      	ldr	r2, [r3, #116]	; 0x74
  401a3c:	69bb      	ldr	r3, [r7, #24]
  401a3e:	431a      	orrs	r2, r3
  401a40:	68fb      	ldr	r3, [r7, #12]
  401a42:	675a      	str	r2, [r3, #116]	; 0x74
}
  401a44:	e006      	b.n	401a54 <ioport_set_pin_mode+0x10c>
		base->PIO_ABCDSR[1] &= ~mask;
  401a46:	68fb      	ldr	r3, [r7, #12]
  401a48:	6f5a      	ldr	r2, [r3, #116]	; 0x74
  401a4a:	69bb      	ldr	r3, [r7, #24]
  401a4c:	43db      	mvns	r3, r3
  401a4e:	401a      	ands	r2, r3
  401a50:	68fb      	ldr	r3, [r7, #12]
  401a52:	675a      	str	r2, [r3, #116]	; 0x74
  401a54:	bf00      	nop
  401a56:	3734      	adds	r7, #52	; 0x34
  401a58:	46bd      	mov	sp, r7
  401a5a:	f85d 7b04 	ldr.w	r7, [sp], #4
  401a5e:	4770      	bx	lr
  401a60:	00200707 	.word	0x00200707

00401a64 <ioport_set_pin_dir>:
{
  401a64:	b480      	push	{r7}
  401a66:	b08d      	sub	sp, #52	; 0x34
  401a68:	af00      	add	r7, sp, #0
  401a6a:	6078      	str	r0, [r7, #4]
  401a6c:	460b      	mov	r3, r1
  401a6e:	70fb      	strb	r3, [r7, #3]
  401a70:	687b      	ldr	r3, [r7, #4]
  401a72:	62fb      	str	r3, [r7, #44]	; 0x2c
  401a74:	78fb      	ldrb	r3, [r7, #3]
  401a76:	f887 302b 	strb.w	r3, [r7, #43]	; 0x2b
  401a7a:	6afb      	ldr	r3, [r7, #44]	; 0x2c
  401a7c:	627b      	str	r3, [r7, #36]	; 0x24
  401a7e:	6a7b      	ldr	r3, [r7, #36]	; 0x24
  401a80:	623b      	str	r3, [r7, #32]
	return pin >> 5;
  401a82:	6a3b      	ldr	r3, [r7, #32]
  401a84:	095b      	lsrs	r3, r3, #5
  401a86:	61fb      	str	r3, [r7, #28]
	return (Pio *)((uintptr_t)IOPORT_BASE_ADDRESS +
  401a88:	69fa      	ldr	r2, [r7, #28]
  401a8a:	4b17      	ldr	r3, [pc, #92]	; (401ae8 <ioport_set_pin_dir+0x84>)
  401a8c:	4413      	add	r3, r2
  401a8e:	025b      	lsls	r3, r3, #9
	Pio *base = arch_ioport_pin_to_base(pin);
  401a90:	61bb      	str	r3, [r7, #24]
	if (dir == IOPORT_DIR_OUTPUT) {
  401a92:	f897 302b 	ldrb.w	r3, [r7, #43]	; 0x2b
  401a96:	2b01      	cmp	r3, #1
  401a98:	d109      	bne.n	401aae <ioport_set_pin_dir+0x4a>
  401a9a:	6afb      	ldr	r3, [r7, #44]	; 0x2c
  401a9c:	617b      	str	r3, [r7, #20]
	return 1U << (pin & 0x1F);
  401a9e:	697b      	ldr	r3, [r7, #20]
  401aa0:	f003 031f 	and.w	r3, r3, #31
  401aa4:	2201      	movs	r2, #1
  401aa6:	409a      	lsls	r2, r3
		base->PIO_OER = arch_ioport_pin_to_mask(pin);
  401aa8:	69bb      	ldr	r3, [r7, #24]
  401aaa:	611a      	str	r2, [r3, #16]
  401aac:	e00c      	b.n	401ac8 <ioport_set_pin_dir+0x64>
	} else if (dir == IOPORT_DIR_INPUT) {
  401aae:	f897 302b 	ldrb.w	r3, [r7, #43]	; 0x2b
  401ab2:	2b00      	cmp	r3, #0
  401ab4:	d108      	bne.n	401ac8 <ioport_set_pin_dir+0x64>
  401ab6:	6afb      	ldr	r3, [r7, #44]	; 0x2c
  401ab8:	613b      	str	r3, [r7, #16]
	return 1U << (pin & 0x1F);
  401aba:	693b      	ldr	r3, [r7, #16]
  401abc:	f003 031f 	and.w	r3, r3, #31
  401ac0:	2201      	movs	r2, #1
  401ac2:	409a      	lsls	r2, r3
		base->PIO_ODR = arch_ioport_pin_to_mask(pin);
  401ac4:	69bb      	ldr	r3, [r7, #24]
  401ac6:	615a      	str	r2, [r3, #20]
  401ac8:	6afb      	ldr	r3, [r7, #44]	; 0x2c
  401aca:	60fb      	str	r3, [r7, #12]
	return 1U << (pin & 0x1F);
  401acc:	68fb      	ldr	r3, [r7, #12]
  401ace:	f003 031f 	and.w	r3, r3, #31
  401ad2:	2201      	movs	r2, #1
  401ad4:	409a      	lsls	r2, r3
	base->PIO_OWER = arch_ioport_pin_to_mask(pin);
  401ad6:	69bb      	ldr	r3, [r7, #24]
  401ad8:	f8c3 20a0 	str.w	r2, [r3, #160]	; 0xa0
}
  401adc:	bf00      	nop
  401ade:	3734      	adds	r7, #52	; 0x34
  401ae0:	46bd      	mov	sp, r7
  401ae2:	f85d 7b04 	ldr.w	r7, [sp], #4
  401ae6:	4770      	bx	lr
  401ae8:	00200707 	.word	0x00200707

00401aec <ioport_set_pin_level>:
{
  401aec:	b480      	push	{r7}
  401aee:	b08b      	sub	sp, #44	; 0x2c
  401af0:	af00      	add	r7, sp, #0
  401af2:	6078      	str	r0, [r7, #4]
  401af4:	460b      	mov	r3, r1
  401af6:	70fb      	strb	r3, [r7, #3]
  401af8:	687b      	ldr	r3, [r7, #4]
  401afa:	627b      	str	r3, [r7, #36]	; 0x24
  401afc:	78fb      	ldrb	r3, [r7, #3]
  401afe:	f887 3023 	strb.w	r3, [r7, #35]	; 0x23
  401b02:	6a7b      	ldr	r3, [r7, #36]	; 0x24
  401b04:	61fb      	str	r3, [r7, #28]
  401b06:	69fb      	ldr	r3, [r7, #28]
  401b08:	61bb      	str	r3, [r7, #24]
	return pin >> 5;
  401b0a:	69bb      	ldr	r3, [r7, #24]
  401b0c:	095b      	lsrs	r3, r3, #5
  401b0e:	617b      	str	r3, [r7, #20]
	return (Pio *)((uintptr_t)IOPORT_BASE_ADDRESS +
  401b10:	697a      	ldr	r2, [r7, #20]
  401b12:	4b10      	ldr	r3, [pc, #64]	; (401b54 <ioport_set_pin_level+0x68>)
  401b14:	4413      	add	r3, r2
  401b16:	025b      	lsls	r3, r3, #9
	Pio *base = arch_ioport_pin_to_base(pin);
  401b18:	613b      	str	r3, [r7, #16]
	if (level) {
  401b1a:	f897 3023 	ldrb.w	r3, [r7, #35]	; 0x23
  401b1e:	2b00      	cmp	r3, #0
  401b20:	d009      	beq.n	401b36 <ioport_set_pin_level+0x4a>
  401b22:	6a7b      	ldr	r3, [r7, #36]	; 0x24
  401b24:	60fb      	str	r3, [r7, #12]
	return 1U << (pin & 0x1F);
  401b26:	68fb      	ldr	r3, [r7, #12]
  401b28:	f003 031f 	and.w	r3, r3, #31
  401b2c:	2201      	movs	r2, #1
  401b2e:	409a      	lsls	r2, r3
		base->PIO_SODR = arch_ioport_pin_to_mask(pin);
  401b30:	693b      	ldr	r3, [r7, #16]
  401b32:	631a      	str	r2, [r3, #48]	; 0x30
}
  401b34:	e008      	b.n	401b48 <ioport_set_pin_level+0x5c>
  401b36:	6a7b      	ldr	r3, [r7, #36]	; 0x24
  401b38:	60bb      	str	r3, [r7, #8]
	return 1U << (pin & 0x1F);
  401b3a:	68bb      	ldr	r3, [r7, #8]
  401b3c:	f003 031f 	and.w	r3, r3, #31
  401b40:	2201      	movs	r2, #1
  401b42:	409a      	lsls	r2, r3
		base->PIO_CODR = arch_ioport_pin_to_mask(pin);
  401b44:	693b      	ldr	r3, [r7, #16]
  401b46:	635a      	str	r2, [r3, #52]	; 0x34
  401b48:	bf00      	nop
  401b4a:	372c      	adds	r7, #44	; 0x2c
  401b4c:	46bd      	mov	sp, r7
  401b4e:	f85d 7b04 	ldr.w	r7, [sp], #4
  401b52:	4770      	bx	lr
  401b54:	00200707 	.word	0x00200707

00401b58 <ioport_set_pin_sense_mode>:
 * \param pin IOPORT pin to configure
 * \param pin_sense Edge to sense for the pin (\ref ioport_sense)
 */
static inline void ioport_set_pin_sense_mode(ioport_pin_t pin,
		enum ioport_sense pin_sense)
{
  401b58:	b480      	push	{r7}
  401b5a:	b08d      	sub	sp, #52	; 0x34
  401b5c:	af00      	add	r7, sp, #0
  401b5e:	6078      	str	r0, [r7, #4]
  401b60:	460b      	mov	r3, r1
  401b62:	70fb      	strb	r3, [r7, #3]
  401b64:	687b      	ldr	r3, [r7, #4]
  401b66:	62fb      	str	r3, [r7, #44]	; 0x2c
  401b68:	78fb      	ldrb	r3, [r7, #3]
  401b6a:	f887 302b 	strb.w	r3, [r7, #43]	; 0x2b
  401b6e:	6afb      	ldr	r3, [r7, #44]	; 0x2c
  401b70:	627b      	str	r3, [r7, #36]	; 0x24
	return pin >> 5;
  401b72:	6a7b      	ldr	r3, [r7, #36]	; 0x24
  401b74:	095a      	lsrs	r2, r3, #5
  401b76:	6afb      	ldr	r3, [r7, #44]	; 0x2c
  401b78:	623b      	str	r3, [r7, #32]
	return 1U << (pin & 0x1F);
  401b7a:	6a3b      	ldr	r3, [r7, #32]
  401b7c:	f003 031f 	and.w	r3, r3, #31
  401b80:	2101      	movs	r1, #1
  401b82:	fa01 f303 	lsl.w	r3, r1, r3
  401b86:	61fa      	str	r2, [r7, #28]
  401b88:	61bb      	str	r3, [r7, #24]
  401b8a:	f897 302b 	ldrb.w	r3, [r7, #43]	; 0x2b
  401b8e:	75fb      	strb	r3, [r7, #23]
  401b90:	69fb      	ldr	r3, [r7, #28]
  401b92:	613b      	str	r3, [r7, #16]
	return (Pio *)((uintptr_t)IOPORT_BASE_ADDRESS +
  401b94:	693a      	ldr	r2, [r7, #16]
  401b96:	4b23      	ldr	r3, [pc, #140]	; (401c24 <ioport_set_pin_sense_mode+0xcc>)
  401b98:	4413      	add	r3, r2
  401b9a:	025b      	lsls	r3, r3, #9
}

__always_inline static void arch_ioport_set_port_sense_mode(ioport_port_t port,
		ioport_port_mask_t mask, enum ioport_sense pin_sense)
{
	Pio *base = arch_ioport_port_to_base(port);
  401b9c:	60fb      	str	r3, [r7, #12]
	 *       1       0         0    IOPORT_SENSE_FALLING
	 *       1       0         1    IOPORT_SENSE_RISING
	 *       1       1         0    IOPORT_SENSE_LEVEL_LOW
	 *       1       1         1    IOPORT_SENSE_LEVEL_HIGH
	 */
	switch(pin_sense) {
  401b9e:	7dfb      	ldrb	r3, [r7, #23]
  401ba0:	3b01      	subs	r3, #1
  401ba2:	2b03      	cmp	r3, #3
  401ba4:	d82e      	bhi.n	401c04 <ioport_set_pin_sense_mode+0xac>
  401ba6:	a201      	add	r2, pc, #4	; (adr r2, 401bac <ioport_set_pin_sense_mode+0x54>)
  401ba8:	f852 f023 	ldr.w	pc, [r2, r3, lsl #2]
  401bac:	00401be1 	.word	0x00401be1
  401bb0:	00401bf3 	.word	0x00401bf3
  401bb4:	00401bbd 	.word	0x00401bbd
  401bb8:	00401bcf 	.word	0x00401bcf
	case IOPORT_SENSE_LEVEL_LOW:
		base->PIO_LSR = mask;
  401bbc:	68fb      	ldr	r3, [r7, #12]
  401bbe:	69ba      	ldr	r2, [r7, #24]
  401bc0:	f8c3 20c4 	str.w	r2, [r3, #196]	; 0xc4
		base->PIO_FELLSR = mask;
  401bc4:	68fb      	ldr	r3, [r7, #12]
  401bc6:	69ba      	ldr	r2, [r7, #24]
  401bc8:	f8c3 20d0 	str.w	r2, [r3, #208]	; 0xd0
  401bcc:	e01f      	b.n	401c0e <ioport_set_pin_sense_mode+0xb6>
		break;
	case IOPORT_SENSE_LEVEL_HIGH:
		base->PIO_LSR = mask;
  401bce:	68fb      	ldr	r3, [r7, #12]
  401bd0:	69ba      	ldr	r2, [r7, #24]
  401bd2:	f8c3 20c4 	str.w	r2, [r3, #196]	; 0xc4
		base->PIO_REHLSR = mask;
  401bd6:	68fb      	ldr	r3, [r7, #12]
  401bd8:	69ba      	ldr	r2, [r7, #24]
  401bda:	f8c3 20d4 	str.w	r2, [r3, #212]	; 0xd4
  401bde:	e016      	b.n	401c0e <ioport_set_pin_sense_mode+0xb6>
		break;
	case IOPORT_SENSE_FALLING:
		base->PIO_ESR = mask;
  401be0:	68fb      	ldr	r3, [r7, #12]
  401be2:	69ba      	ldr	r2, [r7, #24]
  401be4:	f8c3 20c0 	str.w	r2, [r3, #192]	; 0xc0
		base->PIO_FELLSR = mask;
  401be8:	68fb      	ldr	r3, [r7, #12]
  401bea:	69ba      	ldr	r2, [r7, #24]
  401bec:	f8c3 20d0 	str.w	r2, [r3, #208]	; 0xd0
  401bf0:	e00d      	b.n	401c0e <ioport_set_pin_sense_mode+0xb6>
		break;
	case IOPORT_SENSE_RISING:
		base->PIO_ESR = mask;
  401bf2:	68fb      	ldr	r3, [r7, #12]
  401bf4:	69ba      	ldr	r2, [r7, #24]
  401bf6:	f8c3 20c0 	str.w	r2, [r3, #192]	; 0xc0
		base->PIO_REHLSR = mask;
  401bfa:	68fb      	ldr	r3, [r7, #12]
  401bfc:	69ba      	ldr	r2, [r7, #24]
  401bfe:	f8c3 20d4 	str.w	r2, [r3, #212]	; 0xd4
  401c02:	e004      	b.n	401c0e <ioport_set_pin_sense_mode+0xb6>
		break;
	default:
		base->PIO_AIMDR = mask;
  401c04:	68fb      	ldr	r3, [r7, #12]
  401c06:	69ba      	ldr	r2, [r7, #24]
  401c08:	f8c3 20b4 	str.w	r2, [r3, #180]	; 0xb4
	arch_ioport_set_pin_sense_mode(pin, pin_sense);
}
  401c0c:	e003      	b.n	401c16 <ioport_set_pin_sense_mode+0xbe>
		return;
	}
	base->PIO_AIMER = mask;
  401c0e:	68fb      	ldr	r3, [r7, #12]
  401c10:	69ba      	ldr	r2, [r7, #24]
  401c12:	f8c3 20b0 	str.w	r2, [r3, #176]	; 0xb0
  401c16:	bf00      	nop
  401c18:	3734      	adds	r7, #52	; 0x34
  401c1a:	46bd      	mov	sp, r7
  401c1c:	f85d 7b04 	ldr.w	r7, [sp], #4
  401c20:	4770      	bx	lr
  401c22:	bf00      	nop
  401c24:	00200707 	.word	0x00200707

00401c28 <tcm_disable>:
/** \brief  TCM memory Disable

	The function enables TCM memories
 */
static inline void tcm_disable(void) 
{
  401c28:	b480      	push	{r7}
  401c2a:	af00      	add	r7, sp, #0
  __ASM volatile ("dsb");
  401c2c:	f3bf 8f4f 	dsb	sy
  __ASM volatile ("isb");
  401c30:	f3bf 8f6f 	isb	sy

	__DSB();
	__ISB();
	SCB->ITCMCR &= ~(uint32_t)(1UL);
  401c34:	4a0c      	ldr	r2, [pc, #48]	; (401c68 <tcm_disable+0x40>)
  401c36:	4b0c      	ldr	r3, [pc, #48]	; (401c68 <tcm_disable+0x40>)
  401c38:	f8d3 3290 	ldr.w	r3, [r3, #656]	; 0x290
  401c3c:	f023 0301 	bic.w	r3, r3, #1
  401c40:	f8c2 3290 	str.w	r3, [r2, #656]	; 0x290
	SCB->DTCMCR &= ~(uint32_t)SCB_DTCMCR_EN_Msk;
  401c44:	4a08      	ldr	r2, [pc, #32]	; (401c68 <tcm_disable+0x40>)
  401c46:	4b08      	ldr	r3, [pc, #32]	; (401c68 <tcm_disable+0x40>)
  401c48:	f8d3 3294 	ldr.w	r3, [r3, #660]	; 0x294
  401c4c:	f023 0301 	bic.w	r3, r3, #1
  401c50:	f8c2 3294 	str.w	r3, [r2, #660]	; 0x294
  __ASM volatile ("dsb");
  401c54:	f3bf 8f4f 	dsb	sy
  __ASM volatile ("isb");
  401c58:	f3bf 8f6f 	isb	sy
	__DSB();
	__ISB();
}
  401c5c:	bf00      	nop
  401c5e:	46bd      	mov	sp, r7
  401c60:	f85d 7b04 	ldr.w	r7, [sp], #4
  401c64:	4770      	bx	lr
  401c66:	bf00      	nop
  401c68:	e000ed00 	.word	0xe000ed00

00401c6c <board_init>:
#endif

void board_init(void)
{
  401c6c:	b580      	push	{r7, lr}
  401c6e:	af00      	add	r7, sp, #0
#ifndef CONF_BOARD_KEEP_WATCHDOG_AT_INIT
	/* Disable the watchdog */
	WDT->WDT_MR = WDT_MR_WDDIS;
  401c70:	4b13      	ldr	r3, [pc, #76]	; (401cc0 <board_init+0x54>)
  401c72:	f44f 4200 	mov.w	r2, #32768	; 0x8000
  401c76:	605a      	str	r2, [r3, #4]
	_setup_memory_region();
#endif

#ifdef CONF_BOARD_ENABLE_CACHE
	/* Enabling the Cache */
	SCB_EnableICache(); 
  401c78:	4b12      	ldr	r3, [pc, #72]	; (401cc4 <board_init+0x58>)
  401c7a:	4798      	blx	r3
	SCB_EnableDCache();
  401c7c:	4b12      	ldr	r3, [pc, #72]	; (401cc8 <board_init+0x5c>)
  401c7e:	4798      	blx	r3
		*dst++ = *src++;
	}
#endif
#else
	/* TCM Configuration */
	EFC->EEFC_FCR = (EEFC_FCR_FKEY_PASSWD | EEFC_FCR_FCMD_CGPB 
  401c80:	4b12      	ldr	r3, [pc, #72]	; (401ccc <board_init+0x60>)
  401c82:	4a13      	ldr	r2, [pc, #76]	; (401cd0 <board_init+0x64>)
  401c84:	605a      	str	r2, [r3, #4]
					| EEFC_FCR_FARG(8));
	EFC->EEFC_FCR = (EEFC_FCR_FKEY_PASSWD | EEFC_FCR_FCMD_CGPB 
  401c86:	4b11      	ldr	r3, [pc, #68]	; (401ccc <board_init+0x60>)
  401c88:	4a12      	ldr	r2, [pc, #72]	; (401cd4 <board_init+0x68>)
  401c8a:	605a      	str	r2, [r3, #4]
					| EEFC_FCR_FARG(7));
	
	tcm_disable();
  401c8c:	4b12      	ldr	r3, [pc, #72]	; (401cd8 <board_init+0x6c>)
  401c8e:	4798      	blx	r3
#endif

	/* Initialize IOPORTs */
	ioport_init();
  401c90:	4b12      	ldr	r3, [pc, #72]	; (401cdc <board_init+0x70>)
  401c92:	4798      	blx	r3

	/* Configure the pins connected to LED as output and set their
	 * default initial state to high (LED off).
	 */
	ioport_set_pin_dir(LED0_GPIO, IOPORT_DIR_OUTPUT);
  401c94:	2101      	movs	r1, #1
  401c96:	2048      	movs	r0, #72	; 0x48
  401c98:	4b11      	ldr	r3, [pc, #68]	; (401ce0 <board_init+0x74>)
  401c9a:	4798      	blx	r3
	ioport_set_pin_level(LED0_GPIO, LED0_INACTIVE_LEVEL);
  401c9c:	2101      	movs	r1, #1
  401c9e:	2048      	movs	r0, #72	; 0x48
  401ca0:	4b10      	ldr	r3, [pc, #64]	; (401ce4 <board_init+0x78>)
  401ca2:	4798      	blx	r3

	/* Configure Push Button pins */
	ioport_set_pin_input_mode(GPIO_PUSH_BUTTON_1, GPIO_PUSH_BUTTON_1_FLAGS,
  401ca4:	2100      	movs	r1, #0
  401ca6:	200b      	movs	r0, #11
  401ca8:	4b0d      	ldr	r3, [pc, #52]	; (401ce0 <board_init+0x74>)
  401caa:	4798      	blx	r3
  401cac:	2188      	movs	r1, #136	; 0x88
  401cae:	200b      	movs	r0, #11
  401cb0:	4b0d      	ldr	r3, [pc, #52]	; (401ce8 <board_init+0x7c>)
  401cb2:	4798      	blx	r3
  401cb4:	2102      	movs	r1, #2
  401cb6:	200b      	movs	r0, #11
  401cb8:	4b0c      	ldr	r3, [pc, #48]	; (401cec <board_init+0x80>)
  401cba:	4798      	blx	r3
	pio_configure_pin(LCD_SPI_CDS_PIO, LCD_SPI_CDS_FLAGS);
	pio_configure_pin(LCD_SPI_BACKLIGHT_PIO, LCD_SPI_BACKLIGHT_FLAGS);
	pio_set_pin_high(LCD_SPI_BACKLIGHT_PIO);

#endif
}
  401cbc:	bf00      	nop
  401cbe:	bd80      	pop	{r7, pc}
  401cc0:	400e1850 	.word	0x400e1850
  401cc4:	00401825 	.word	0x00401825
  401cc8:	0040185d 	.word	0x0040185d
  401ccc:	400e0c00 	.word	0x400e0c00
  401cd0:	5a00080c 	.word	0x5a00080c
  401cd4:	5a00070c 	.word	0x5a00070c
  401cd8:	00401c29 	.word	0x00401c29
  401cdc:	0040191d 	.word	0x0040191d
  401ce0:	00401a65 	.word	0x00401a65
  401ce4:	00401aed 	.word	0x00401aed
  401ce8:	00401949 	.word	0x00401949
  401cec:	00401b59 	.word	0x00401b59

00401cf0 <pio_pull_up>:
 * \param ul_pull_up_enable Indicates if the pin(s) internal pull-up shall be
 * configured.
 */
void pio_pull_up(Pio *p_pio, const uint32_t ul_mask,
		const uint32_t ul_pull_up_enable)
{
  401cf0:	b480      	push	{r7}
  401cf2:	b085      	sub	sp, #20
  401cf4:	af00      	add	r7, sp, #0
  401cf6:	60f8      	str	r0, [r7, #12]
  401cf8:	60b9      	str	r1, [r7, #8]
  401cfa:	607a      	str	r2, [r7, #4]
	/* Enable the pull-up(s) if necessary */
	if (ul_pull_up_enable) {
  401cfc:	687b      	ldr	r3, [r7, #4]
  401cfe:	2b00      	cmp	r3, #0
  401d00:	d003      	beq.n	401d0a <pio_pull_up+0x1a>
		p_pio->PIO_PUER = ul_mask;
  401d02:	68fb      	ldr	r3, [r7, #12]
  401d04:	68ba      	ldr	r2, [r7, #8]
  401d06:	665a      	str	r2, [r3, #100]	; 0x64
	} else {
		p_pio->PIO_PUDR = ul_mask;
	}
}
  401d08:	e002      	b.n	401d10 <pio_pull_up+0x20>
		p_pio->PIO_PUDR = ul_mask;
  401d0a:	68fb      	ldr	r3, [r7, #12]
  401d0c:	68ba      	ldr	r2, [r7, #8]
  401d0e:	661a      	str	r2, [r3, #96]	; 0x60
}
  401d10:	bf00      	nop
  401d12:	3714      	adds	r7, #20
  401d14:	46bd      	mov	sp, r7
  401d16:	f85d 7b04 	ldr.w	r7, [sp], #4
  401d1a:	4770      	bx	lr

00401d1c <pio_set>:
 *
 * \param p_pio Pointer to a PIO instance.
 * \param ul_mask Bitmask of one or more pin(s) to configure.
 */
void pio_set(Pio *p_pio, const uint32_t ul_mask)
{
  401d1c:	b480      	push	{r7}
  401d1e:	b083      	sub	sp, #12
  401d20:	af00      	add	r7, sp, #0
  401d22:	6078      	str	r0, [r7, #4]
  401d24:	6039      	str	r1, [r7, #0]
	p_pio->PIO_SODR = ul_mask;
  401d26:	687b      	ldr	r3, [r7, #4]
  401d28:	683a      	ldr	r2, [r7, #0]
  401d2a:	631a      	str	r2, [r3, #48]	; 0x30
}
  401d2c:	bf00      	nop
  401d2e:	370c      	adds	r7, #12
  401d30:	46bd      	mov	sp, r7
  401d32:	f85d 7b04 	ldr.w	r7, [sp], #4
  401d36:	4770      	bx	lr

00401d38 <pio_clear>:
 *
 * \param p_pio Pointer to a PIO instance.
 * \param ul_mask Bitmask of one or more pin(s) to configure.
 */
void pio_clear(Pio *p_pio, const uint32_t ul_mask)
{
  401d38:	b480      	push	{r7}
  401d3a:	b083      	sub	sp, #12
  401d3c:	af00      	add	r7, sp, #0
  401d3e:	6078      	str	r0, [r7, #4]
  401d40:	6039      	str	r1, [r7, #0]
	p_pio->PIO_CODR = ul_mask;
  401d42:	687b      	ldr	r3, [r7, #4]
  401d44:	683a      	ldr	r2, [r7, #0]
  401d46:	635a      	str	r2, [r3, #52]	; 0x34
}
  401d48:	bf00      	nop
  401d4a:	370c      	adds	r7, #12
  401d4c:	46bd      	mov	sp, r7
  401d4e:	f85d 7b04 	ldr.w	r7, [sp], #4
  401d52:	4770      	bx	lr

00401d54 <pio_get>:
 * \retval 1 at least one PIO currently has a high level.
 * \retval 0 all PIOs have a low level.
 */
uint32_t pio_get(Pio *p_pio, const pio_type_t ul_type,
		const uint32_t ul_mask)
{
  401d54:	b480      	push	{r7}
  401d56:	b087      	sub	sp, #28
  401d58:	af00      	add	r7, sp, #0
  401d5a:	60f8      	str	r0, [r7, #12]
  401d5c:	60b9      	str	r1, [r7, #8]
  401d5e:	607a      	str	r2, [r7, #4]
	uint32_t ul_reg;

	if ((ul_type == PIO_OUTPUT_0) || (ul_type == PIO_OUTPUT_1)) {
  401d60:	68bb      	ldr	r3, [r7, #8]
  401d62:	f1b3 5f40 	cmp.w	r3, #805306368	; 0x30000000
  401d66:	d003      	beq.n	401d70 <pio_get+0x1c>
  401d68:	68bb      	ldr	r3, [r7, #8]
  401d6a:	f1b3 5f60 	cmp.w	r3, #939524096	; 0x38000000
  401d6e:	d103      	bne.n	401d78 <pio_get+0x24>
		ul_reg = p_pio->PIO_ODSR;
  401d70:	68fb      	ldr	r3, [r7, #12]
  401d72:	6b9b      	ldr	r3, [r3, #56]	; 0x38
  401d74:	617b      	str	r3, [r7, #20]
  401d76:	e002      	b.n	401d7e <pio_get+0x2a>
	} else {
		ul_reg = p_pio->PIO_PDSR;
  401d78:	68fb      	ldr	r3, [r7, #12]
  401d7a:	6bdb      	ldr	r3, [r3, #60]	; 0x3c
  401d7c:	617b      	str	r3, [r7, #20]
	}

	if ((ul_reg & ul_mask) == 0) {
  401d7e:	697a      	ldr	r2, [r7, #20]
  401d80:	687b      	ldr	r3, [r7, #4]
  401d82:	4013      	ands	r3, r2
  401d84:	2b00      	cmp	r3, #0
  401d86:	d101      	bne.n	401d8c <pio_get+0x38>
		return 0;
  401d88:	2300      	movs	r3, #0
  401d8a:	e000      	b.n	401d8e <pio_get+0x3a>
	} else {
		return 1;
  401d8c:	2301      	movs	r3, #1
	}
}
  401d8e:	4618      	mov	r0, r3
  401d90:	371c      	adds	r7, #28
  401d92:	46bd      	mov	sp, r7
  401d94:	f85d 7b04 	ldr.w	r7, [sp], #4
  401d98:	4770      	bx	lr

00401d9a <pio_set_peripheral>:
 * \param ul_type PIO type.
 * \param ul_mask Bitmask of one or more pin(s) to configure.
 */
void pio_set_peripheral(Pio *p_pio, const pio_type_t ul_type,
		const uint32_t ul_mask)
{
  401d9a:	b480      	push	{r7}
  401d9c:	b087      	sub	sp, #28
  401d9e:	af00      	add	r7, sp, #0
  401da0:	60f8      	str	r0, [r7, #12]
  401da2:	60b9      	str	r1, [r7, #8]
  401da4:	607a      	str	r2, [r7, #4]
	uint32_t ul_sr;

	/* Disable interrupts on the pin(s) */
	p_pio->PIO_IDR = ul_mask;
  401da6:	68fb      	ldr	r3, [r7, #12]
  401da8:	687a      	ldr	r2, [r7, #4]
  401daa:	645a      	str	r2, [r3, #68]	; 0x44

#if (SAM3S || SAM3N || SAM4S || SAM4E || SAM4N || SAM4C || SAMG || SAM4CP || SAM4CM || SAMV71 || SAMV70 || SAME70 || SAMS70)
	switch (ul_type) {
  401dac:	68bb      	ldr	r3, [r7, #8]
  401dae:	f1b3 5fc0 	cmp.w	r3, #402653184	; 0x18000000
  401db2:	d04a      	beq.n	401e4a <pio_set_peripheral+0xb0>
  401db4:	f1b3 5fc0 	cmp.w	r3, #402653184	; 0x18000000
  401db8:	d808      	bhi.n	401dcc <pio_set_peripheral+0x32>
  401dba:	f1b3 6f00 	cmp.w	r3, #134217728	; 0x8000000
  401dbe:	d016      	beq.n	401dee <pio_set_peripheral+0x54>
  401dc0:	f1b3 5f80 	cmp.w	r3, #268435456	; 0x10000000
  401dc4:	d02c      	beq.n	401e20 <pio_set_peripheral+0x86>
  401dc6:	2b00      	cmp	r3, #0
  401dc8:	d069      	beq.n	401e9e <pio_set_peripheral+0x104>
  401dca:	e064      	b.n	401e96 <pio_set_peripheral+0xfc>
  401dcc:	f1b3 5f20 	cmp.w	r3, #671088640	; 0x28000000
  401dd0:	d065      	beq.n	401e9e <pio_set_peripheral+0x104>
  401dd2:	f1b3 5f20 	cmp.w	r3, #671088640	; 0x28000000
  401dd6:	d803      	bhi.n	401de0 <pio_set_peripheral+0x46>
  401dd8:	f1b3 5f00 	cmp.w	r3, #536870912	; 0x20000000
  401ddc:	d04a      	beq.n	401e74 <pio_set_peripheral+0xda>
  401dde:	e05a      	b.n	401e96 <pio_set_peripheral+0xfc>
  401de0:	f1b3 5f40 	cmp.w	r3, #805306368	; 0x30000000
  401de4:	d05b      	beq.n	401e9e <pio_set_peripheral+0x104>
  401de6:	f1b3 5f60 	cmp.w	r3, #939524096	; 0x38000000
  401dea:	d058      	beq.n	401e9e <pio_set_peripheral+0x104>
  401dec:	e053      	b.n	401e96 <pio_set_peripheral+0xfc>
	case PIO_PERIPH_A:
		ul_sr = p_pio->PIO_ABCDSR[0];
  401dee:	68fb      	ldr	r3, [r7, #12]
  401df0:	6f1b      	ldr	r3, [r3, #112]	; 0x70
  401df2:	617b      	str	r3, [r7, #20]
		p_pio->PIO_ABCDSR[0] &= (~ul_mask & ul_sr);
  401df4:	68fb      	ldr	r3, [r7, #12]
  401df6:	6f1a      	ldr	r2, [r3, #112]	; 0x70
  401df8:	687b      	ldr	r3, [r7, #4]
  401dfa:	43d9      	mvns	r1, r3
  401dfc:	697b      	ldr	r3, [r7, #20]
  401dfe:	400b      	ands	r3, r1
  401e00:	401a      	ands	r2, r3
  401e02:	68fb      	ldr	r3, [r7, #12]
  401e04:	671a      	str	r2, [r3, #112]	; 0x70

		ul_sr = p_pio->PIO_ABCDSR[1];
  401e06:	68fb      	ldr	r3, [r7, #12]
  401e08:	6f5b      	ldr	r3, [r3, #116]	; 0x74
  401e0a:	617b      	str	r3, [r7, #20]
		p_pio->PIO_ABCDSR[1] &= (~ul_mask & ul_sr);
  401e0c:	68fb      	ldr	r3, [r7, #12]
  401e0e:	6f5a      	ldr	r2, [r3, #116]	; 0x74
  401e10:	687b      	ldr	r3, [r7, #4]
  401e12:	43d9      	mvns	r1, r3
  401e14:	697b      	ldr	r3, [r7, #20]
  401e16:	400b      	ands	r3, r1
  401e18:	401a      	ands	r2, r3
  401e1a:	68fb      	ldr	r3, [r7, #12]
  401e1c:	675a      	str	r2, [r3, #116]	; 0x74
		break;
  401e1e:	e03a      	b.n	401e96 <pio_set_peripheral+0xfc>
	case PIO_PERIPH_B:
		ul_sr = p_pio->PIO_ABCDSR[0];
  401e20:	68fb      	ldr	r3, [r7, #12]
  401e22:	6f1b      	ldr	r3, [r3, #112]	; 0x70
  401e24:	617b      	str	r3, [r7, #20]
		p_pio->PIO_ABCDSR[0] = (ul_mask | ul_sr);
  401e26:	687a      	ldr	r2, [r7, #4]
  401e28:	697b      	ldr	r3, [r7, #20]
  401e2a:	431a      	orrs	r2, r3
  401e2c:	68fb      	ldr	r3, [r7, #12]
  401e2e:	671a      	str	r2, [r3, #112]	; 0x70

		ul_sr = p_pio->PIO_ABCDSR[1];
  401e30:	68fb      	ldr	r3, [r7, #12]
  401e32:	6f5b      	ldr	r3, [r3, #116]	; 0x74
  401e34:	617b      	str	r3, [r7, #20]
		p_pio->PIO_ABCDSR[1] &= (~ul_mask & ul_sr);
  401e36:	68fb      	ldr	r3, [r7, #12]
  401e38:	6f5a      	ldr	r2, [r3, #116]	; 0x74
  401e3a:	687b      	ldr	r3, [r7, #4]
  401e3c:	43d9      	mvns	r1, r3
  401e3e:	697b      	ldr	r3, [r7, #20]
  401e40:	400b      	ands	r3, r1
  401e42:	401a      	ands	r2, r3
  401e44:	68fb      	ldr	r3, [r7, #12]
  401e46:	675a      	str	r2, [r3, #116]	; 0x74
		break;
  401e48:	e025      	b.n	401e96 <pio_set_peripheral+0xfc>
#if (!SAMG)
	case PIO_PERIPH_C:
		ul_sr = p_pio->PIO_ABCDSR[0];
  401e4a:	68fb      	ldr	r3, [r7, #12]
  401e4c:	6f1b      	ldr	r3, [r3, #112]	; 0x70
  401e4e:	617b      	str	r3, [r7, #20]
		p_pio->PIO_ABCDSR[0] &= (~ul_mask & ul_sr);
  401e50:	68fb      	ldr	r3, [r7, #12]
  401e52:	6f1a      	ldr	r2, [r3, #112]	; 0x70
  401e54:	687b      	ldr	r3, [r7, #4]
  401e56:	43d9      	mvns	r1, r3
  401e58:	697b      	ldr	r3, [r7, #20]
  401e5a:	400b      	ands	r3, r1
  401e5c:	401a      	ands	r2, r3
  401e5e:	68fb      	ldr	r3, [r7, #12]
  401e60:	671a      	str	r2, [r3, #112]	; 0x70

		ul_sr = p_pio->PIO_ABCDSR[1];
  401e62:	68fb      	ldr	r3, [r7, #12]
  401e64:	6f5b      	ldr	r3, [r3, #116]	; 0x74
  401e66:	617b      	str	r3, [r7, #20]
		p_pio->PIO_ABCDSR[1] = (ul_mask | ul_sr);
  401e68:	687a      	ldr	r2, [r7, #4]
  401e6a:	697b      	ldr	r3, [r7, #20]
  401e6c:	431a      	orrs	r2, r3
  401e6e:	68fb      	ldr	r3, [r7, #12]
  401e70:	675a      	str	r2, [r3, #116]	; 0x74
		break;
  401e72:	e010      	b.n	401e96 <pio_set_peripheral+0xfc>
	case PIO_PERIPH_D:
		ul_sr = p_pio->PIO_ABCDSR[0];
  401e74:	68fb      	ldr	r3, [r7, #12]
  401e76:	6f1b      	ldr	r3, [r3, #112]	; 0x70
  401e78:	617b      	str	r3, [r7, #20]
		p_pio->PIO_ABCDSR[0] = (ul_mask | ul_sr);
  401e7a:	687a      	ldr	r2, [r7, #4]
  401e7c:	697b      	ldr	r3, [r7, #20]
  401e7e:	431a      	orrs	r2, r3
  401e80:	68fb      	ldr	r3, [r7, #12]
  401e82:	671a      	str	r2, [r3, #112]	; 0x70

		ul_sr = p_pio->PIO_ABCDSR[1];
  401e84:	68fb      	ldr	r3, [r7, #12]
  401e86:	6f5b      	ldr	r3, [r3, #116]	; 0x74
  401e88:	617b      	str	r3, [r7, #20]
		p_pio->PIO_ABCDSR[1] = (ul_mask | ul_sr);
  401e8a:	687a      	ldr	r2, [r7, #4]
  401e8c:	697b      	ldr	r3, [r7, #20]
  401e8e:	431a      	orrs	r2, r3
  401e90:	68fb      	ldr	r3, [r7, #12]
  401e92:	675a      	str	r2, [r3, #116]	; 0x74
		break;
  401e94:	bf00      	nop
#else
#error "Unsupported device"
#endif

	/* Remove the pins from under the control of PIO */
	p_pio->PIO_PDR = ul_mask;
  401e96:	68fb      	ldr	r3, [r7, #12]
  401e98:	687a      	ldr	r2, [r7, #4]
  401e9a:	605a      	str	r2, [r3, #4]
  401e9c:	e000      	b.n	401ea0 <pio_set_peripheral+0x106>
		return;
  401e9e:	bf00      	nop
}
  401ea0:	371c      	adds	r7, #28
  401ea2:	46bd      	mov	sp, r7
  401ea4:	f85d 7b04 	ldr.w	r7, [sp], #4
  401ea8:	4770      	bx	lr
	...

00401eac <pio_set_input>:
 * \param ul_mask Bitmask indicating which pin(s) to configure as input(s).
 * \param ul_attribute PIO attribute(s).
 */
void pio_set_input(Pio *p_pio, const uint32_t ul_mask,
		const uint32_t ul_attribute)
{
  401eac:	b580      	push	{r7, lr}
  401eae:	b084      	sub	sp, #16
  401eb0:	af00      	add	r7, sp, #0
  401eb2:	60f8      	str	r0, [r7, #12]
  401eb4:	60b9      	str	r1, [r7, #8]
  401eb6:	607a      	str	r2, [r7, #4]
	pio_disable_interrupt(p_pio, ul_mask);
  401eb8:	68b9      	ldr	r1, [r7, #8]
  401eba:	68f8      	ldr	r0, [r7, #12]
  401ebc:	4b19      	ldr	r3, [pc, #100]	; (401f24 <pio_set_input+0x78>)
  401ebe:	4798      	blx	r3
	pio_pull_up(p_pio, ul_mask, ul_attribute & PIO_PULLUP);
  401ec0:	687b      	ldr	r3, [r7, #4]
  401ec2:	f003 0301 	and.w	r3, r3, #1
  401ec6:	461a      	mov	r2, r3
  401ec8:	68b9      	ldr	r1, [r7, #8]
  401eca:	68f8      	ldr	r0, [r7, #12]
  401ecc:	4b16      	ldr	r3, [pc, #88]	; (401f28 <pio_set_input+0x7c>)
  401ece:	4798      	blx	r3

	/* Enable Input Filter if necessary */
	if (ul_attribute & (PIO_DEGLITCH | PIO_DEBOUNCE)) {
  401ed0:	687b      	ldr	r3, [r7, #4]
  401ed2:	f003 030a 	and.w	r3, r3, #10
  401ed6:	2b00      	cmp	r3, #0
  401ed8:	d003      	beq.n	401ee2 <pio_set_input+0x36>
		p_pio->PIO_IFER = ul_mask;
  401eda:	68fb      	ldr	r3, [r7, #12]
  401edc:	68ba      	ldr	r2, [r7, #8]
  401ede:	621a      	str	r2, [r3, #32]
  401ee0:	e002      	b.n	401ee8 <pio_set_input+0x3c>
	} else {
		p_pio->PIO_IFDR = ul_mask;
  401ee2:	68fb      	ldr	r3, [r7, #12]
  401ee4:	68ba      	ldr	r2, [r7, #8]
  401ee6:	625a      	str	r2, [r3, #36]	; 0x24
	}

#if (SAM3S || SAM3N || SAM4S || SAM4E || SAM4N || SAM4C || SAMG || SAM4CP || SAM4CM || SAMV71 || SAMV70 || SAME70 || SAMS70)
	/* Enable de-glitch or de-bounce if necessary */
	if (ul_attribute & PIO_DEGLITCH) {
  401ee8:	687b      	ldr	r3, [r7, #4]
  401eea:	f003 0302 	and.w	r3, r3, #2
  401eee:	2b00      	cmp	r3, #0
  401ef0:	d004      	beq.n	401efc <pio_set_input+0x50>
		p_pio->PIO_IFSCDR = ul_mask;
  401ef2:	68fb      	ldr	r3, [r7, #12]
  401ef4:	68ba      	ldr	r2, [r7, #8]
  401ef6:	f8c3 2080 	str.w	r2, [r3, #128]	; 0x80
  401efa:	e008      	b.n	401f0e <pio_set_input+0x62>
	} else {
		if (ul_attribute & PIO_DEBOUNCE) {
  401efc:	687b      	ldr	r3, [r7, #4]
  401efe:	f003 0308 	and.w	r3, r3, #8
  401f02:	2b00      	cmp	r3, #0
  401f04:	d003      	beq.n	401f0e <pio_set_input+0x62>
			p_pio->PIO_IFSCER = ul_mask;
  401f06:	68fb      	ldr	r3, [r7, #12]
  401f08:	68ba      	ldr	r2, [r7, #8]
  401f0a:	f8c3 2084 	str.w	r2, [r3, #132]	; 0x84
#else
#error "Unsupported device"
#endif

	/* Configure pin as input */
	p_pio->PIO_ODR = ul_mask;
  401f0e:	68fb      	ldr	r3, [r7, #12]
  401f10:	68ba      	ldr	r2, [r7, #8]
  401f12:	615a      	str	r2, [r3, #20]
	p_pio->PIO_PER = ul_mask;
  401f14:	68fb      	ldr	r3, [r7, #12]
  401f16:	68ba      	ldr	r2, [r7, #8]
  401f18:	601a      	str	r2, [r3, #0]
}
  401f1a:	bf00      	nop
  401f1c:	3710      	adds	r7, #16
  401f1e:	46bd      	mov	sp, r7
  401f20:	bd80      	pop	{r7, pc}
  401f22:	bf00      	nop
  401f24:	004020e5 	.word	0x004020e5
  401f28:	00401cf1 	.word	0x00401cf1

00401f2c <pio_set_output>:
 */
void pio_set_output(Pio *p_pio, const uint32_t ul_mask,
		const uint32_t ul_default_level,
		const uint32_t ul_multidrive_enable,
		const uint32_t ul_pull_up_enable)
{
  401f2c:	b580      	push	{r7, lr}
  401f2e:	b084      	sub	sp, #16
  401f30:	af00      	add	r7, sp, #0
  401f32:	60f8      	str	r0, [r7, #12]
  401f34:	60b9      	str	r1, [r7, #8]
  401f36:	607a      	str	r2, [r7, #4]
  401f38:	603b      	str	r3, [r7, #0]
	pio_disable_interrupt(p_pio, ul_mask);
  401f3a:	68b9      	ldr	r1, [r7, #8]
  401f3c:	68f8      	ldr	r0, [r7, #12]
  401f3e:	4b12      	ldr	r3, [pc, #72]	; (401f88 <pio_set_output+0x5c>)
  401f40:	4798      	blx	r3
	pio_pull_up(p_pio, ul_mask, ul_pull_up_enable);
  401f42:	69ba      	ldr	r2, [r7, #24]
  401f44:	68b9      	ldr	r1, [r7, #8]
  401f46:	68f8      	ldr	r0, [r7, #12]
  401f48:	4b10      	ldr	r3, [pc, #64]	; (401f8c <pio_set_output+0x60>)
  401f4a:	4798      	blx	r3

	/* Enable multi-drive if necessary */
	if (ul_multidrive_enable) {
  401f4c:	683b      	ldr	r3, [r7, #0]
  401f4e:	2b00      	cmp	r3, #0
  401f50:	d003      	beq.n	401f5a <pio_set_output+0x2e>
		p_pio->PIO_MDER = ul_mask;
  401f52:	68fb      	ldr	r3, [r7, #12]
  401f54:	68ba      	ldr	r2, [r7, #8]
  401f56:	651a      	str	r2, [r3, #80]	; 0x50
  401f58:	e002      	b.n	401f60 <pio_set_output+0x34>
	} else {
		p_pio->PIO_MDDR = ul_mask;
  401f5a:	68fb      	ldr	r3, [r7, #12]
  401f5c:	68ba      	ldr	r2, [r7, #8]
  401f5e:	655a      	str	r2, [r3, #84]	; 0x54
	}

	/* Set default value */
	if (ul_default_level) {
  401f60:	687b      	ldr	r3, [r7, #4]
  401f62:	2b00      	cmp	r3, #0
  401f64:	d003      	beq.n	401f6e <pio_set_output+0x42>
		p_pio->PIO_SODR = ul_mask;
  401f66:	68fb      	ldr	r3, [r7, #12]
  401f68:	68ba      	ldr	r2, [r7, #8]
  401f6a:	631a      	str	r2, [r3, #48]	; 0x30
  401f6c:	e002      	b.n	401f74 <pio_set_output+0x48>
	} else {
		p_pio->PIO_CODR = ul_mask;
  401f6e:	68fb      	ldr	r3, [r7, #12]
  401f70:	68ba      	ldr	r2, [r7, #8]
  401f72:	635a      	str	r2, [r3, #52]	; 0x34
	}

	/* Configure pin(s) as output(s) */
	p_pio->PIO_OER = ul_mask;
  401f74:	68fb      	ldr	r3, [r7, #12]
  401f76:	68ba      	ldr	r2, [r7, #8]
  401f78:	611a      	str	r2, [r3, #16]
	p_pio->PIO_PER = ul_mask;
  401f7a:	68fb      	ldr	r3, [r7, #12]
  401f7c:	68ba      	ldr	r2, [r7, #8]
  401f7e:	601a      	str	r2, [r3, #0]
}
  401f80:	bf00      	nop
  401f82:	3710      	adds	r7, #16
  401f84:	46bd      	mov	sp, r7
  401f86:	bd80      	pop	{r7, pc}
  401f88:	004020e5 	.word	0x004020e5
  401f8c:	00401cf1 	.word	0x00401cf1

00401f90 <pio_configure>:
 *
 * \return Whether the pin(s) have been configured properly.
 */
uint32_t pio_configure(Pio *p_pio, const pio_type_t ul_type,
		const uint32_t ul_mask, const uint32_t ul_attribute)
{
  401f90:	b590      	push	{r4, r7, lr}
  401f92:	b087      	sub	sp, #28
  401f94:	af02      	add	r7, sp, #8
  401f96:	60f8      	str	r0, [r7, #12]
  401f98:	60b9      	str	r1, [r7, #8]
  401f9a:	607a      	str	r2, [r7, #4]
  401f9c:	603b      	str	r3, [r7, #0]
	/* Configure pins */
	switch (ul_type) {
  401f9e:	68bb      	ldr	r3, [r7, #8]
  401fa0:	f1b3 5f00 	cmp.w	r3, #536870912	; 0x20000000
  401fa4:	d016      	beq.n	401fd4 <pio_configure+0x44>
  401fa6:	f1b3 5f00 	cmp.w	r3, #536870912	; 0x20000000
  401faa:	d809      	bhi.n	401fc0 <pio_configure+0x30>
  401fac:	f1b3 5f80 	cmp.w	r3, #268435456	; 0x10000000
  401fb0:	d010      	beq.n	401fd4 <pio_configure+0x44>
  401fb2:	f1b3 5fc0 	cmp.w	r3, #402653184	; 0x18000000
  401fb6:	d00d      	beq.n	401fd4 <pio_configure+0x44>
  401fb8:	f1b3 6f00 	cmp.w	r3, #134217728	; 0x8000000
  401fbc:	d00a      	beq.n	401fd4 <pio_configure+0x44>
  401fbe:	e03d      	b.n	40203c <pio_configure+0xac>
  401fc0:	f1b3 5f40 	cmp.w	r3, #805306368	; 0x30000000
  401fc4:	d01a      	beq.n	401ffc <pio_configure+0x6c>
  401fc6:	f1b3 5f60 	cmp.w	r3, #939524096	; 0x38000000
  401fca:	d017      	beq.n	401ffc <pio_configure+0x6c>
  401fcc:	f1b3 5f20 	cmp.w	r3, #671088640	; 0x28000000
  401fd0:	d00e      	beq.n	401ff0 <pio_configure+0x60>
  401fd2:	e033      	b.n	40203c <pio_configure+0xac>
	case PIO_PERIPH_B:
#if (SAM3S || SAM3N || SAM4S || SAM4E || SAM4N || SAM4C || SAM4CP || SAM4CM || SAMV71 || SAMV70 || SAME70 || SAMS70)
	case PIO_PERIPH_C:
	case PIO_PERIPH_D:
#endif
		pio_set_peripheral(p_pio, ul_type, ul_mask);
  401fd4:	687a      	ldr	r2, [r7, #4]
  401fd6:	68b9      	ldr	r1, [r7, #8]
  401fd8:	68f8      	ldr	r0, [r7, #12]
  401fda:	4b1c      	ldr	r3, [pc, #112]	; (40204c <pio_configure+0xbc>)
  401fdc:	4798      	blx	r3
		pio_pull_up(p_pio, ul_mask, (ul_attribute & PIO_PULLUP));
  401fde:	683b      	ldr	r3, [r7, #0]
  401fe0:	f003 0301 	and.w	r3, r3, #1
  401fe4:	461a      	mov	r2, r3
  401fe6:	6879      	ldr	r1, [r7, #4]
  401fe8:	68f8      	ldr	r0, [r7, #12]
  401fea:	4b19      	ldr	r3, [pc, #100]	; (402050 <pio_configure+0xc0>)
  401fec:	4798      	blx	r3
		break;
  401fee:	e027      	b.n	402040 <pio_configure+0xb0>

	case PIO_INPUT:
		pio_set_input(p_pio, ul_mask, ul_attribute);
  401ff0:	683a      	ldr	r2, [r7, #0]
  401ff2:	6879      	ldr	r1, [r7, #4]
  401ff4:	68f8      	ldr	r0, [r7, #12]
  401ff6:	4b17      	ldr	r3, [pc, #92]	; (402054 <pio_configure+0xc4>)
  401ff8:	4798      	blx	r3
		break;
  401ffa:	e021      	b.n	402040 <pio_configure+0xb0>

	case PIO_OUTPUT_0:
	case PIO_OUTPUT_1:
		pio_set_output(p_pio, ul_mask, (ul_type == PIO_OUTPUT_1),
  401ffc:	68bb      	ldr	r3, [r7, #8]
  401ffe:	f1b3 5f60 	cmp.w	r3, #939524096	; 0x38000000
  402002:	bf0c      	ite	eq
  402004:	2301      	moveq	r3, #1
  402006:	2300      	movne	r3, #0
  402008:	b2db      	uxtb	r3, r3
  40200a:	461a      	mov	r2, r3
				(ul_attribute & PIO_OPENDRAIN) ? 1 : 0,
  40200c:	683b      	ldr	r3, [r7, #0]
  40200e:	f003 0304 	and.w	r3, r3, #4
		pio_set_output(p_pio, ul_mask, (ul_type == PIO_OUTPUT_1),
  402012:	2b00      	cmp	r3, #0
  402014:	bf14      	ite	ne
  402016:	2301      	movne	r3, #1
  402018:	2300      	moveq	r3, #0
  40201a:	b2db      	uxtb	r3, r3
  40201c:	4619      	mov	r1, r3
				(ul_attribute & PIO_PULLUP) ? 1 : 0);
  40201e:	683b      	ldr	r3, [r7, #0]
  402020:	f003 0301 	and.w	r3, r3, #1
		pio_set_output(p_pio, ul_mask, (ul_type == PIO_OUTPUT_1),
  402024:	2b00      	cmp	r3, #0
  402026:	bf14      	ite	ne
  402028:	2301      	movne	r3, #1
  40202a:	2300      	moveq	r3, #0
  40202c:	b2db      	uxtb	r3, r3
  40202e:	9300      	str	r3, [sp, #0]
  402030:	460b      	mov	r3, r1
  402032:	6879      	ldr	r1, [r7, #4]
  402034:	68f8      	ldr	r0, [r7, #12]
  402036:	4c08      	ldr	r4, [pc, #32]	; (402058 <pio_configure+0xc8>)
  402038:	47a0      	blx	r4
		break;
  40203a:	e001      	b.n	402040 <pio_configure+0xb0>

	default:
		return 0;
  40203c:	2300      	movs	r3, #0
  40203e:	e000      	b.n	402042 <pio_configure+0xb2>
	}

	return 1;
  402040:	2301      	movs	r3, #1
}
  402042:	4618      	mov	r0, r3
  402044:	3714      	adds	r7, #20
  402046:	46bd      	mov	sp, r7
  402048:	bd90      	pop	{r4, r7, pc}
  40204a:	bf00      	nop
  40204c:	00401d9b 	.word	0x00401d9b
  402050:	00401cf1 	.word	0x00401cf1
  402054:	00401ead 	.word	0x00401ead
  402058:	00401f2d 	.word	0x00401f2d

0040205c <pio_configure_interrupt>:
 * \param ul_mask Interrupt source bit map.
 * \param ul_attr Interrupt source attributes.
 */
void pio_configure_interrupt(Pio *p_pio, const uint32_t ul_mask,
		const uint32_t ul_attr)
{
  40205c:	b480      	push	{r7}
  40205e:	b085      	sub	sp, #20
  402060:	af00      	add	r7, sp, #0
  402062:	60f8      	str	r0, [r7, #12]
  402064:	60b9      	str	r1, [r7, #8]
  402066:	607a      	str	r2, [r7, #4]
	/* Configure additional interrupt mode registers. */
	if (ul_attr & PIO_IT_AIME) {
  402068:	687b      	ldr	r3, [r7, #4]
  40206a:	f003 0310 	and.w	r3, r3, #16
  40206e:	2b00      	cmp	r3, #0
  402070:	d020      	beq.n	4020b4 <pio_configure_interrupt+0x58>
		/* Enable additional interrupt mode. */
		p_pio->PIO_AIMER = ul_mask;
  402072:	68fb      	ldr	r3, [r7, #12]
  402074:	68ba      	ldr	r2, [r7, #8]
  402076:	f8c3 20b0 	str.w	r2, [r3, #176]	; 0xb0

		/* If bit field of the selected pin is 1, set as
		   Rising Edge/High level detection event. */
		if (ul_attr & PIO_IT_RE_OR_HL) {
  40207a:	687b      	ldr	r3, [r7, #4]
  40207c:	f003 0320 	and.w	r3, r3, #32
  402080:	2b00      	cmp	r3, #0
  402082:	d004      	beq.n	40208e <pio_configure_interrupt+0x32>
			/* Rising Edge or High Level */
			p_pio->PIO_REHLSR = ul_mask;
  402084:	68fb      	ldr	r3, [r7, #12]
  402086:	68ba      	ldr	r2, [r7, #8]
  402088:	f8c3 20d4 	str.w	r2, [r3, #212]	; 0xd4
  40208c:	e003      	b.n	402096 <pio_configure_interrupt+0x3a>
		} else {
			/* Falling Edge or Low Level */
			p_pio->PIO_FELLSR = ul_mask;
  40208e:	68fb      	ldr	r3, [r7, #12]
  402090:	68ba      	ldr	r2, [r7, #8]
  402092:	f8c3 20d0 	str.w	r2, [r3, #208]	; 0xd0
		}

		/* If bit field of the selected pin is 1, set as
		   edge detection source. */
		if (ul_attr & PIO_IT_EDGE) {
  402096:	687b      	ldr	r3, [r7, #4]
  402098:	f003 0340 	and.w	r3, r3, #64	; 0x40
  40209c:	2b00      	cmp	r3, #0
  40209e:	d004      	beq.n	4020aa <pio_configure_interrupt+0x4e>
			/* Edge select */
			p_pio->PIO_ESR = ul_mask;
  4020a0:	68fb      	ldr	r3, [r7, #12]
  4020a2:	68ba      	ldr	r2, [r7, #8]
  4020a4:	f8c3 20c0 	str.w	r2, [r3, #192]	; 0xc0
		}
	} else {
		/* Disable additional interrupt mode. */
		p_pio->PIO_AIMDR = ul_mask;
	}
}
  4020a8:	e008      	b.n	4020bc <pio_configure_interrupt+0x60>
			p_pio->PIO_LSR = ul_mask;
  4020aa:	68fb      	ldr	r3, [r7, #12]
  4020ac:	68ba      	ldr	r2, [r7, #8]
  4020ae:	f8c3 20c4 	str.w	r2, [r3, #196]	; 0xc4
}
  4020b2:	e003      	b.n	4020bc <pio_configure_interrupt+0x60>
		p_pio->PIO_AIMDR = ul_mask;
  4020b4:	68fb      	ldr	r3, [r7, #12]
  4020b6:	68ba      	ldr	r2, [r7, #8]
  4020b8:	f8c3 20b4 	str.w	r2, [r3, #180]	; 0xb4
}
  4020bc:	bf00      	nop
  4020be:	3714      	adds	r7, #20
  4020c0:	46bd      	mov	sp, r7
  4020c2:	f85d 7b04 	ldr.w	r7, [sp], #4
  4020c6:	4770      	bx	lr

004020c8 <pio_enable_interrupt>:
 *
 * \param p_pio Pointer to a PIO instance.
 * \param ul_mask Interrupt sources bit map.
 */
void pio_enable_interrupt(Pio *p_pio, const uint32_t ul_mask)
{
  4020c8:	b480      	push	{r7}
  4020ca:	b083      	sub	sp, #12
  4020cc:	af00      	add	r7, sp, #0
  4020ce:	6078      	str	r0, [r7, #4]
  4020d0:	6039      	str	r1, [r7, #0]
	p_pio->PIO_IER = ul_mask;
  4020d2:	687b      	ldr	r3, [r7, #4]
  4020d4:	683a      	ldr	r2, [r7, #0]
  4020d6:	641a      	str	r2, [r3, #64]	; 0x40
}
  4020d8:	bf00      	nop
  4020da:	370c      	adds	r7, #12
  4020dc:	46bd      	mov	sp, r7
  4020de:	f85d 7b04 	ldr.w	r7, [sp], #4
  4020e2:	4770      	bx	lr

004020e4 <pio_disable_interrupt>:
 *
 * \param p_pio Pointer to a PIO instance.
 * \param ul_mask Interrupt sources bit map.
 */
void pio_disable_interrupt(Pio *p_pio, const uint32_t ul_mask)
{
  4020e4:	b480      	push	{r7}
  4020e6:	b083      	sub	sp, #12
  4020e8:	af00      	add	r7, sp, #0
  4020ea:	6078      	str	r0, [r7, #4]
  4020ec:	6039      	str	r1, [r7, #0]
	p_pio->PIO_IDR = ul_mask;
  4020ee:	687b      	ldr	r3, [r7, #4]
  4020f0:	683a      	ldr	r2, [r7, #0]
  4020f2:	645a      	str	r2, [r3, #68]	; 0x44
}
  4020f4:	bf00      	nop
  4020f6:	370c      	adds	r7, #12
  4020f8:	46bd      	mov	sp, r7
  4020fa:	f85d 7b04 	ldr.w	r7, [sp], #4
  4020fe:	4770      	bx	lr

00402100 <pio_get_interrupt_status>:
 * \param p_pio Pointer to a PIO instance.
 *
 * \return The interrupt status value.
 */
uint32_t pio_get_interrupt_status(const Pio *p_pio)
{
  402100:	b480      	push	{r7}
  402102:	b083      	sub	sp, #12
  402104:	af00      	add	r7, sp, #0
  402106:	6078      	str	r0, [r7, #4]
	return p_pio->PIO_ISR;
  402108:	687b      	ldr	r3, [r7, #4]
  40210a:	6cdb      	ldr	r3, [r3, #76]	; 0x4c
}
  40210c:	4618      	mov	r0, r3
  40210e:	370c      	adds	r7, #12
  402110:	46bd      	mov	sp, r7
  402112:	f85d 7b04 	ldr.w	r7, [sp], #4
  402116:	4770      	bx	lr

00402118 <pio_get_interrupt_mask>:
 * \param p_pio Pointer to a PIO instance.
 *
 * \return The interrupt mask value.
 */
uint32_t pio_get_interrupt_mask(const Pio *p_pio)
{
  402118:	b480      	push	{r7}
  40211a:	b083      	sub	sp, #12
  40211c:	af00      	add	r7, sp, #0
  40211e:	6078      	str	r0, [r7, #4]
	return p_pio->PIO_IMR;
  402120:	687b      	ldr	r3, [r7, #4]
  402122:	6c9b      	ldr	r3, [r3, #72]	; 0x48
}
  402124:	4618      	mov	r0, r3
  402126:	370c      	adds	r7, #12
  402128:	46bd      	mov	sp, r7
  40212a:	f85d 7b04 	ldr.w	r7, [sp], #4
  40212e:	4770      	bx	lr

00402130 <pio_handler_process>:
 *
 * \param p_pio PIO controller base address.
 * \param ul_id PIO controller ID.
 */
void pio_handler_process(Pio *p_pio, uint32_t ul_id)
{
  402130:	b580      	push	{r7, lr}
  402132:	b084      	sub	sp, #16
  402134:	af00      	add	r7, sp, #0
  402136:	6078      	str	r0, [r7, #4]
  402138:	6039      	str	r1, [r7, #0]
	uint32_t status;
	uint32_t i;

	/* Read PIO controller status */
	status = pio_get_interrupt_status(p_pio);
  40213a:	6878      	ldr	r0, [r7, #4]
  40213c:	4b26      	ldr	r3, [pc, #152]	; (4021d8 <pio_handler_process+0xa8>)
  40213e:	4798      	blx	r3
  402140:	60f8      	str	r0, [r7, #12]
	status &= pio_get_interrupt_mask(p_pio);
  402142:	6878      	ldr	r0, [r7, #4]
  402144:	4b25      	ldr	r3, [pc, #148]	; (4021dc <pio_handler_process+0xac>)
  402146:	4798      	blx	r3
  402148:	4602      	mov	r2, r0
  40214a:	68fb      	ldr	r3, [r7, #12]
  40214c:	4013      	ands	r3, r2
  40214e:	60fb      	str	r3, [r7, #12]

	/* Check pending events */
	if (status != 0) {
  402150:	68fb      	ldr	r3, [r7, #12]
  402152:	2b00      	cmp	r3, #0
  402154:	d03c      	beq.n	4021d0 <pio_handler_process+0xa0>
		/* Find triggering source */
		i = 0;
  402156:	2300      	movs	r3, #0
  402158:	60bb      	str	r3, [r7, #8]
		while (status != 0) {
  40215a:	e034      	b.n	4021c6 <pio_handler_process+0x96>
			/* Source is configured on the same controller */
			if (gs_interrupt_sources[i].id == ul_id) {
  40215c:	4a20      	ldr	r2, [pc, #128]	; (4021e0 <pio_handler_process+0xb0>)
  40215e:	68bb      	ldr	r3, [r7, #8]
  402160:	011b      	lsls	r3, r3, #4
  402162:	4413      	add	r3, r2
  402164:	681a      	ldr	r2, [r3, #0]
  402166:	683b      	ldr	r3, [r7, #0]
  402168:	429a      	cmp	r2, r3
  40216a:	d126      	bne.n	4021ba <pio_handler_process+0x8a>
				/* Source has PIOs whose statuses have changed */
				if ((status & gs_interrupt_sources[i].mask) != 0) {
  40216c:	4a1c      	ldr	r2, [pc, #112]	; (4021e0 <pio_handler_process+0xb0>)
  40216e:	68bb      	ldr	r3, [r7, #8]
  402170:	011b      	lsls	r3, r3, #4
  402172:	4413      	add	r3, r2
  402174:	3304      	adds	r3, #4
  402176:	681a      	ldr	r2, [r3, #0]
  402178:	68fb      	ldr	r3, [r7, #12]
  40217a:	4013      	ands	r3, r2
  40217c:	2b00      	cmp	r3, #0
  40217e:	d01c      	beq.n	4021ba <pio_handler_process+0x8a>
					gs_interrupt_sources[i].handler(gs_interrupt_sources[i].id,
  402180:	4a17      	ldr	r2, [pc, #92]	; (4021e0 <pio_handler_process+0xb0>)
  402182:	68bb      	ldr	r3, [r7, #8]
  402184:	011b      	lsls	r3, r3, #4
  402186:	4413      	add	r3, r2
  402188:	330c      	adds	r3, #12
  40218a:	681b      	ldr	r3, [r3, #0]
  40218c:	4914      	ldr	r1, [pc, #80]	; (4021e0 <pio_handler_process+0xb0>)
  40218e:	68ba      	ldr	r2, [r7, #8]
  402190:	0112      	lsls	r2, r2, #4
  402192:	440a      	add	r2, r1
  402194:	6810      	ldr	r0, [r2, #0]
  402196:	4912      	ldr	r1, [pc, #72]	; (4021e0 <pio_handler_process+0xb0>)
  402198:	68ba      	ldr	r2, [r7, #8]
  40219a:	0112      	lsls	r2, r2, #4
  40219c:	440a      	add	r2, r1
  40219e:	3204      	adds	r2, #4
  4021a0:	6812      	ldr	r2, [r2, #0]
  4021a2:	4611      	mov	r1, r2
  4021a4:	4798      	blx	r3
							gs_interrupt_sources[i].mask);
					status &= ~(gs_interrupt_sources[i].mask);
  4021a6:	4a0e      	ldr	r2, [pc, #56]	; (4021e0 <pio_handler_process+0xb0>)
  4021a8:	68bb      	ldr	r3, [r7, #8]
  4021aa:	011b      	lsls	r3, r3, #4
  4021ac:	4413      	add	r3, r2
  4021ae:	3304      	adds	r3, #4
  4021b0:	681b      	ldr	r3, [r3, #0]
  4021b2:	43db      	mvns	r3, r3
  4021b4:	68fa      	ldr	r2, [r7, #12]
  4021b6:	4013      	ands	r3, r2
  4021b8:	60fb      	str	r3, [r7, #12]
				}
			}
			i++;
  4021ba:	68bb      	ldr	r3, [r7, #8]
  4021bc:	3301      	adds	r3, #1
  4021be:	60bb      	str	r3, [r7, #8]
			if (i >= MAX_INTERRUPT_SOURCES) {
  4021c0:	68bb      	ldr	r3, [r7, #8]
  4021c2:	2b06      	cmp	r3, #6
  4021c4:	d803      	bhi.n	4021ce <pio_handler_process+0x9e>
		while (status != 0) {
  4021c6:	68fb      	ldr	r3, [r7, #12]
  4021c8:	2b00      	cmp	r3, #0
  4021ca:	d1c7      	bne.n	40215c <pio_handler_process+0x2c>
		if (pio_capture_handler) {
			pio_capture_handler(p_pio);
		}
	}
#endif
}
  4021cc:	e000      	b.n	4021d0 <pio_handler_process+0xa0>
				break;
  4021ce:	bf00      	nop
}
  4021d0:	bf00      	nop
  4021d2:	3710      	adds	r7, #16
  4021d4:	46bd      	mov	sp, r7
  4021d6:	bd80      	pop	{r7, pc}
  4021d8:	00402101 	.word	0x00402101
  4021dc:	00402119 	.word	0x00402119
  4021e0:	20400bf4 	.word	0x20400bf4

004021e4 <pio_handler_set>:
 *
 * \return 0 if successful, 1 if the maximum number of sources has been defined.
 */
uint32_t pio_handler_set(Pio *p_pio, uint32_t ul_id, uint32_t ul_mask,
		uint32_t ul_attr, void (*p_handler) (uint32_t, uint32_t))
{
  4021e4:	b580      	push	{r7, lr}
  4021e6:	b086      	sub	sp, #24
  4021e8:	af00      	add	r7, sp, #0
  4021ea:	60f8      	str	r0, [r7, #12]
  4021ec:	60b9      	str	r1, [r7, #8]
  4021ee:	607a      	str	r2, [r7, #4]
  4021f0:	603b      	str	r3, [r7, #0]
    uint8_t i;
	struct s_interrupt_source *pSource;

	if (gs_ul_nb_sources >= MAX_INTERRUPT_SOURCES)
  4021f2:	4b21      	ldr	r3, [pc, #132]	; (402278 <pio_handler_set+0x94>)
  4021f4:	681b      	ldr	r3, [r3, #0]
  4021f6:	2b06      	cmp	r3, #6
  4021f8:	d901      	bls.n	4021fe <pio_handler_set+0x1a>
		return 1;
  4021fa:	2301      	movs	r3, #1
  4021fc:	e038      	b.n	402270 <pio_handler_set+0x8c>

    /* Check interrupt for this pin, if already defined, redefine it. */
	for (i = 0; i <= gs_ul_nb_sources; i++) {
  4021fe:	2300      	movs	r3, #0
  402200:	75fb      	strb	r3, [r7, #23]
  402202:	e011      	b.n	402228 <pio_handler_set+0x44>
		pSource = &(gs_interrupt_sources[i]);
  402204:	7dfb      	ldrb	r3, [r7, #23]
  402206:	011b      	lsls	r3, r3, #4
  402208:	4a1c      	ldr	r2, [pc, #112]	; (40227c <pio_handler_set+0x98>)
  40220a:	4413      	add	r3, r2
  40220c:	613b      	str	r3, [r7, #16]
		if (pSource->id == ul_id && pSource->mask == ul_mask) {
  40220e:	693b      	ldr	r3, [r7, #16]
  402210:	681a      	ldr	r2, [r3, #0]
  402212:	68bb      	ldr	r3, [r7, #8]
  402214:	429a      	cmp	r2, r3
  402216:	d104      	bne.n	402222 <pio_handler_set+0x3e>
  402218:	693b      	ldr	r3, [r7, #16]
  40221a:	685a      	ldr	r2, [r3, #4]
  40221c:	687b      	ldr	r3, [r7, #4]
  40221e:	429a      	cmp	r2, r3
  402220:	d008      	beq.n	402234 <pio_handler_set+0x50>
	for (i = 0; i <= gs_ul_nb_sources; i++) {
  402222:	7dfb      	ldrb	r3, [r7, #23]
  402224:	3301      	adds	r3, #1
  402226:	75fb      	strb	r3, [r7, #23]
  402228:	7dfa      	ldrb	r2, [r7, #23]
  40222a:	4b13      	ldr	r3, [pc, #76]	; (402278 <pio_handler_set+0x94>)
  40222c:	681b      	ldr	r3, [r3, #0]
  40222e:	429a      	cmp	r2, r3
  402230:	d9e8      	bls.n	402204 <pio_handler_set+0x20>
  402232:	e000      	b.n	402236 <pio_handler_set+0x52>
			break;
  402234:	bf00      	nop
		}
	}

	/* Define new source */
	pSource->id = ul_id;
  402236:	693b      	ldr	r3, [r7, #16]
  402238:	68ba      	ldr	r2, [r7, #8]
  40223a:	601a      	str	r2, [r3, #0]
	pSource->mask = ul_mask;
  40223c:	693b      	ldr	r3, [r7, #16]
  40223e:	687a      	ldr	r2, [r7, #4]
  402240:	605a      	str	r2, [r3, #4]
	pSource->attr = ul_attr;
  402242:	693b      	ldr	r3, [r7, #16]
  402244:	683a      	ldr	r2, [r7, #0]
  402246:	609a      	str	r2, [r3, #8]
	pSource->handler = p_handler;
  402248:	693b      	ldr	r3, [r7, #16]
  40224a:	6a3a      	ldr	r2, [r7, #32]
  40224c:	60da      	str	r2, [r3, #12]
	if (i == gs_ul_nb_sources + 1) {
  40224e:	7dfa      	ldrb	r2, [r7, #23]
  402250:	4b09      	ldr	r3, [pc, #36]	; (402278 <pio_handler_set+0x94>)
  402252:	681b      	ldr	r3, [r3, #0]
  402254:	3301      	adds	r3, #1
  402256:	429a      	cmp	r2, r3
  402258:	d104      	bne.n	402264 <pio_handler_set+0x80>
		gs_ul_nb_sources++;
  40225a:	4b07      	ldr	r3, [pc, #28]	; (402278 <pio_handler_set+0x94>)
  40225c:	681b      	ldr	r3, [r3, #0]
  40225e:	3301      	adds	r3, #1
  402260:	4a05      	ldr	r2, [pc, #20]	; (402278 <pio_handler_set+0x94>)
  402262:	6013      	str	r3, [r2, #0]
	}

	/* Configure interrupt mode */
	pio_configure_interrupt(p_pio, ul_mask, ul_attr);
  402264:	683a      	ldr	r2, [r7, #0]
  402266:	6879      	ldr	r1, [r7, #4]
  402268:	68f8      	ldr	r0, [r7, #12]
  40226a:	4b05      	ldr	r3, [pc, #20]	; (402280 <pio_handler_set+0x9c>)
  40226c:	4798      	blx	r3

	return 0;
  40226e:	2300      	movs	r3, #0
}
  402270:	4618      	mov	r0, r3
  402272:	3718      	adds	r7, #24
  402274:	46bd      	mov	sp, r7
  402276:	bd80      	pop	{r7, pc}
  402278:	20400c64 	.word	0x20400c64
  40227c:	20400bf4 	.word	0x20400bf4
  402280:	0040205d 	.word	0x0040205d

00402284 <PIOA_Handler>:
/**
 * \brief Parallel IO Controller A interrupt handler.
 * Redefined PIOA interrupt handler for NVIC interrupt table.
 */
void PIOA_Handler(void)
{
  402284:	b580      	push	{r7, lr}
  402286:	af00      	add	r7, sp, #0
	pio_handler_process(PIOA, ID_PIOA);
  402288:	210a      	movs	r1, #10
  40228a:	4802      	ldr	r0, [pc, #8]	; (402294 <PIOA_Handler+0x10>)
  40228c:	4b02      	ldr	r3, [pc, #8]	; (402298 <PIOA_Handler+0x14>)
  40228e:	4798      	blx	r3
}
  402290:	bf00      	nop
  402292:	bd80      	pop	{r7, pc}
  402294:	400e0e00 	.word	0x400e0e00
  402298:	00402131 	.word	0x00402131

0040229c <PIOB_Handler>:
/**
 * \brief Parallel IO Controller B interrupt handler
 * Redefined PIOB interrupt handler for NVIC interrupt table.
 */
void PIOB_Handler(void)
{
  40229c:	b580      	push	{r7, lr}
  40229e:	af00      	add	r7, sp, #0
    pio_handler_process(PIOB, ID_PIOB);
  4022a0:	210b      	movs	r1, #11
  4022a2:	4802      	ldr	r0, [pc, #8]	; (4022ac <PIOB_Handler+0x10>)
  4022a4:	4b02      	ldr	r3, [pc, #8]	; (4022b0 <PIOB_Handler+0x14>)
  4022a6:	4798      	blx	r3
}
  4022a8:	bf00      	nop
  4022aa:	bd80      	pop	{r7, pc}
  4022ac:	400e1000 	.word	0x400e1000
  4022b0:	00402131 	.word	0x00402131

004022b4 <PIOC_Handler>:
/**
 * \brief Parallel IO Controller C interrupt handler.
 * Redefined PIOC interrupt handler for NVIC interrupt table.
 */
void PIOC_Handler(void)
{
  4022b4:	b580      	push	{r7, lr}
  4022b6:	af00      	add	r7, sp, #0
	pio_handler_process(PIOC, ID_PIOC);
  4022b8:	210c      	movs	r1, #12
  4022ba:	4802      	ldr	r0, [pc, #8]	; (4022c4 <PIOC_Handler+0x10>)
  4022bc:	4b02      	ldr	r3, [pc, #8]	; (4022c8 <PIOC_Handler+0x14>)
  4022be:	4798      	blx	r3
}
  4022c0:	bf00      	nop
  4022c2:	bd80      	pop	{r7, pc}
  4022c4:	400e1200 	.word	0x400e1200
  4022c8:	00402131 	.word	0x00402131

004022cc <PIOD_Handler>:
/**
 * \brief Parallel IO Controller D interrupt handler.
 * Redefined PIOD interrupt handler for NVIC interrupt table.
 */
void PIOD_Handler(void)
{
  4022cc:	b580      	push	{r7, lr}
  4022ce:	af00      	add	r7, sp, #0
	pio_handler_process(PIOD, ID_PIOD);
  4022d0:	2110      	movs	r1, #16
  4022d2:	4802      	ldr	r0, [pc, #8]	; (4022dc <PIOD_Handler+0x10>)
  4022d4:	4b02      	ldr	r3, [pc, #8]	; (4022e0 <PIOD_Handler+0x14>)
  4022d6:	4798      	blx	r3
}
  4022d8:	bf00      	nop
  4022da:	bd80      	pop	{r7, pc}
  4022dc:	400e1400 	.word	0x400e1400
  4022e0:	00402131 	.word	0x00402131

004022e4 <PIOE_Handler>:
/**
 * \brief Parallel IO Controller E interrupt handler.
 * Redefined PIOE interrupt handler for NVIC interrupt table.
 */
void PIOE_Handler(void)
{
  4022e4:	b580      	push	{r7, lr}
  4022e6:	af00      	add	r7, sp, #0
	pio_handler_process(PIOE, ID_PIOE);
  4022e8:	2111      	movs	r1, #17
  4022ea:	4802      	ldr	r0, [pc, #8]	; (4022f4 <PIOE_Handler+0x10>)
  4022ec:	4b02      	ldr	r3, [pc, #8]	; (4022f8 <PIOE_Handler+0x14>)
  4022ee:	4798      	blx	r3
}
  4022f0:	bf00      	nop
  4022f2:	bd80      	pop	{r7, pc}
  4022f4:	400e1600 	.word	0x400e1600
  4022f8:	00402131 	.word	0x00402131

004022fc <pmc_mck_set_division>:
 * \brief Set the division of the MCK.
 *
 * \param ul_div Division value.
 */
void pmc_mck_set_division(uint32_t ul_div)
{
  4022fc:	b480      	push	{r7}
  4022fe:	b083      	sub	sp, #12
  402300:	af00      	add	r7, sp, #0
  402302:	6078      	str	r0, [r7, #4]
	switch (ul_div) {
  402304:	687b      	ldr	r3, [r7, #4]
  402306:	3b01      	subs	r3, #1
  402308:	2b03      	cmp	r3, #3
  40230a:	d81a      	bhi.n	402342 <pmc_mck_set_division+0x46>
  40230c:	a201      	add	r2, pc, #4	; (adr r2, 402314 <pmc_mck_set_division+0x18>)
  40230e:	f852 f023 	ldr.w	pc, [r2, r3, lsl #2]
  402312:	bf00      	nop
  402314:	00402325 	.word	0x00402325
  402318:	0040232b 	.word	0x0040232b
  40231c:	00402333 	.word	0x00402333
  402320:	0040233b 	.word	0x0040233b
		case 1:
			ul_div = PMC_MCKR_MDIV_EQ_PCK;
  402324:	2300      	movs	r3, #0
  402326:	607b      	str	r3, [r7, #4]
			break;
  402328:	e00e      	b.n	402348 <pmc_mck_set_division+0x4c>
		case 2:
			ul_div = PMC_MCKR_MDIV_PCK_DIV2;
  40232a:	f44f 7380 	mov.w	r3, #256	; 0x100
  40232e:	607b      	str	r3, [r7, #4]
			break;
  402330:	e00a      	b.n	402348 <pmc_mck_set_division+0x4c>
		case 3:
			ul_div = PMC_MCKR_MDIV_PCK_DIV3;
  402332:	f44f 7340 	mov.w	r3, #768	; 0x300
  402336:	607b      	str	r3, [r7, #4]
			break;
  402338:	e006      	b.n	402348 <pmc_mck_set_division+0x4c>
		case 4:
			ul_div = PMC_MCKR_MDIV_PCK_DIV4;
  40233a:	f44f 7300 	mov.w	r3, #512	; 0x200
  40233e:	607b      	str	r3, [r7, #4]
			break;
  402340:	e002      	b.n	402348 <pmc_mck_set_division+0x4c>
		default:
			ul_div = PMC_MCKR_MDIV_EQ_PCK;
  402342:	2300      	movs	r3, #0
  402344:	607b      	str	r3, [r7, #4]
			break;
  402346:	bf00      	nop
	}
	PMC->PMC_MCKR =
  402348:	490a      	ldr	r1, [pc, #40]	; (402374 <pmc_mck_set_division+0x78>)
			(PMC->PMC_MCKR & (~PMC_MCKR_MDIV_Msk)) | ul_div;
  40234a:	4b0a      	ldr	r3, [pc, #40]	; (402374 <pmc_mck_set_division+0x78>)
  40234c:	6b1b      	ldr	r3, [r3, #48]	; 0x30
  40234e:	f423 7240 	bic.w	r2, r3, #768	; 0x300
  402352:	687b      	ldr	r3, [r7, #4]
  402354:	4313      	orrs	r3, r2
	PMC->PMC_MCKR =
  402356:	630b      	str	r3, [r1, #48]	; 0x30
	while (!(PMC->PMC_SR & PMC_SR_MCKRDY));
  402358:	bf00      	nop
  40235a:	4b06      	ldr	r3, [pc, #24]	; (402374 <pmc_mck_set_division+0x78>)
  40235c:	6e9b      	ldr	r3, [r3, #104]	; 0x68
  40235e:	f003 0308 	and.w	r3, r3, #8
  402362:	2b00      	cmp	r3, #0
  402364:	d0f9      	beq.n	40235a <pmc_mck_set_division+0x5e>
}
  402366:	bf00      	nop
  402368:	370c      	adds	r7, #12
  40236a:	46bd      	mov	sp, r7
  40236c:	f85d 7b04 	ldr.w	r7, [sp], #4
  402370:	4770      	bx	lr
  402372:	bf00      	nop
  402374:	400e0600 	.word	0x400e0600

00402378 <pmc_switch_mck_to_pllack>:
 *
 * \retval 0 Success.
 * \retval 1 Timeout error.
 */
uint32_t pmc_switch_mck_to_pllack(uint32_t ul_pres)
{
  402378:	b480      	push	{r7}
  40237a:	b085      	sub	sp, #20
  40237c:	af00      	add	r7, sp, #0
  40237e:	6078      	str	r0, [r7, #4]
	uint32_t ul_timeout;

	PMC->PMC_MCKR = (PMC->PMC_MCKR & (~PMC_MCKR_PRES_Msk)) | ul_pres;
  402380:	491d      	ldr	r1, [pc, #116]	; (4023f8 <pmc_switch_mck_to_pllack+0x80>)
  402382:	4b1d      	ldr	r3, [pc, #116]	; (4023f8 <pmc_switch_mck_to_pllack+0x80>)
  402384:	6b1b      	ldr	r3, [r3, #48]	; 0x30
  402386:	f023 0270 	bic.w	r2, r3, #112	; 0x70
  40238a:	687b      	ldr	r3, [r7, #4]
  40238c:	4313      	orrs	r3, r2
  40238e:	630b      	str	r3, [r1, #48]	; 0x30
	for (ul_timeout = PMC_TIMEOUT; !(PMC->PMC_SR & PMC_SR_MCKRDY);
  402390:	f44f 5380 	mov.w	r3, #4096	; 0x1000
  402394:	60fb      	str	r3, [r7, #12]
  402396:	e007      	b.n	4023a8 <pmc_switch_mck_to_pllack+0x30>
			--ul_timeout) {
		if (ul_timeout == 0) {
  402398:	68fb      	ldr	r3, [r7, #12]
  40239a:	2b00      	cmp	r3, #0
  40239c:	d101      	bne.n	4023a2 <pmc_switch_mck_to_pllack+0x2a>
			return 1;
  40239e:	2301      	movs	r3, #1
  4023a0:	e023      	b.n	4023ea <pmc_switch_mck_to_pllack+0x72>
			--ul_timeout) {
  4023a2:	68fb      	ldr	r3, [r7, #12]
  4023a4:	3b01      	subs	r3, #1
  4023a6:	60fb      	str	r3, [r7, #12]
	for (ul_timeout = PMC_TIMEOUT; !(PMC->PMC_SR & PMC_SR_MCKRDY);
  4023a8:	4b13      	ldr	r3, [pc, #76]	; (4023f8 <pmc_switch_mck_to_pllack+0x80>)
  4023aa:	6e9b      	ldr	r3, [r3, #104]	; 0x68
  4023ac:	f003 0308 	and.w	r3, r3, #8
  4023b0:	2b00      	cmp	r3, #0
  4023b2:	d0f1      	beq.n	402398 <pmc_switch_mck_to_pllack+0x20>
		}
	}

	PMC->PMC_MCKR = (PMC->PMC_MCKR & (~PMC_MCKR_CSS_Msk)) |
  4023b4:	4a10      	ldr	r2, [pc, #64]	; (4023f8 <pmc_switch_mck_to_pllack+0x80>)
  4023b6:	4b10      	ldr	r3, [pc, #64]	; (4023f8 <pmc_switch_mck_to_pllack+0x80>)
  4023b8:	6b1b      	ldr	r3, [r3, #48]	; 0x30
  4023ba:	f023 0303 	bic.w	r3, r3, #3
  4023be:	f043 0302 	orr.w	r3, r3, #2
  4023c2:	6313      	str	r3, [r2, #48]	; 0x30
			PMC_MCKR_CSS_PLLA_CLK;

	for (ul_timeout = PMC_TIMEOUT; !(PMC->PMC_SR & PMC_SR_MCKRDY);
  4023c4:	f44f 5380 	mov.w	r3, #4096	; 0x1000
  4023c8:	60fb      	str	r3, [r7, #12]
  4023ca:	e007      	b.n	4023dc <pmc_switch_mck_to_pllack+0x64>
			--ul_timeout) {
		if (ul_timeout == 0) {
  4023cc:	68fb      	ldr	r3, [r7, #12]
  4023ce:	2b00      	cmp	r3, #0
  4023d0:	d101      	bne.n	4023d6 <pmc_switch_mck_to_pllack+0x5e>
			return 1;
  4023d2:	2301      	movs	r3, #1
  4023d4:	e009      	b.n	4023ea <pmc_switch_mck_to_pllack+0x72>
			--ul_timeout) {
  4023d6:	68fb      	ldr	r3, [r7, #12]
  4023d8:	3b01      	subs	r3, #1
  4023da:	60fb      	str	r3, [r7, #12]
	for (ul_timeout = PMC_TIMEOUT; !(PMC->PMC_SR & PMC_SR_MCKRDY);
  4023dc:	4b06      	ldr	r3, [pc, #24]	; (4023f8 <pmc_switch_mck_to_pllack+0x80>)
  4023de:	6e9b      	ldr	r3, [r3, #104]	; 0x68
  4023e0:	f003 0308 	and.w	r3, r3, #8
  4023e4:	2b00      	cmp	r3, #0
  4023e6:	d0f1      	beq.n	4023cc <pmc_switch_mck_to_pllack+0x54>
		}
	}

	return 0;
  4023e8:	2300      	movs	r3, #0
}
  4023ea:	4618      	mov	r0, r3
  4023ec:	3714      	adds	r7, #20
  4023ee:	46bd      	mov	sp, r7
  4023f0:	f85d 7b04 	ldr.w	r7, [sp], #4
  4023f4:	4770      	bx	lr
  4023f6:	bf00      	nop
  4023f8:	400e0600 	.word	0x400e0600

004023fc <pmc_switch_sclk_to_32kxtal>:
 *       VDDIO power supply.
 *
 * \param ul_bypass 0 for Xtal, 1 for bypass.
 */
void pmc_switch_sclk_to_32kxtal(uint32_t ul_bypass)
{
  4023fc:	b480      	push	{r7}
  4023fe:	b083      	sub	sp, #12
  402400:	af00      	add	r7, sp, #0
  402402:	6078      	str	r0, [r7, #4]
	/* Set Bypass mode if required */
	if (ul_bypass == 1) {
  402404:	687b      	ldr	r3, [r7, #4]
  402406:	2b01      	cmp	r3, #1
  402408:	d105      	bne.n	402416 <pmc_switch_sclk_to_32kxtal+0x1a>
		SUPC->SUPC_MR |= SUPC_MR_KEY_PASSWD |
  40240a:	4907      	ldr	r1, [pc, #28]	; (402428 <pmc_switch_sclk_to_32kxtal+0x2c>)
  40240c:	4b06      	ldr	r3, [pc, #24]	; (402428 <pmc_switch_sclk_to_32kxtal+0x2c>)
  40240e:	689a      	ldr	r2, [r3, #8]
  402410:	4b06      	ldr	r3, [pc, #24]	; (40242c <pmc_switch_sclk_to_32kxtal+0x30>)
  402412:	4313      	orrs	r3, r2
  402414:	608b      	str	r3, [r1, #8]
			SUPC_MR_OSCBYPASS;
	}

	SUPC->SUPC_CR = SUPC_CR_KEY_PASSWD | SUPC_CR_XTALSEL;
  402416:	4b04      	ldr	r3, [pc, #16]	; (402428 <pmc_switch_sclk_to_32kxtal+0x2c>)
  402418:	4a05      	ldr	r2, [pc, #20]	; (402430 <pmc_switch_sclk_to_32kxtal+0x34>)
  40241a:	601a      	str	r2, [r3, #0]
}
  40241c:	bf00      	nop
  40241e:	370c      	adds	r7, #12
  402420:	46bd      	mov	sp, r7
  402422:	f85d 7b04 	ldr.w	r7, [sp], #4
  402426:	4770      	bx	lr
  402428:	400e1810 	.word	0x400e1810
  40242c:	a5100000 	.word	0xa5100000
  402430:	a5000008 	.word	0xa5000008

00402434 <pmc_osc_is_ready_32kxtal>:
 *
 * \retval 1 External 32k Xtal is ready.
 * \retval 0 External 32k Xtal is not ready.
 */
uint32_t pmc_osc_is_ready_32kxtal(void)
{
  402434:	b480      	push	{r7}
  402436:	af00      	add	r7, sp, #0
	return ((SUPC->SUPC_SR & SUPC_SR_OSCSEL)
  402438:	4b09      	ldr	r3, [pc, #36]	; (402460 <pmc_osc_is_ready_32kxtal+0x2c>)
  40243a:	695b      	ldr	r3, [r3, #20]
  40243c:	f003 0380 	and.w	r3, r3, #128	; 0x80
			&& (PMC->PMC_SR & PMC_SR_OSCSELS));
  402440:	2b00      	cmp	r3, #0
  402442:	d007      	beq.n	402454 <pmc_osc_is_ready_32kxtal+0x20>
  402444:	4b07      	ldr	r3, [pc, #28]	; (402464 <pmc_osc_is_ready_32kxtal+0x30>)
  402446:	6e9b      	ldr	r3, [r3, #104]	; 0x68
  402448:	f003 0380 	and.w	r3, r3, #128	; 0x80
  40244c:	2b00      	cmp	r3, #0
  40244e:	d001      	beq.n	402454 <pmc_osc_is_ready_32kxtal+0x20>
  402450:	2301      	movs	r3, #1
  402452:	e000      	b.n	402456 <pmc_osc_is_ready_32kxtal+0x22>
  402454:	2300      	movs	r3, #0
}
  402456:	4618      	mov	r0, r3
  402458:	46bd      	mov	sp, r7
  40245a:	f85d 7b04 	ldr.w	r7, [sp], #4
  40245e:	4770      	bx	lr
  402460:	400e1810 	.word	0x400e1810
  402464:	400e0600 	.word	0x400e0600

00402468 <pmc_switch_mainck_to_fastrc>:
 * \retval 0 Success.
 * \retval 1 Timeout error.
 * \retval 2 Invalid frequency.
 */
void pmc_switch_mainck_to_fastrc(uint32_t ul_moscrcf)
{
  402468:	b480      	push	{r7}
  40246a:	b083      	sub	sp, #12
  40246c:	af00      	add	r7, sp, #0
  40246e:	6078      	str	r0, [r7, #4]
	/* Enable Fast RC oscillator but DO NOT switch to RC now */
	PMC->CKGR_MOR |= (CKGR_MOR_KEY_PASSWD | CKGR_MOR_MOSCRCEN);
  402470:	4915      	ldr	r1, [pc, #84]	; (4024c8 <pmc_switch_mainck_to_fastrc+0x60>)
  402472:	4b15      	ldr	r3, [pc, #84]	; (4024c8 <pmc_switch_mainck_to_fastrc+0x60>)
  402474:	6a1a      	ldr	r2, [r3, #32]
  402476:	4b15      	ldr	r3, [pc, #84]	; (4024cc <pmc_switch_mainck_to_fastrc+0x64>)
  402478:	4313      	orrs	r3, r2
  40247a:	620b      	str	r3, [r1, #32]

	/* Wait the Fast RC to stabilize */
	while (!(PMC->PMC_SR & PMC_SR_MOSCRCS));
  40247c:	bf00      	nop
  40247e:	4b12      	ldr	r3, [pc, #72]	; (4024c8 <pmc_switch_mainck_to_fastrc+0x60>)
  402480:	6e9b      	ldr	r3, [r3, #104]	; 0x68
  402482:	f403 3300 	and.w	r3, r3, #131072	; 0x20000
  402486:	2b00      	cmp	r3, #0
  402488:	d0f9      	beq.n	40247e <pmc_switch_mainck_to_fastrc+0x16>

	/* Change Fast RC oscillator frequency */
	PMC->CKGR_MOR = (PMC->CKGR_MOR & ~CKGR_MOR_MOSCRCF_Msk) |
  40248a:	490f      	ldr	r1, [pc, #60]	; (4024c8 <pmc_switch_mainck_to_fastrc+0x60>)
  40248c:	4b0e      	ldr	r3, [pc, #56]	; (4024c8 <pmc_switch_mainck_to_fastrc+0x60>)
  40248e:	6a1a      	ldr	r2, [r3, #32]
  402490:	4b0f      	ldr	r3, [pc, #60]	; (4024d0 <pmc_switch_mainck_to_fastrc+0x68>)
  402492:	4013      	ands	r3, r2
			CKGR_MOR_KEY_PASSWD | ul_moscrcf;
  402494:	687a      	ldr	r2, [r7, #4]
  402496:	4313      	orrs	r3, r2
  402498:	f443 135c 	orr.w	r3, r3, #3604480	; 0x370000
	PMC->CKGR_MOR = (PMC->CKGR_MOR & ~CKGR_MOR_MOSCRCF_Msk) |
  40249c:	620b      	str	r3, [r1, #32]

	/* Wait the Fast RC to stabilize */
	while (!(PMC->PMC_SR & PMC_SR_MOSCRCS));
  40249e:	bf00      	nop
  4024a0:	4b09      	ldr	r3, [pc, #36]	; (4024c8 <pmc_switch_mainck_to_fastrc+0x60>)
  4024a2:	6e9b      	ldr	r3, [r3, #104]	; 0x68
  4024a4:	f403 3300 	and.w	r3, r3, #131072	; 0x20000
  4024a8:	2b00      	cmp	r3, #0
  4024aa:	d0f9      	beq.n	4024a0 <pmc_switch_mainck_to_fastrc+0x38>

	/* Switch to Fast RC */
	PMC->CKGR_MOR = (PMC->CKGR_MOR & ~CKGR_MOR_MOSCSEL) |
  4024ac:	4906      	ldr	r1, [pc, #24]	; (4024c8 <pmc_switch_mainck_to_fastrc+0x60>)
  4024ae:	4b06      	ldr	r3, [pc, #24]	; (4024c8 <pmc_switch_mainck_to_fastrc+0x60>)
  4024b0:	6a1a      	ldr	r2, [r3, #32]
  4024b2:	4b08      	ldr	r3, [pc, #32]	; (4024d4 <pmc_switch_mainck_to_fastrc+0x6c>)
  4024b4:	4013      	ands	r3, r2
  4024b6:	f443 135c 	orr.w	r3, r3, #3604480	; 0x370000
  4024ba:	620b      	str	r3, [r1, #32]
			CKGR_MOR_KEY_PASSWD;
}
  4024bc:	bf00      	nop
  4024be:	370c      	adds	r7, #12
  4024c0:	46bd      	mov	sp, r7
  4024c2:	f85d 7b04 	ldr.w	r7, [sp], #4
  4024c6:	4770      	bx	lr
  4024c8:	400e0600 	.word	0x400e0600
  4024cc:	00370008 	.word	0x00370008
  4024d0:	ffc8ff8f 	.word	0xffc8ff8f
  4024d4:	fec8ffff 	.word	0xfec8ffff

004024d8 <pmc_switch_mainck_to_xtal>:
 * \retval 0 Success.
 * \retval 1 Timeout error.
 */
void pmc_switch_mainck_to_xtal(uint32_t ul_bypass,
		uint32_t ul_xtal_startup_time)
{
  4024d8:	b480      	push	{r7}
  4024da:	b083      	sub	sp, #12
  4024dc:	af00      	add	r7, sp, #0
  4024de:	6078      	str	r0, [r7, #4]
  4024e0:	6039      	str	r1, [r7, #0]
	/* Enable Main Xtal oscillator */
	if (ul_bypass) {
  4024e2:	687b      	ldr	r3, [r7, #4]
  4024e4:	2b00      	cmp	r3, #0
  4024e6:	d008      	beq.n	4024fa <pmc_switch_mainck_to_xtal+0x22>
		PMC->CKGR_MOR = (PMC->CKGR_MOR & ~CKGR_MOR_MOSCXTEN) |
  4024e8:	4913      	ldr	r1, [pc, #76]	; (402538 <pmc_switch_mainck_to_xtal+0x60>)
  4024ea:	4b13      	ldr	r3, [pc, #76]	; (402538 <pmc_switch_mainck_to_xtal+0x60>)
  4024ec:	6a1b      	ldr	r3, [r3, #32]
				CKGR_MOR_KEY_PASSWD | CKGR_MOR_MOSCXTBY |
  4024ee:	4a13      	ldr	r2, [pc, #76]	; (40253c <pmc_switch_mainck_to_xtal+0x64>)
  4024f0:	401a      	ands	r2, r3
  4024f2:	4b13      	ldr	r3, [pc, #76]	; (402540 <pmc_switch_mainck_to_xtal+0x68>)
  4024f4:	4313      	orrs	r3, r2
		PMC->CKGR_MOR = (PMC->CKGR_MOR & ~CKGR_MOR_MOSCXTEN) |
  4024f6:	620b      	str	r3, [r1, #32]
		/* Wait the Xtal to stabilize */
		while (!(PMC->PMC_SR & PMC_SR_MOSCXTS));

		PMC->CKGR_MOR |= CKGR_MOR_KEY_PASSWD | CKGR_MOR_MOSCSEL;
	}
}
  4024f8:	e018      	b.n	40252c <pmc_switch_mainck_to_xtal+0x54>
		PMC->CKGR_MOR = (PMC->CKGR_MOR & ~CKGR_MOR_MOSCXTBY) |
  4024fa:	490f      	ldr	r1, [pc, #60]	; (402538 <pmc_switch_mainck_to_xtal+0x60>)
  4024fc:	4b0e      	ldr	r3, [pc, #56]	; (402538 <pmc_switch_mainck_to_xtal+0x60>)
  4024fe:	6a1a      	ldr	r2, [r3, #32]
				CKGR_MOR_KEY_PASSWD | CKGR_MOR_MOSCXTEN |
  402500:	4b10      	ldr	r3, [pc, #64]	; (402544 <pmc_switch_mainck_to_xtal+0x6c>)
  402502:	4013      	ands	r3, r2
				CKGR_MOR_MOSCXTST(ul_xtal_startup_time);
  402504:	683a      	ldr	r2, [r7, #0]
  402506:	0212      	lsls	r2, r2, #8
  402508:	b292      	uxth	r2, r2
				CKGR_MOR_KEY_PASSWD | CKGR_MOR_MOSCXTEN |
  40250a:	431a      	orrs	r2, r3
  40250c:	4b0e      	ldr	r3, [pc, #56]	; (402548 <pmc_switch_mainck_to_xtal+0x70>)
  40250e:	4313      	orrs	r3, r2
		PMC->CKGR_MOR = (PMC->CKGR_MOR & ~CKGR_MOR_MOSCXTBY) |
  402510:	620b      	str	r3, [r1, #32]
		while (!(PMC->PMC_SR & PMC_SR_MOSCXTS));
  402512:	bf00      	nop
  402514:	4b08      	ldr	r3, [pc, #32]	; (402538 <pmc_switch_mainck_to_xtal+0x60>)
  402516:	6e9b      	ldr	r3, [r3, #104]	; 0x68
  402518:	f003 0301 	and.w	r3, r3, #1
  40251c:	2b00      	cmp	r3, #0
  40251e:	d0f9      	beq.n	402514 <pmc_switch_mainck_to_xtal+0x3c>
		PMC->CKGR_MOR |= CKGR_MOR_KEY_PASSWD | CKGR_MOR_MOSCSEL;
  402520:	4905      	ldr	r1, [pc, #20]	; (402538 <pmc_switch_mainck_to_xtal+0x60>)
  402522:	4b05      	ldr	r3, [pc, #20]	; (402538 <pmc_switch_mainck_to_xtal+0x60>)
  402524:	6a1a      	ldr	r2, [r3, #32]
  402526:	4b09      	ldr	r3, [pc, #36]	; (40254c <pmc_switch_mainck_to_xtal+0x74>)
  402528:	4313      	orrs	r3, r2
  40252a:	620b      	str	r3, [r1, #32]
}
  40252c:	bf00      	nop
  40252e:	370c      	adds	r7, #12
  402530:	46bd      	mov	sp, r7
  402532:	f85d 7b04 	ldr.w	r7, [sp], #4
  402536:	4770      	bx	lr
  402538:	400e0600 	.word	0x400e0600
  40253c:	fec8fffc 	.word	0xfec8fffc
  402540:	01370002 	.word	0x01370002
  402544:	ffc8fffc 	.word	0xffc8fffc
  402548:	00370001 	.word	0x00370001
  40254c:	01370000 	.word	0x01370000

00402550 <pmc_osc_is_ready_mainck>:
 *
 * \retval 1 Xtal is ready.
 * \retval 0 Xtal is not ready.
 */
uint32_t pmc_osc_is_ready_mainck(void)
{
  402550:	b480      	push	{r7}
  402552:	af00      	add	r7, sp, #0
	return PMC->PMC_SR & PMC_SR_MOSCSELS;
  402554:	4b04      	ldr	r3, [pc, #16]	; (402568 <pmc_osc_is_ready_mainck+0x18>)
  402556:	6e9b      	ldr	r3, [r3, #104]	; 0x68
  402558:	f403 3380 	and.w	r3, r3, #65536	; 0x10000
}
  40255c:	4618      	mov	r0, r3
  40255e:	46bd      	mov	sp, r7
  402560:	f85d 7b04 	ldr.w	r7, [sp], #4
  402564:	4770      	bx	lr
  402566:	bf00      	nop
  402568:	400e0600 	.word	0x400e0600

0040256c <pmc_disable_pllack>:

/**
 * \brief Disable PLLA clock.
 */
void pmc_disable_pllack(void)
{
  40256c:	b480      	push	{r7}
  40256e:	af00      	add	r7, sp, #0
#if (SAM4C || SAM4CM || SAM4CP || SAMG)
	PMC->CKGR_PLLAR = CKGR_PLLAR_MULA(0);
#else
	PMC->CKGR_PLLAR = CKGR_PLLAR_ONE | CKGR_PLLAR_MULA(0);
  402570:	4b04      	ldr	r3, [pc, #16]	; (402584 <pmc_disable_pllack+0x18>)
  402572:	f04f 5200 	mov.w	r2, #536870912	; 0x20000000
  402576:	629a      	str	r2, [r3, #40]	; 0x28
#endif
}
  402578:	bf00      	nop
  40257a:	46bd      	mov	sp, r7
  40257c:	f85d 7b04 	ldr.w	r7, [sp], #4
  402580:	4770      	bx	lr
  402582:	bf00      	nop
  402584:	400e0600 	.word	0x400e0600

00402588 <pmc_is_locked_pllack>:
 *
 * \retval 0 Not locked.
 * \retval 1 Locked.
 */
uint32_t pmc_is_locked_pllack(void)
{
  402588:	b480      	push	{r7}
  40258a:	af00      	add	r7, sp, #0
	return (PMC->PMC_SR & PMC_SR_LOCKA);
  40258c:	4b04      	ldr	r3, [pc, #16]	; (4025a0 <pmc_is_locked_pllack+0x18>)
  40258e:	6e9b      	ldr	r3, [r3, #104]	; 0x68
  402590:	f003 0302 	and.w	r3, r3, #2
}
  402594:	4618      	mov	r0, r3
  402596:	46bd      	mov	sp, r7
  402598:	f85d 7b04 	ldr.w	r7, [sp], #4
  40259c:	4770      	bx	lr
  40259e:	bf00      	nop
  4025a0:	400e0600 	.word	0x400e0600

004025a4 <pmc_is_locked_upll>:
 *
 * \retval 0 Not locked.
 * \retval 1 Locked.
 */
uint32_t pmc_is_locked_upll(void)
{
  4025a4:	b480      	push	{r7}
  4025a6:	af00      	add	r7, sp, #0
	return (PMC->PMC_SR & PMC_SR_LOCKU);
  4025a8:	4b04      	ldr	r3, [pc, #16]	; (4025bc <pmc_is_locked_upll+0x18>)
  4025aa:	6e9b      	ldr	r3, [r3, #104]	; 0x68
  4025ac:	f003 0340 	and.w	r3, r3, #64	; 0x40
}
  4025b0:	4618      	mov	r0, r3
  4025b2:	46bd      	mov	sp, r7
  4025b4:	f85d 7b04 	ldr.w	r7, [sp], #4
  4025b8:	4770      	bx	lr
  4025ba:	bf00      	nop
  4025bc:	400e0600 	.word	0x400e0600

004025c0 <pmc_enable_periph_clk>:
 *
 * \retval 0 Success.
 * \retval 1 Invalid parameter.
 */
uint32_t pmc_enable_periph_clk(uint32_t ul_id)
{
  4025c0:	b480      	push	{r7}
  4025c2:	b083      	sub	sp, #12
  4025c4:	af00      	add	r7, sp, #0
  4025c6:	6078      	str	r0, [r7, #4]
	if (ul_id > MAX_PERIPH_ID) {
  4025c8:	687b      	ldr	r3, [r7, #4]
  4025ca:	2b3f      	cmp	r3, #63	; 0x3f
  4025cc:	d901      	bls.n	4025d2 <pmc_enable_periph_clk+0x12>
		return 1;
  4025ce:	2301      	movs	r3, #1
  4025d0:	e02f      	b.n	402632 <pmc_enable_periph_clk+0x72>
	}

	if (ul_id < 32) {
  4025d2:	687b      	ldr	r3, [r7, #4]
  4025d4:	2b1f      	cmp	r3, #31
  4025d6:	d813      	bhi.n	402600 <pmc_enable_periph_clk+0x40>
		if ((PMC->PMC_PCSR0 & (1u << ul_id)) != (1u << ul_id)) {
  4025d8:	4b19      	ldr	r3, [pc, #100]	; (402640 <pmc_enable_periph_clk+0x80>)
  4025da:	699a      	ldr	r2, [r3, #24]
  4025dc:	2101      	movs	r1, #1
  4025de:	687b      	ldr	r3, [r7, #4]
  4025e0:	fa01 f303 	lsl.w	r3, r1, r3
  4025e4:	401a      	ands	r2, r3
  4025e6:	2101      	movs	r1, #1
  4025e8:	687b      	ldr	r3, [r7, #4]
  4025ea:	fa01 f303 	lsl.w	r3, r1, r3
  4025ee:	429a      	cmp	r2, r3
  4025f0:	d01e      	beq.n	402630 <pmc_enable_periph_clk+0x70>
			PMC->PMC_PCER0 = 1 << ul_id;
  4025f2:	4a13      	ldr	r2, [pc, #76]	; (402640 <pmc_enable_periph_clk+0x80>)
  4025f4:	2101      	movs	r1, #1
  4025f6:	687b      	ldr	r3, [r7, #4]
  4025f8:	fa01 f303 	lsl.w	r3, r1, r3
  4025fc:	6113      	str	r3, [r2, #16]
  4025fe:	e017      	b.n	402630 <pmc_enable_periph_clk+0x70>
		}
#if (SAM3S || SAM3XA || SAM4S || SAM4E || SAM4C || SAM4CM || SAM4CP || SAMG55 || SAMV71 || SAMV70 || SAME70 || SAMS70)
	} else {
		ul_id -= 32;
  402600:	687b      	ldr	r3, [r7, #4]
  402602:	3b20      	subs	r3, #32
  402604:	607b      	str	r3, [r7, #4]
		if ((PMC->PMC_PCSR1 & (1u << ul_id)) != (1u << ul_id)) {
  402606:	4b0e      	ldr	r3, [pc, #56]	; (402640 <pmc_enable_periph_clk+0x80>)
  402608:	f8d3 2108 	ldr.w	r2, [r3, #264]	; 0x108
  40260c:	2101      	movs	r1, #1
  40260e:	687b      	ldr	r3, [r7, #4]
  402610:	fa01 f303 	lsl.w	r3, r1, r3
  402614:	401a      	ands	r2, r3
  402616:	2101      	movs	r1, #1
  402618:	687b      	ldr	r3, [r7, #4]
  40261a:	fa01 f303 	lsl.w	r3, r1, r3
  40261e:	429a      	cmp	r2, r3
  402620:	d006      	beq.n	402630 <pmc_enable_periph_clk+0x70>
			PMC->PMC_PCER1 = 1 << ul_id;
  402622:	4a07      	ldr	r2, [pc, #28]	; (402640 <pmc_enable_periph_clk+0x80>)
  402624:	2101      	movs	r1, #1
  402626:	687b      	ldr	r3, [r7, #4]
  402628:	fa01 f303 	lsl.w	r3, r1, r3
  40262c:	f8c2 3100 	str.w	r3, [r2, #256]	; 0x100
		}
#endif
	}

	return 0;
  402630:	2300      	movs	r3, #0
}
  402632:	4618      	mov	r0, r3
  402634:	370c      	adds	r7, #12
  402636:	46bd      	mov	sp, r7
  402638:	f85d 7b04 	ldr.w	r7, [sp], #4
  40263c:	4770      	bx	lr
  40263e:	bf00      	nop
  402640:	400e0600 	.word	0x400e0600

00402644 <cpu_irq_save>:

static volatile uint32_t cpu_irq_critical_section_counter;
static volatile bool     cpu_irq_prev_interrupt_state;

static inline irqflags_t cpu_irq_save(void)
{
  402644:	b480      	push	{r7}
  402646:	b083      	sub	sp, #12
  402648:	af00      	add	r7, sp, #0
 */
__attribute__( ( always_inline ) ) __STATIC_INLINE uint32_t __get_PRIMASK(void)
{
  uint32_t result;

  __ASM volatile ("MRS %0, primask" : "=r" (result) );
  40264a:	f3ef 8310 	mrs	r3, PRIMASK
  40264e:	607b      	str	r3, [r7, #4]
  return(result);
  402650:	687b      	ldr	r3, [r7, #4]
	volatile irqflags_t flags = cpu_irq_is_enabled();
  402652:	2b00      	cmp	r3, #0
  402654:	bf0c      	ite	eq
  402656:	2301      	moveq	r3, #1
  402658:	2300      	movne	r3, #0
  40265a:	b2db      	uxtb	r3, r3
  40265c:	603b      	str	r3, [r7, #0]
  __ASM volatile ("cpsid i" : : : "memory");
  40265e:	b672      	cpsid	i
  __ASM volatile ("dmb");
  402660:	f3bf 8f5f 	dmb	sy
	cpu_irq_disable();
  402664:	4b04      	ldr	r3, [pc, #16]	; (402678 <cpu_irq_save+0x34>)
  402666:	2200      	movs	r2, #0
  402668:	701a      	strb	r2, [r3, #0]
	return flags;
  40266a:	683b      	ldr	r3, [r7, #0]
}
  40266c:	4618      	mov	r0, r3
  40266e:	370c      	adds	r7, #12
  402670:	46bd      	mov	sp, r7
  402672:	f85d 7b04 	ldr.w	r7, [sp], #4
  402676:	4770      	bx	lr
  402678:	20400018 	.word	0x20400018

0040267c <cpu_irq_is_enabled_flags>:

static inline bool cpu_irq_is_enabled_flags(irqflags_t flags)
{
  40267c:	b480      	push	{r7}
  40267e:	b083      	sub	sp, #12
  402680:	af00      	add	r7, sp, #0
  402682:	6078      	str	r0, [r7, #4]
	return (flags);
  402684:	687b      	ldr	r3, [r7, #4]
  402686:	2b00      	cmp	r3, #0
  402688:	bf14      	ite	ne
  40268a:	2301      	movne	r3, #1
  40268c:	2300      	moveq	r3, #0
  40268e:	b2db      	uxtb	r3, r3
}
  402690:	4618      	mov	r0, r3
  402692:	370c      	adds	r7, #12
  402694:	46bd      	mov	sp, r7
  402696:	f85d 7b04 	ldr.w	r7, [sp], #4
  40269a:	4770      	bx	lr

0040269c <cpu_irq_restore>:

static inline void cpu_irq_restore(irqflags_t flags)
{
  40269c:	b580      	push	{r7, lr}
  40269e:	b082      	sub	sp, #8
  4026a0:	af00      	add	r7, sp, #0
  4026a2:	6078      	str	r0, [r7, #4]
	if (cpu_irq_is_enabled_flags(flags))
  4026a4:	6878      	ldr	r0, [r7, #4]
  4026a6:	4b07      	ldr	r3, [pc, #28]	; (4026c4 <cpu_irq_restore+0x28>)
  4026a8:	4798      	blx	r3
  4026aa:	4603      	mov	r3, r0
  4026ac:	2b00      	cmp	r3, #0
  4026ae:	d005      	beq.n	4026bc <cpu_irq_restore+0x20>
		cpu_irq_enable();
  4026b0:	4b05      	ldr	r3, [pc, #20]	; (4026c8 <cpu_irq_restore+0x2c>)
  4026b2:	2201      	movs	r2, #1
  4026b4:	701a      	strb	r2, [r3, #0]
  4026b6:	f3bf 8f5f 	dmb	sy
  __ASM volatile ("cpsie i" : : : "memory");
  4026ba:	b662      	cpsie	i
}
  4026bc:	bf00      	nop
  4026be:	3708      	adds	r7, #8
  4026c0:	46bd      	mov	sp, r7
  4026c2:	bd80      	pop	{r7, pc}
  4026c4:	0040267d 	.word	0x0040267d
  4026c8:	20400018 	.word	0x20400018

004026cc <Reset_Handler>:
/**
 * \brief This is the code that gets called on processor reset.
 * To initialize the device, and call the main() routine.
 */
void Reset_Handler(void)
{
  4026cc:	b580      	push	{r7, lr}
  4026ce:	b084      	sub	sp, #16
  4026d0:	af00      	add	r7, sp, #0
        uint32_t *pSrc, *pDest;

        /* Initialize the relocate segment */
        pSrc = &_etext;
  4026d2:	4b1e      	ldr	r3, [pc, #120]	; (40274c <Reset_Handler+0x80>)
  4026d4:	60fb      	str	r3, [r7, #12]
        pDest = &_srelocate;
  4026d6:	4b1e      	ldr	r3, [pc, #120]	; (402750 <Reset_Handler+0x84>)
  4026d8:	60bb      	str	r3, [r7, #8]

        if (pSrc != pDest) {
  4026da:	68fa      	ldr	r2, [r7, #12]
  4026dc:	68bb      	ldr	r3, [r7, #8]
  4026de:	429a      	cmp	r2, r3
  4026e0:	d00c      	beq.n	4026fc <Reset_Handler+0x30>
                for (; pDest < &_erelocate;) {
  4026e2:	e007      	b.n	4026f4 <Reset_Handler+0x28>
                        *pDest++ = *pSrc++;
  4026e4:	68bb      	ldr	r3, [r7, #8]
  4026e6:	1d1a      	adds	r2, r3, #4
  4026e8:	60ba      	str	r2, [r7, #8]
  4026ea:	68fa      	ldr	r2, [r7, #12]
  4026ec:	1d11      	adds	r1, r2, #4
  4026ee:	60f9      	str	r1, [r7, #12]
  4026f0:	6812      	ldr	r2, [r2, #0]
  4026f2:	601a      	str	r2, [r3, #0]
                for (; pDest < &_erelocate;) {
  4026f4:	68bb      	ldr	r3, [r7, #8]
  4026f6:	4a17      	ldr	r2, [pc, #92]	; (402754 <Reset_Handler+0x88>)
  4026f8:	4293      	cmp	r3, r2
  4026fa:	d3f3      	bcc.n	4026e4 <Reset_Handler+0x18>
                }
        }

        /* Clear the zero segment */
        for (pDest = &_szero; pDest < &_ezero;) {
  4026fc:	4b16      	ldr	r3, [pc, #88]	; (402758 <Reset_Handler+0x8c>)
  4026fe:	60bb      	str	r3, [r7, #8]
  402700:	e004      	b.n	40270c <Reset_Handler+0x40>
                *pDest++ = 0;
  402702:	68bb      	ldr	r3, [r7, #8]
  402704:	1d1a      	adds	r2, r3, #4
  402706:	60ba      	str	r2, [r7, #8]
  402708:	2200      	movs	r2, #0
  40270a:	601a      	str	r2, [r3, #0]
        for (pDest = &_szero; pDest < &_ezero;) {
  40270c:	68bb      	ldr	r3, [r7, #8]
  40270e:	4a13      	ldr	r2, [pc, #76]	; (40275c <Reset_Handler+0x90>)
  402710:	4293      	cmp	r3, r2
  402712:	d3f6      	bcc.n	402702 <Reset_Handler+0x36>
        }

        /* Set the vector table base address */
        pSrc = (uint32_t *) & _sfixed;
  402714:	4b12      	ldr	r3, [pc, #72]	; (402760 <Reset_Handler+0x94>)
  402716:	60fb      	str	r3, [r7, #12]
        SCB->VTOR = ((uint32_t) pSrc & SCB_VTOR_TBLOFF_Msk);
  402718:	4a12      	ldr	r2, [pc, #72]	; (402764 <Reset_Handler+0x98>)
  40271a:	68fb      	ldr	r3, [r7, #12]
  40271c:	f023 037f 	bic.w	r3, r3, #127	; 0x7f
  402720:	6093      	str	r3, [r2, #8]
 * \brief Enable FPU
 */
__always_inline static void fpu_enable(void)
{
	irqflags_t flags;
	flags = cpu_irq_save();
  402722:	4b11      	ldr	r3, [pc, #68]	; (402768 <Reset_Handler+0x9c>)
  402724:	4798      	blx	r3
  402726:	6078      	str	r0, [r7, #4]
	REG_CPACR |=  (0xFu << 20);
  402728:	4a10      	ldr	r2, [pc, #64]	; (40276c <Reset_Handler+0xa0>)
  40272a:	4b10      	ldr	r3, [pc, #64]	; (40276c <Reset_Handler+0xa0>)
  40272c:	681b      	ldr	r3, [r3, #0]
  40272e:	f443 0370 	orr.w	r3, r3, #15728640	; 0xf00000
  402732:	6013      	str	r3, [r2, #0]
  __ASM volatile ("dsb");
  402734:	f3bf 8f4f 	dsb	sy
  __ASM volatile ("isb");
  402738:	f3bf 8f6f 	isb	sy
	__DSB();
	__ISB();
	cpu_irq_restore(flags);
  40273c:	6878      	ldr	r0, [r7, #4]
  40273e:	4b0c      	ldr	r3, [pc, #48]	; (402770 <Reset_Handler+0xa4>)
  402740:	4798      	blx	r3
#if __FPU_USED
	fpu_enable();
#endif

        /* Initialize the C library */
        __libc_init_array();
  402742:	4b0c      	ldr	r3, [pc, #48]	; (402774 <Reset_Handler+0xa8>)
  402744:	4798      	blx	r3

        /* Branch to main function */
        main();
  402746:	4b0c      	ldr	r3, [pc, #48]	; (402778 <Reset_Handler+0xac>)
  402748:	4798      	blx	r3

        /* Infinite loop */
        while (1);
  40274a:	e7fe      	b.n	40274a <Reset_Handler+0x7e>
  40274c:	004085ec 	.word	0x004085ec
  402750:	20400000 	.word	0x20400000
  402754:	204009d0 	.word	0x204009d0
  402758:	204009d0 	.word	0x204009d0
  40275c:	20400cf8 	.word	0x20400cf8
  402760:	00400000 	.word	0x00400000
  402764:	e000ed00 	.word	0xe000ed00
  402768:	00402645 	.word	0x00402645
  40276c:	e000ed88 	.word	0xe000ed88
  402770:	0040269d 	.word	0x0040269d
  402774:	004032d9 	.word	0x004032d9
  402778:	00402d95 	.word	0x00402d95

0040277c <Dummy_Handler>:

/**
 * \brief Default interrupt handler for unused IRQs.
 */
void Dummy_Handler(void)
{
  40277c:	b480      	push	{r7}
  40277e:	af00      	add	r7, sp, #0
        while (1) {
  402780:	e7fe      	b.n	402780 <Dummy_Handler+0x4>
	...

00402784 <SystemCoreClockUpdate>:

  SystemCoreClock = CHIP_FREQ_CPU_MAX;
}

void SystemCoreClockUpdate( void )
{
  402784:	b480      	push	{r7}
  402786:	af00      	add	r7, sp, #0
  /* Determine clock frequency according to clock register values */
  switch (PMC->PMC_MCKR & (uint32_t) PMC_MCKR_CSS_Msk)
  402788:	4b52      	ldr	r3, [pc, #328]	; (4028d4 <SystemCoreClockUpdate+0x150>)
  40278a:	6b1b      	ldr	r3, [r3, #48]	; 0x30
  40278c:	f003 0303 	and.w	r3, r3, #3
  402790:	2b01      	cmp	r3, #1
  402792:	d014      	beq.n	4027be <SystemCoreClockUpdate+0x3a>
  402794:	2b01      	cmp	r3, #1
  402796:	d302      	bcc.n	40279e <SystemCoreClockUpdate+0x1a>
  402798:	2b02      	cmp	r3, #2
  40279a:	d038      	beq.n	40280e <SystemCoreClockUpdate+0x8a>
        SystemCoreClock /= ((((PMC->CKGR_PLLAR) & CKGR_PLLAR_DIVA_Msk) >> CKGR_PLLAR_DIVA_Pos));
      }
    break;

    default:
    break;
  40279c:	e07a      	b.n	402894 <SystemCoreClockUpdate+0x110>
      if ( SUPC->SUPC_SR & SUPC_SR_OSCSEL )
  40279e:	4b4e      	ldr	r3, [pc, #312]	; (4028d8 <SystemCoreClockUpdate+0x154>)
  4027a0:	695b      	ldr	r3, [r3, #20]
  4027a2:	f003 0380 	and.w	r3, r3, #128	; 0x80
  4027a6:	2b00      	cmp	r3, #0
  4027a8:	d004      	beq.n	4027b4 <SystemCoreClockUpdate+0x30>
        SystemCoreClock = CHIP_FREQ_XTAL_32K;
  4027aa:	4b4c      	ldr	r3, [pc, #304]	; (4028dc <SystemCoreClockUpdate+0x158>)
  4027ac:	f44f 4200 	mov.w	r2, #32768	; 0x8000
  4027b0:	601a      	str	r2, [r3, #0]
    break;
  4027b2:	e06f      	b.n	402894 <SystemCoreClockUpdate+0x110>
        SystemCoreClock = CHIP_FREQ_SLCK_RC;
  4027b4:	4b49      	ldr	r3, [pc, #292]	; (4028dc <SystemCoreClockUpdate+0x158>)
  4027b6:	f44f 42fa 	mov.w	r2, #32000	; 0x7d00
  4027ba:	601a      	str	r2, [r3, #0]
    break;
  4027bc:	e06a      	b.n	402894 <SystemCoreClockUpdate+0x110>
      if ( PMC->CKGR_MOR & CKGR_MOR_MOSCSEL )
  4027be:	4b45      	ldr	r3, [pc, #276]	; (4028d4 <SystemCoreClockUpdate+0x150>)
  4027c0:	6a1b      	ldr	r3, [r3, #32]
  4027c2:	f003 7380 	and.w	r3, r3, #16777216	; 0x1000000
  4027c6:	2b00      	cmp	r3, #0
  4027c8:	d003      	beq.n	4027d2 <SystemCoreClockUpdate+0x4e>
        SystemCoreClock = CHIP_FREQ_XTAL_12M;
  4027ca:	4b44      	ldr	r3, [pc, #272]	; (4028dc <SystemCoreClockUpdate+0x158>)
  4027cc:	4a44      	ldr	r2, [pc, #272]	; (4028e0 <SystemCoreClockUpdate+0x15c>)
  4027ce:	601a      	str	r2, [r3, #0]
    break;
  4027d0:	e060      	b.n	402894 <SystemCoreClockUpdate+0x110>
        SystemCoreClock = CHIP_FREQ_MAINCK_RC_4MHZ;
  4027d2:	4b42      	ldr	r3, [pc, #264]	; (4028dc <SystemCoreClockUpdate+0x158>)
  4027d4:	4a43      	ldr	r2, [pc, #268]	; (4028e4 <SystemCoreClockUpdate+0x160>)
  4027d6:	601a      	str	r2, [r3, #0]
        switch ( PMC->CKGR_MOR & CKGR_MOR_MOSCRCF_Msk )
  4027d8:	4b3e      	ldr	r3, [pc, #248]	; (4028d4 <SystemCoreClockUpdate+0x150>)
  4027da:	6a1b      	ldr	r3, [r3, #32]
  4027dc:	f003 0370 	and.w	r3, r3, #112	; 0x70
  4027e0:	2b10      	cmp	r3, #16
  4027e2:	d004      	beq.n	4027ee <SystemCoreClockUpdate+0x6a>
  4027e4:	2b20      	cmp	r3, #32
  4027e6:	d008      	beq.n	4027fa <SystemCoreClockUpdate+0x76>
  4027e8:	2b00      	cmp	r3, #0
  4027ea:	d00e      	beq.n	40280a <SystemCoreClockUpdate+0x86>
          break;
  4027ec:	e00e      	b.n	40280c <SystemCoreClockUpdate+0x88>
            SystemCoreClock *= 2U;
  4027ee:	4b3b      	ldr	r3, [pc, #236]	; (4028dc <SystemCoreClockUpdate+0x158>)
  4027f0:	681b      	ldr	r3, [r3, #0]
  4027f2:	005b      	lsls	r3, r3, #1
  4027f4:	4a39      	ldr	r2, [pc, #228]	; (4028dc <SystemCoreClockUpdate+0x158>)
  4027f6:	6013      	str	r3, [r2, #0]
          break;
  4027f8:	e008      	b.n	40280c <SystemCoreClockUpdate+0x88>
            SystemCoreClock *= 3U;
  4027fa:	4b38      	ldr	r3, [pc, #224]	; (4028dc <SystemCoreClockUpdate+0x158>)
  4027fc:	681a      	ldr	r2, [r3, #0]
  4027fe:	4613      	mov	r3, r2
  402800:	005b      	lsls	r3, r3, #1
  402802:	4413      	add	r3, r2
  402804:	4a35      	ldr	r2, [pc, #212]	; (4028dc <SystemCoreClockUpdate+0x158>)
  402806:	6013      	str	r3, [r2, #0]
          break;
  402808:	e000      	b.n	40280c <SystemCoreClockUpdate+0x88>
          break;
  40280a:	bf00      	nop
    break;
  40280c:	e042      	b.n	402894 <SystemCoreClockUpdate+0x110>
      if ( PMC->CKGR_MOR & CKGR_MOR_MOSCSEL )
  40280e:	4b31      	ldr	r3, [pc, #196]	; (4028d4 <SystemCoreClockUpdate+0x150>)
  402810:	6a1b      	ldr	r3, [r3, #32]
  402812:	f003 7380 	and.w	r3, r3, #16777216	; 0x1000000
  402816:	2b00      	cmp	r3, #0
  402818:	d003      	beq.n	402822 <SystemCoreClockUpdate+0x9e>
        SystemCoreClock = CHIP_FREQ_XTAL_12M ;
  40281a:	4b30      	ldr	r3, [pc, #192]	; (4028dc <SystemCoreClockUpdate+0x158>)
  40281c:	4a30      	ldr	r2, [pc, #192]	; (4028e0 <SystemCoreClockUpdate+0x15c>)
  40281e:	601a      	str	r2, [r3, #0]
  402820:	e01c      	b.n	40285c <SystemCoreClockUpdate+0xd8>
        SystemCoreClock = CHIP_FREQ_MAINCK_RC_4MHZ;
  402822:	4b2e      	ldr	r3, [pc, #184]	; (4028dc <SystemCoreClockUpdate+0x158>)
  402824:	4a2f      	ldr	r2, [pc, #188]	; (4028e4 <SystemCoreClockUpdate+0x160>)
  402826:	601a      	str	r2, [r3, #0]
        switch ( PMC->CKGR_MOR & CKGR_MOR_MOSCRCF_Msk )
  402828:	4b2a      	ldr	r3, [pc, #168]	; (4028d4 <SystemCoreClockUpdate+0x150>)
  40282a:	6a1b      	ldr	r3, [r3, #32]
  40282c:	f003 0370 	and.w	r3, r3, #112	; 0x70
  402830:	2b10      	cmp	r3, #16
  402832:	d004      	beq.n	40283e <SystemCoreClockUpdate+0xba>
  402834:	2b20      	cmp	r3, #32
  402836:	d008      	beq.n	40284a <SystemCoreClockUpdate+0xc6>
  402838:	2b00      	cmp	r3, #0
  40283a:	d00e      	beq.n	40285a <SystemCoreClockUpdate+0xd6>
          break;
  40283c:	e00e      	b.n	40285c <SystemCoreClockUpdate+0xd8>
            SystemCoreClock *= 2U;
  40283e:	4b27      	ldr	r3, [pc, #156]	; (4028dc <SystemCoreClockUpdate+0x158>)
  402840:	681b      	ldr	r3, [r3, #0]
  402842:	005b      	lsls	r3, r3, #1
  402844:	4a25      	ldr	r2, [pc, #148]	; (4028dc <SystemCoreClockUpdate+0x158>)
  402846:	6013      	str	r3, [r2, #0]
          break;
  402848:	e008      	b.n	40285c <SystemCoreClockUpdate+0xd8>
            SystemCoreClock *= 3U;
  40284a:	4b24      	ldr	r3, [pc, #144]	; (4028dc <SystemCoreClockUpdate+0x158>)
  40284c:	681a      	ldr	r2, [r3, #0]
  40284e:	4613      	mov	r3, r2
  402850:	005b      	lsls	r3, r3, #1
  402852:	4413      	add	r3, r2
  402854:	4a21      	ldr	r2, [pc, #132]	; (4028dc <SystemCoreClockUpdate+0x158>)
  402856:	6013      	str	r3, [r2, #0]
          break;
  402858:	e000      	b.n	40285c <SystemCoreClockUpdate+0xd8>
          break;
  40285a:	bf00      	nop
      if ( (uint32_t) (PMC->PMC_MCKR & (uint32_t) PMC_MCKR_CSS_Msk) == PMC_MCKR_CSS_PLLA_CLK )
  40285c:	4b1d      	ldr	r3, [pc, #116]	; (4028d4 <SystemCoreClockUpdate+0x150>)
  40285e:	6b1b      	ldr	r3, [r3, #48]	; 0x30
  402860:	f003 0303 	and.w	r3, r3, #3
  402864:	2b02      	cmp	r3, #2
  402866:	d114      	bne.n	402892 <SystemCoreClockUpdate+0x10e>
        SystemCoreClock *= ((((PMC->CKGR_PLLAR) & CKGR_PLLAR_MULA_Msk) >> CKGR_PLLAR_MULA_Pos) + 1U);
  402868:	4b1a      	ldr	r3, [pc, #104]	; (4028d4 <SystemCoreClockUpdate+0x150>)
  40286a:	6a9b      	ldr	r3, [r3, #40]	; 0x28
  40286c:	0c1b      	lsrs	r3, r3, #16
  40286e:	f3c3 030a 	ubfx	r3, r3, #0, #11
  402872:	3301      	adds	r3, #1
  402874:	4a19      	ldr	r2, [pc, #100]	; (4028dc <SystemCoreClockUpdate+0x158>)
  402876:	6812      	ldr	r2, [r2, #0]
  402878:	fb02 f303 	mul.w	r3, r2, r3
  40287c:	4a17      	ldr	r2, [pc, #92]	; (4028dc <SystemCoreClockUpdate+0x158>)
  40287e:	6013      	str	r3, [r2, #0]
        SystemCoreClock /= ((((PMC->CKGR_PLLAR) & CKGR_PLLAR_DIVA_Msk) >> CKGR_PLLAR_DIVA_Pos));
  402880:	4b14      	ldr	r3, [pc, #80]	; (4028d4 <SystemCoreClockUpdate+0x150>)
  402882:	6a9b      	ldr	r3, [r3, #40]	; 0x28
  402884:	b2db      	uxtb	r3, r3
  402886:	4a15      	ldr	r2, [pc, #84]	; (4028dc <SystemCoreClockUpdate+0x158>)
  402888:	6812      	ldr	r2, [r2, #0]
  40288a:	fbb2 f3f3 	udiv	r3, r2, r3
  40288e:	4a13      	ldr	r2, [pc, #76]	; (4028dc <SystemCoreClockUpdate+0x158>)
  402890:	6013      	str	r3, [r2, #0]
    break;
  402892:	bf00      	nop
  }

  if ( (PMC->PMC_MCKR & PMC_MCKR_PRES_Msk) == PMC_MCKR_PRES_CLK_3 )
  402894:	4b0f      	ldr	r3, [pc, #60]	; (4028d4 <SystemCoreClockUpdate+0x150>)
  402896:	6b1b      	ldr	r3, [r3, #48]	; 0x30
  402898:	f003 0370 	and.w	r3, r3, #112	; 0x70
  40289c:	2b70      	cmp	r3, #112	; 0x70
  40289e:	d108      	bne.n	4028b2 <SystemCoreClockUpdate+0x12e>
  {
    SystemCoreClock /= 3U;
  4028a0:	4b0e      	ldr	r3, [pc, #56]	; (4028dc <SystemCoreClockUpdate+0x158>)
  4028a2:	681b      	ldr	r3, [r3, #0]
  4028a4:	4a10      	ldr	r2, [pc, #64]	; (4028e8 <SystemCoreClockUpdate+0x164>)
  4028a6:	fba2 2303 	umull	r2, r3, r2, r3
  4028aa:	085b      	lsrs	r3, r3, #1
  4028ac:	4a0b      	ldr	r2, [pc, #44]	; (4028dc <SystemCoreClockUpdate+0x158>)
  4028ae:	6013      	str	r3, [r2, #0]
  }
  else
  {
    SystemCoreClock >>= ((PMC->PMC_MCKR & PMC_MCKR_PRES_Msk) >> PMC_MCKR_PRES_Pos);
  }
}
  4028b0:	e00a      	b.n	4028c8 <SystemCoreClockUpdate+0x144>
    SystemCoreClock >>= ((PMC->PMC_MCKR & PMC_MCKR_PRES_Msk) >> PMC_MCKR_PRES_Pos);
  4028b2:	4b08      	ldr	r3, [pc, #32]	; (4028d4 <SystemCoreClockUpdate+0x150>)
  4028b4:	6b1b      	ldr	r3, [r3, #48]	; 0x30
  4028b6:	091b      	lsrs	r3, r3, #4
  4028b8:	f003 0307 	and.w	r3, r3, #7
  4028bc:	4a07      	ldr	r2, [pc, #28]	; (4028dc <SystemCoreClockUpdate+0x158>)
  4028be:	6812      	ldr	r2, [r2, #0]
  4028c0:	fa22 f303 	lsr.w	r3, r2, r3
  4028c4:	4a05      	ldr	r2, [pc, #20]	; (4028dc <SystemCoreClockUpdate+0x158>)
  4028c6:	6013      	str	r3, [r2, #0]
}
  4028c8:	bf00      	nop
  4028ca:	46bd      	mov	sp, r7
  4028cc:	f85d 7b04 	ldr.w	r7, [sp], #4
  4028d0:	4770      	bx	lr
  4028d2:	bf00      	nop
  4028d4:	400e0600 	.word	0x400e0600
  4028d8:	400e1810 	.word	0x400e1810
  4028dc:	2040001c 	.word	0x2040001c
  4028e0:	00b71b00 	.word	0x00b71b00
  4028e4:	003d0900 	.word	0x003d0900
  4028e8:	aaaaaaab 	.word	0xaaaaaaab

004028ec <system_init_flash>:
/**
 * Initialize flash.
 */
void system_init_flash( uint32_t ul_clk )
{
  4028ec:	b480      	push	{r7}
  4028ee:	b083      	sub	sp, #12
  4028f0:	af00      	add	r7, sp, #0
  4028f2:	6078      	str	r0, [r7, #4]
  /* Set FWS for embedded Flash access according to operating frequency */
  if ( ul_clk < CHIP_FREQ_FWS_0 )
  4028f4:	687b      	ldr	r3, [r7, #4]
  4028f6:	4a1d      	ldr	r2, [pc, #116]	; (40296c <system_init_flash+0x80>)
  4028f8:	4293      	cmp	r3, r2
  4028fa:	d804      	bhi.n	402906 <system_init_flash+0x1a>
  {
    EFC->EEFC_FMR = EEFC_FMR_FWS(0)|EEFC_FMR_CLOE;
  4028fc:	4b1c      	ldr	r3, [pc, #112]	; (402970 <system_init_flash+0x84>)
  4028fe:	f04f 6280 	mov.w	r2, #67108864	; 0x4000000
  402902:	601a      	str	r2, [r3, #0]
          }
        }
      }
    }
  }
}
  402904:	e02b      	b.n	40295e <system_init_flash+0x72>
    if (ul_clk < CHIP_FREQ_FWS_1)
  402906:	687b      	ldr	r3, [r7, #4]
  402908:	4a1a      	ldr	r2, [pc, #104]	; (402974 <system_init_flash+0x88>)
  40290a:	4293      	cmp	r3, r2
  40290c:	d803      	bhi.n	402916 <system_init_flash+0x2a>
      EFC->EEFC_FMR = EEFC_FMR_FWS(1)|EEFC_FMR_CLOE;
  40290e:	4b18      	ldr	r3, [pc, #96]	; (402970 <system_init_flash+0x84>)
  402910:	4a19      	ldr	r2, [pc, #100]	; (402978 <system_init_flash+0x8c>)
  402912:	601a      	str	r2, [r3, #0]
}
  402914:	e023      	b.n	40295e <system_init_flash+0x72>
      if (ul_clk < CHIP_FREQ_FWS_2)
  402916:	687b      	ldr	r3, [r7, #4]
  402918:	4a18      	ldr	r2, [pc, #96]	; (40297c <system_init_flash+0x90>)
  40291a:	4293      	cmp	r3, r2
  40291c:	d803      	bhi.n	402926 <system_init_flash+0x3a>
        EFC->EEFC_FMR = EEFC_FMR_FWS(2)|EEFC_FMR_CLOE;
  40291e:	4b14      	ldr	r3, [pc, #80]	; (402970 <system_init_flash+0x84>)
  402920:	4a17      	ldr	r2, [pc, #92]	; (402980 <system_init_flash+0x94>)
  402922:	601a      	str	r2, [r3, #0]
}
  402924:	e01b      	b.n	40295e <system_init_flash+0x72>
        if ( ul_clk < CHIP_FREQ_FWS_3 )
  402926:	687b      	ldr	r3, [r7, #4]
  402928:	4a16      	ldr	r2, [pc, #88]	; (402984 <system_init_flash+0x98>)
  40292a:	4293      	cmp	r3, r2
  40292c:	d803      	bhi.n	402936 <system_init_flash+0x4a>
          EFC->EEFC_FMR = EEFC_FMR_FWS(3)|EEFC_FMR_CLOE;
  40292e:	4b10      	ldr	r3, [pc, #64]	; (402970 <system_init_flash+0x84>)
  402930:	4a15      	ldr	r2, [pc, #84]	; (402988 <system_init_flash+0x9c>)
  402932:	601a      	str	r2, [r3, #0]
}
  402934:	e013      	b.n	40295e <system_init_flash+0x72>
          if ( ul_clk < CHIP_FREQ_FWS_4 )
  402936:	687b      	ldr	r3, [r7, #4]
  402938:	4a14      	ldr	r2, [pc, #80]	; (40298c <system_init_flash+0xa0>)
  40293a:	4293      	cmp	r3, r2
  40293c:	d804      	bhi.n	402948 <system_init_flash+0x5c>
            EFC->EEFC_FMR = EEFC_FMR_FWS(4)|EEFC_FMR_CLOE;
  40293e:	4b0c      	ldr	r3, [pc, #48]	; (402970 <system_init_flash+0x84>)
  402940:	f04f 2204 	mov.w	r2, #67109888	; 0x4000400
  402944:	601a      	str	r2, [r3, #0]
}
  402946:	e00a      	b.n	40295e <system_init_flash+0x72>
            if ( ul_clk < CHIP_FREQ_FWS_5 )
  402948:	687b      	ldr	r3, [r7, #4]
  40294a:	4a11      	ldr	r2, [pc, #68]	; (402990 <system_init_flash+0xa4>)
  40294c:	4293      	cmp	r3, r2
  40294e:	d803      	bhi.n	402958 <system_init_flash+0x6c>
              EFC->EEFC_FMR = EEFC_FMR_FWS(5)|EEFC_FMR_CLOE;
  402950:	4b07      	ldr	r3, [pc, #28]	; (402970 <system_init_flash+0x84>)
  402952:	4a10      	ldr	r2, [pc, #64]	; (402994 <system_init_flash+0xa8>)
  402954:	601a      	str	r2, [r3, #0]
}
  402956:	e002      	b.n	40295e <system_init_flash+0x72>
              EFC->EEFC_FMR = EEFC_FMR_FWS(6)|EEFC_FMR_CLOE;
  402958:	4b05      	ldr	r3, [pc, #20]	; (402970 <system_init_flash+0x84>)
  40295a:	4a0f      	ldr	r2, [pc, #60]	; (402998 <system_init_flash+0xac>)
  40295c:	601a      	str	r2, [r3, #0]
}
  40295e:	bf00      	nop
  402960:	370c      	adds	r7, #12
  402962:	46bd      	mov	sp, r7
  402964:	f85d 7b04 	ldr.w	r7, [sp], #4
  402968:	4770      	bx	lr
  40296a:	bf00      	nop
  40296c:	015ef3bf 	.word	0x015ef3bf
  402970:	400e0c00 	.word	0x400e0c00
  402974:	02bde77f 	.word	0x02bde77f
  402978:	04000100 	.word	0x04000100
  40297c:	041cdb3f 	.word	0x041cdb3f
  402980:	04000200 	.word	0x04000200
  402984:	057bceff 	.word	0x057bceff
  402988:	04000300 	.word	0x04000300
  40298c:	06dac2bf 	.word	0x06dac2bf
  402990:	0839b67f 	.word	0x0839b67f
  402994:	04000500 	.word	0x04000500
  402998:	04000600 	.word	0x04000600

0040299c <_sbrk>:
extern void _exit(int status);
extern void _kill(int pid, int sig);
extern int _getpid(void);

extern caddr_t _sbrk(int incr)
{
  40299c:	b480      	push	{r7}
  40299e:	b085      	sub	sp, #20
  4029a0:	af00      	add	r7, sp, #0
  4029a2:	6078      	str	r0, [r7, #4]
	static unsigned char *heap = NULL;
	unsigned char *prev_heap;
	int ramend = (int)&__ram_end__;
  4029a4:	4b10      	ldr	r3, [pc, #64]	; (4029e8 <_sbrk+0x4c>)
  4029a6:	60fb      	str	r3, [r7, #12]

	if (heap == NULL) {
  4029a8:	4b10      	ldr	r3, [pc, #64]	; (4029ec <_sbrk+0x50>)
  4029aa:	681b      	ldr	r3, [r3, #0]
  4029ac:	2b00      	cmp	r3, #0
  4029ae:	d102      	bne.n	4029b6 <_sbrk+0x1a>
		heap = (unsigned char *)&_end;
  4029b0:	4b0e      	ldr	r3, [pc, #56]	; (4029ec <_sbrk+0x50>)
  4029b2:	4a0f      	ldr	r2, [pc, #60]	; (4029f0 <_sbrk+0x54>)
  4029b4:	601a      	str	r2, [r3, #0]
	}
	prev_heap = heap;
  4029b6:	4b0d      	ldr	r3, [pc, #52]	; (4029ec <_sbrk+0x50>)
  4029b8:	681b      	ldr	r3, [r3, #0]
  4029ba:	60bb      	str	r3, [r7, #8]

	if (((int)prev_heap + incr) > ramend) {
  4029bc:	68ba      	ldr	r2, [r7, #8]
  4029be:	687b      	ldr	r3, [r7, #4]
  4029c0:	441a      	add	r2, r3
  4029c2:	68fb      	ldr	r3, [r7, #12]
  4029c4:	429a      	cmp	r2, r3
  4029c6:	dd02      	ble.n	4029ce <_sbrk+0x32>
		return (caddr_t) -1;	
  4029c8:	f04f 33ff 	mov.w	r3, #4294967295
  4029cc:	e006      	b.n	4029dc <_sbrk+0x40>
	}

	heap += incr;
  4029ce:	4b07      	ldr	r3, [pc, #28]	; (4029ec <_sbrk+0x50>)
  4029d0:	681a      	ldr	r2, [r3, #0]
  4029d2:	687b      	ldr	r3, [r7, #4]
  4029d4:	4413      	add	r3, r2
  4029d6:	4a05      	ldr	r2, [pc, #20]	; (4029ec <_sbrk+0x50>)
  4029d8:	6013      	str	r3, [r2, #0]

	return (caddr_t) prev_heap;
  4029da:	68bb      	ldr	r3, [r7, #8]
}
  4029dc:	4618      	mov	r0, r3
  4029de:	3714      	adds	r7, #20
  4029e0:	46bd      	mov	sp, r7
  4029e2:	f85d 7b04 	ldr.w	r7, [sp], #4
  4029e6:	4770      	bx	lr
  4029e8:	2045fffc 	.word	0x2045fffc
  4029ec:	20400c68 	.word	0x20400c68
  4029f0:	20402ef8 	.word	0x20402ef8

004029f4 <NVIC_EnableIRQ>:
{
  4029f4:	b480      	push	{r7}
  4029f6:	b083      	sub	sp, #12
  4029f8:	af00      	add	r7, sp, #0
  4029fa:	4603      	mov	r3, r0
  4029fc:	71fb      	strb	r3, [r7, #7]
  NVIC->ISER[(uint32_t)((int32_t)IRQn) >> 5] = (uint32_t)(1 << ((uint32_t)((int32_t)IRQn) & (uint32_t)0x1F)); /* enable interrupt */
  4029fe:	4909      	ldr	r1, [pc, #36]	; (402a24 <NVIC_EnableIRQ+0x30>)
  402a00:	f997 3007 	ldrsb.w	r3, [r7, #7]
  402a04:	095b      	lsrs	r3, r3, #5
  402a06:	79fa      	ldrb	r2, [r7, #7]
  402a08:	f002 021f 	and.w	r2, r2, #31
  402a0c:	2001      	movs	r0, #1
  402a0e:	fa00 f202 	lsl.w	r2, r0, r2
  402a12:	f841 2023 	str.w	r2, [r1, r3, lsl #2]
}
  402a16:	bf00      	nop
  402a18:	370c      	adds	r7, #12
  402a1a:	46bd      	mov	sp, r7
  402a1c:	f85d 7b04 	ldr.w	r7, [sp], #4
  402a20:	4770      	bx	lr
  402a22:	bf00      	nop
  402a24:	e000e100 	.word	0xe000e100

00402a28 <NVIC_DisableIRQ>:
{
  402a28:	b480      	push	{r7}
  402a2a:	b083      	sub	sp, #12
  402a2c:	af00      	add	r7, sp, #0
  402a2e:	4603      	mov	r3, r0
  402a30:	71fb      	strb	r3, [r7, #7]
  NVIC->ICER[((uint32_t)(IRQn) >> 5)] = (1 << ((uint32_t)(IRQn) & 0x1F)); /* disable interrupt */
  402a32:	4909      	ldr	r1, [pc, #36]	; (402a58 <NVIC_DisableIRQ+0x30>)
  402a34:	f997 3007 	ldrsb.w	r3, [r7, #7]
  402a38:	095b      	lsrs	r3, r3, #5
  402a3a:	79fa      	ldrb	r2, [r7, #7]
  402a3c:	f002 021f 	and.w	r2, r2, #31
  402a40:	2001      	movs	r0, #1
  402a42:	fa00 f202 	lsl.w	r2, r0, r2
  402a46:	3320      	adds	r3, #32
  402a48:	f841 2023 	str.w	r2, [r1, r3, lsl #2]
}
  402a4c:	bf00      	nop
  402a4e:	370c      	adds	r7, #12
  402a50:	46bd      	mov	sp, r7
  402a52:	f85d 7b04 	ldr.w	r7, [sp], #4
  402a56:	4770      	bx	lr
  402a58:	e000e100 	.word	0xe000e100

00402a5c <NVIC_ClearPendingIRQ>:
{
  402a5c:	b480      	push	{r7}
  402a5e:	b083      	sub	sp, #12
  402a60:	af00      	add	r7, sp, #0
  402a62:	4603      	mov	r3, r0
  402a64:	71fb      	strb	r3, [r7, #7]
  NVIC->ICPR[((uint32_t)(IRQn) >> 5)] = (1 << ((uint32_t)(IRQn) & 0x1F)); /* Clear pending interrupt */
  402a66:	4909      	ldr	r1, [pc, #36]	; (402a8c <NVIC_ClearPendingIRQ+0x30>)
  402a68:	f997 3007 	ldrsb.w	r3, [r7, #7]
  402a6c:	095b      	lsrs	r3, r3, #5
  402a6e:	79fa      	ldrb	r2, [r7, #7]
  402a70:	f002 021f 	and.w	r2, r2, #31
  402a74:	2001      	movs	r0, #1
  402a76:	fa00 f202 	lsl.w	r2, r0, r2
  402a7a:	3360      	adds	r3, #96	; 0x60
  402a7c:	f841 2023 	str.w	r2, [r1, r3, lsl #2]
}
  402a80:	bf00      	nop
  402a82:	370c      	adds	r7, #12
  402a84:	46bd      	mov	sp, r7
  402a86:	f85d 7b04 	ldr.w	r7, [sp], #4
  402a8a:	4770      	bx	lr
  402a8c:	e000e100 	.word	0xe000e100

00402a90 <NVIC_SetPriority>:
{
  402a90:	b480      	push	{r7}
  402a92:	b083      	sub	sp, #12
  402a94:	af00      	add	r7, sp, #0
  402a96:	4603      	mov	r3, r0
  402a98:	6039      	str	r1, [r7, #0]
  402a9a:	71fb      	strb	r3, [r7, #7]
  if(IRQn < 0) {
  402a9c:	f997 3007 	ldrsb.w	r3, [r7, #7]
  402aa0:	2b00      	cmp	r3, #0
  402aa2:	da0b      	bge.n	402abc <NVIC_SetPriority+0x2c>
    SCB->SHPR[((uint32_t)(IRQn) & 0xF)-4] = ((priority << (8 - __NVIC_PRIO_BITS)) & 0xff); } /* set Priority for Cortex-M  System Interrupts */
  402aa4:	490d      	ldr	r1, [pc, #52]	; (402adc <NVIC_SetPriority+0x4c>)
  402aa6:	79fb      	ldrb	r3, [r7, #7]
  402aa8:	f003 030f 	and.w	r3, r3, #15
  402aac:	3b04      	subs	r3, #4
  402aae:	683a      	ldr	r2, [r7, #0]
  402ab0:	b2d2      	uxtb	r2, r2
  402ab2:	0152      	lsls	r2, r2, #5
  402ab4:	b2d2      	uxtb	r2, r2
  402ab6:	440b      	add	r3, r1
  402ab8:	761a      	strb	r2, [r3, #24]
}
  402aba:	e009      	b.n	402ad0 <NVIC_SetPriority+0x40>
    NVIC->IP[(uint32_t)(IRQn)]            = ((priority << (8 - __NVIC_PRIO_BITS)) & 0xff); } /* set Priority for device specific Interrupts  */
  402abc:	4908      	ldr	r1, [pc, #32]	; (402ae0 <NVIC_SetPriority+0x50>)
  402abe:	f997 3007 	ldrsb.w	r3, [r7, #7]
  402ac2:	683a      	ldr	r2, [r7, #0]
  402ac4:	b2d2      	uxtb	r2, r2
  402ac6:	0152      	lsls	r2, r2, #5
  402ac8:	b2d2      	uxtb	r2, r2
  402aca:	440b      	add	r3, r1
  402acc:	f883 2300 	strb.w	r2, [r3, #768]	; 0x300
}
  402ad0:	bf00      	nop
  402ad2:	370c      	adds	r7, #12
  402ad4:	46bd      	mov	sp, r7
  402ad6:	f85d 7b04 	ldr.w	r7, [sp], #4
  402ada:	4770      	bx	lr
  402adc:	e000ed00 	.word	0xe000ed00
  402ae0:	e000e100 	.word	0xe000e100

00402ae4 <osc_get_rate>:
{
  402ae4:	b480      	push	{r7}
  402ae6:	b083      	sub	sp, #12
  402ae8:	af00      	add	r7, sp, #0
  402aea:	6078      	str	r0, [r7, #4]
	switch (ul_id) {
  402aec:	687b      	ldr	r3, [r7, #4]
  402aee:	2b07      	cmp	r3, #7
  402af0:	d825      	bhi.n	402b3e <osc_get_rate+0x5a>
  402af2:	a201      	add	r2, pc, #4	; (adr r2, 402af8 <osc_get_rate+0x14>)
  402af4:	f852 f023 	ldr.w	pc, [r2, r3, lsl #2]
  402af8:	00402b19 	.word	0x00402b19
  402afc:	00402b1f 	.word	0x00402b1f
  402b00:	00402b25 	.word	0x00402b25
  402b04:	00402b2b 	.word	0x00402b2b
  402b08:	00402b2f 	.word	0x00402b2f
  402b0c:	00402b33 	.word	0x00402b33
  402b10:	00402b37 	.word	0x00402b37
  402b14:	00402b3b 	.word	0x00402b3b
		return OSC_SLCK_32K_RC_HZ;
  402b18:	f44f 43fa 	mov.w	r3, #32000	; 0x7d00
  402b1c:	e010      	b.n	402b40 <osc_get_rate+0x5c>
		return BOARD_FREQ_SLCK_XTAL;
  402b1e:	f44f 4300 	mov.w	r3, #32768	; 0x8000
  402b22:	e00d      	b.n	402b40 <osc_get_rate+0x5c>
		return BOARD_FREQ_SLCK_BYPASS;
  402b24:	f44f 4300 	mov.w	r3, #32768	; 0x8000
  402b28:	e00a      	b.n	402b40 <osc_get_rate+0x5c>
		return OSC_MAINCK_4M_RC_HZ;
  402b2a:	4b08      	ldr	r3, [pc, #32]	; (402b4c <osc_get_rate+0x68>)
  402b2c:	e008      	b.n	402b40 <osc_get_rate+0x5c>
		return OSC_MAINCK_8M_RC_HZ;
  402b2e:	4b08      	ldr	r3, [pc, #32]	; (402b50 <osc_get_rate+0x6c>)
  402b30:	e006      	b.n	402b40 <osc_get_rate+0x5c>
		return OSC_MAINCK_12M_RC_HZ;
  402b32:	4b08      	ldr	r3, [pc, #32]	; (402b54 <osc_get_rate+0x70>)
  402b34:	e004      	b.n	402b40 <osc_get_rate+0x5c>
		return BOARD_FREQ_MAINCK_XTAL;
  402b36:	4b07      	ldr	r3, [pc, #28]	; (402b54 <osc_get_rate+0x70>)
  402b38:	e002      	b.n	402b40 <osc_get_rate+0x5c>
		return BOARD_FREQ_MAINCK_BYPASS;
  402b3a:	4b06      	ldr	r3, [pc, #24]	; (402b54 <osc_get_rate+0x70>)
  402b3c:	e000      	b.n	402b40 <osc_get_rate+0x5c>
	return 0;
  402b3e:	2300      	movs	r3, #0
}
  402b40:	4618      	mov	r0, r3
  402b42:	370c      	adds	r7, #12
  402b44:	46bd      	mov	sp, r7
  402b46:	f85d 7b04 	ldr.w	r7, [sp], #4
  402b4a:	4770      	bx	lr
  402b4c:	003d0900 	.word	0x003d0900
  402b50:	007a1200 	.word	0x007a1200
  402b54:	00b71b00 	.word	0x00b71b00

00402b58 <sysclk_get_main_hz>:
{
  402b58:	b580      	push	{r7, lr}
  402b5a:	af00      	add	r7, sp, #0
		return pll_get_default_rate(0);
  402b5c:	2006      	movs	r0, #6
  402b5e:	4b05      	ldr	r3, [pc, #20]	; (402b74 <sysclk_get_main_hz+0x1c>)
  402b60:	4798      	blx	r3
  402b62:	4602      	mov	r2, r0
  402b64:	4613      	mov	r3, r2
  402b66:	009b      	lsls	r3, r3, #2
  402b68:	4413      	add	r3, r2
  402b6a:	009a      	lsls	r2, r3, #2
  402b6c:	4413      	add	r3, r2
}
  402b6e:	4618      	mov	r0, r3
  402b70:	bd80      	pop	{r7, pc}
  402b72:	bf00      	nop
  402b74:	00402ae5 	.word	0x00402ae5

00402b78 <sysclk_get_cpu_hz>:
{
  402b78:	b580      	push	{r7, lr}
  402b7a:	af00      	add	r7, sp, #0
	return sysclk_get_main_hz() /
  402b7c:	4b02      	ldr	r3, [pc, #8]	; (402b88 <sysclk_get_cpu_hz+0x10>)
  402b7e:	4798      	blx	r3
  402b80:	4603      	mov	r3, r0
}
  402b82:	4618      	mov	r0, r3
  402b84:	bd80      	pop	{r7, pc}
  402b86:	bf00      	nop
  402b88:	00402b59 	.word	0x00402b59

00402b8c <echo_callback>:

void rtt_reset(Rtt *p_rtt){
	p_rtt->RTT_MR = p_rtt->RTT_MR | RTT_MR_RTTRST;
}

void echo_callback(void){
  402b8c:	b580      	push	{r7, lr}
  402b8e:	b082      	sub	sp, #8
  402b90:	af00      	add	r7, sp, #0
	if (pio_get(ECHO_PIO, PIO_INPUT, ECHO_PIO_IDX_MASK)) {
  402b92:	f44f 6200 	mov.w	r2, #2048	; 0x800
  402b96:	f04f 5120 	mov.w	r1, #671088640	; 0x28000000
  402b9a:	480d      	ldr	r0, [pc, #52]	; (402bd0 <echo_callback+0x44>)
  402b9c:	4b0d      	ldr	r3, [pc, #52]	; (402bd4 <echo_callback+0x48>)
  402b9e:	4798      	blx	r3
  402ba0:	4603      	mov	r3, r0
  402ba2:	2b00      	cmp	r3, #0
  402ba4:	d10f      	bne.n	402bc6 <echo_callback+0x3a>
		//RTT_init(1000, 14, 0);
		//rtt_reset(RTT);
	} else {
		uint32_t tempo_atual = rtt_read_timer_value(RTT);
  402ba6:	480c      	ldr	r0, [pc, #48]	; (402bd8 <echo_callback+0x4c>)
  402ba8:	4b0c      	ldr	r3, [pc, #48]	; (402bdc <echo_callback+0x50>)
  402baa:	4798      	blx	r3
  402bac:	6078      	str	r0, [r7, #4]
		
		tempo = tempo_atual - tempo_anterior;
  402bae:	4b0c      	ldr	r3, [pc, #48]	; (402be0 <echo_callback+0x54>)
  402bb0:	681b      	ldr	r3, [r3, #0]
  402bb2:	687a      	ldr	r2, [r7, #4]
  402bb4:	1ad3      	subs	r3, r2, r3
  402bb6:	4a0b      	ldr	r2, [pc, #44]	; (402be4 <echo_callback+0x58>)
  402bb8:	6013      	str	r3, [r2, #0]
		tempo_anterior = tempo_atual;
  402bba:	4a09      	ldr	r2, [pc, #36]	; (402be0 <echo_callback+0x54>)
  402bbc:	687b      	ldr	r3, [r7, #4]
  402bbe:	6013      	str	r3, [r2, #0]
		f_tempo = 1;
  402bc0:	4b09      	ldr	r3, [pc, #36]	; (402be8 <echo_callback+0x5c>)
  402bc2:	2201      	movs	r2, #1
  402bc4:	701a      	strb	r2, [r3, #0]

		
	}
};
  402bc6:	bf00      	nop
  402bc8:	3708      	adds	r7, #8
  402bca:	46bd      	mov	sp, r7
  402bcc:	bd80      	pop	{r7, pc}
  402bce:	bf00      	nop
  402bd0:	400e1400 	.word	0x400e1400
  402bd4:	00401d55 	.word	0x00401d55
  402bd8:	400e1830 	.word	0x400e1830
  402bdc:	004002ad 	.word	0x004002ad
  402be0:	20400c70 	.word	0x20400c70
  402be4:	20400c74 	.word	0x20400c74
  402be8:	20400c6d 	.word	0x20400c6d

00402bec <RTT_Handler>:

void RTT_Handler(void) {
  402bec:	b580      	push	{r7, lr}
  402bee:	b082      	sub	sp, #8
  402bf0:	af00      	add	r7, sp, #0
	uint32_t ul_status;

	/* Get RTT status - ACK */
	ul_status = rtt_get_status(RTT);
  402bf2:	4809      	ldr	r0, [pc, #36]	; (402c18 <RTT_Handler+0x2c>)
  402bf4:	4b09      	ldr	r3, [pc, #36]	; (402c1c <RTT_Handler+0x30>)
  402bf6:	4798      	blx	r3
  402bf8:	6078      	str	r0, [r7, #4]
	if ((ul_status & RTT_SR_ALMS) == RTT_SR_ALMS) {
		
	}
	
	/* IRQ due to Time has changed */
	if ((ul_status & RTT_SR_RTTINC) == RTT_SR_RTTINC) {
  402bfa:	687b      	ldr	r3, [r7, #4]
  402bfc:	f003 0302 	and.w	r3, r3, #2
  402c00:	2b00      	cmp	r3, #0
  402c02:	d004      	beq.n	402c0e <RTT_Handler+0x22>
		inc++;
  402c04:	4b06      	ldr	r3, [pc, #24]	; (402c20 <RTT_Handler+0x34>)
  402c06:	681b      	ldr	r3, [r3, #0]
  402c08:	3301      	adds	r3, #1
  402c0a:	4a05      	ldr	r2, [pc, #20]	; (402c20 <RTT_Handler+0x34>)
  402c0c:	6013      	str	r3, [r2, #0]
	}

}
  402c0e:	bf00      	nop
  402c10:	3708      	adds	r7, #8
  402c12:	46bd      	mov	sp, r7
  402c14:	bd80      	pop	{r7, pc}
  402c16:	bf00      	nop
  402c18:	400e1830 	.word	0x400e1830
  402c1c:	004002db 	.word	0x004002db
  402c20:	20400c78 	.word	0x20400c78

00402c24 <init>:
/************************************************************************/
/* Funcoes                                                              */
/************************************************************************/

// Funo de inicializao do uC
void init(void){
  402c24:	b590      	push	{r4, r7, lr}
  402c26:	b083      	sub	sp, #12
  402c28:	af02      	add	r7, sp, #8
	// Initialize the board clock
	sysclk_init();
  402c2a:	4b19      	ldr	r3, [pc, #100]	; (402c90 <init+0x6c>)
  402c2c:	4798      	blx	r3

	// Desativa WatchDog Timer
	WDT->WDT_MR = WDT_MR_WDDIS;
  402c2e:	4b19      	ldr	r3, [pc, #100]	; (402c94 <init+0x70>)
  402c30:	f44f 4200 	mov.w	r2, #32768	; 0x8000
  402c34:	605a      	str	r2, [r3, #4]
	
	pio_configure(ECHO_PIO, PIO_INPUT, ECHO_PIO_IDX_MASK, PIO_DEBOUNCE); //tipo botao
  402c36:	2308      	movs	r3, #8
  402c38:	f44f 6200 	mov.w	r2, #2048	; 0x800
  402c3c:	f04f 5120 	mov.w	r1, #671088640	; 0x28000000
  402c40:	4815      	ldr	r0, [pc, #84]	; (402c98 <init+0x74>)
  402c42:	4c16      	ldr	r4, [pc, #88]	; (402c9c <init+0x78>)
  402c44:	47a0      	blx	r4
	pio_configure(TRIG_PIO, PIO_OUTPUT_0, TRIG_PIO_IDX_MASK, PIO_DEBOUNCE); //tipo led
  402c46:	2308      	movs	r3, #8
  402c48:	f44f 5200 	mov.w	r2, #8192	; 0x2000
  402c4c:	f04f 5140 	mov.w	r1, #805306368	; 0x30000000
  402c50:	4813      	ldr	r0, [pc, #76]	; (402ca0 <init+0x7c>)
  402c52:	4c12      	ldr	r4, [pc, #72]	; (402c9c <init+0x78>)
  402c54:	47a0      	blx	r4
	
	pio_handler_set(ECHO_PIO,
  402c56:	4b13      	ldr	r3, [pc, #76]	; (402ca4 <init+0x80>)
  402c58:	9300      	str	r3, [sp, #0]
  402c5a:	2340      	movs	r3, #64	; 0x40
  402c5c:	f44f 6200 	mov.w	r2, #2048	; 0x800
  402c60:	2110      	movs	r1, #16
  402c62:	480d      	ldr	r0, [pc, #52]	; (402c98 <init+0x74>)
  402c64:	4c10      	ldr	r4, [pc, #64]	; (402ca8 <init+0x84>)
  402c66:	47a0      	blx	r4
	ECHO_PIO_ID,
	ECHO_PIO_IDX_MASK,
	PIO_IT_EDGE,
	echo_callback);
	
	pio_enable_interrupt(ECHO_PIO, ECHO_PIO_IDX_MASK);
  402c68:	f44f 6100 	mov.w	r1, #2048	; 0x800
  402c6c:	480a      	ldr	r0, [pc, #40]	; (402c98 <init+0x74>)
  402c6e:	4b0f      	ldr	r3, [pc, #60]	; (402cac <init+0x88>)
  402c70:	4798      	blx	r3
	pio_get_interrupt_status(ECHO_PIO);
  402c72:	4809      	ldr	r0, [pc, #36]	; (402c98 <init+0x74>)
  402c74:	4b0e      	ldr	r3, [pc, #56]	; (402cb0 <init+0x8c>)
  402c76:	4798      	blx	r3
	
	NVIC_EnableIRQ(ECHO_PIO_ID);
  402c78:	2010      	movs	r0, #16
  402c7a:	4b0e      	ldr	r3, [pc, #56]	; (402cb4 <init+0x90>)
  402c7c:	4798      	blx	r3
	NVIC_SetPriority(ECHO_PIO_ID, 4); // Prioridade 4
  402c7e:	2104      	movs	r1, #4
  402c80:	2010      	movs	r0, #16
  402c82:	4b0d      	ldr	r3, [pc, #52]	; (402cb8 <init+0x94>)
  402c84:	4798      	blx	r3
}
  402c86:	bf00      	nop
  402c88:	3704      	adds	r7, #4
  402c8a:	46bd      	mov	sp, r7
  402c8c:	bd90      	pop	{r4, r7, pc}
  402c8e:	bf00      	nop
  402c90:	004017a9 	.word	0x004017a9
  402c94:	400e1850 	.word	0x400e1850
  402c98:	400e1400 	.word	0x400e1400
  402c9c:	00401f91 	.word	0x00401f91
  402ca0:	400e1200 	.word	0x400e1200
  402ca4:	00402b8d 	.word	0x00402b8d
  402ca8:	004021e5 	.word	0x004021e5
  402cac:	004020c9 	.word	0x004020c9
  402cb0:	00402101 	.word	0x00402101
  402cb4:	004029f5 	.word	0x004029f5
  402cb8:	00402a91 	.word	0x00402a91

00402cbc <RTT_init>:




static void RTT_init(float freqPrescale, uint32_t IrqNPulses, uint32_t rttIRQSource) {
  402cbc:	b580      	push	{r7, lr}
  402cbe:	b086      	sub	sp, #24
  402cc0:	af00      	add	r7, sp, #0
  402cc2:	60f8      	str	r0, [r7, #12]
  402cc4:	60b9      	str	r1, [r7, #8]
  402cc6:	607a      	str	r2, [r7, #4]

	uint16_t pllPreScale = (int) (((float) 32768) / freqPrescale);
  402cc8:	eddf 6a26 	vldr	s13, [pc, #152]	; 402d64 <RTT_init+0xa8>
  402ccc:	ed97 7a03 	vldr	s14, [r7, #12]
  402cd0:	eec6 7a87 	vdiv.f32	s15, s13, s14
  402cd4:	eefd 7ae7 	vcvt.s32.f32	s15, s15
  402cd8:	edc7 7a00 	vstr	s15, [r7]
  402cdc:	883b      	ldrh	r3, [r7, #0]
  402cde:	82fb      	strh	r3, [r7, #22]
	
	rtt_sel_source(RTT, false);
  402ce0:	2100      	movs	r1, #0
  402ce2:	4821      	ldr	r0, [pc, #132]	; (402d68 <RTT_init+0xac>)
  402ce4:	4b21      	ldr	r3, [pc, #132]	; (402d6c <RTT_init+0xb0>)
  402ce6:	4798      	blx	r3
	rtt_init(RTT, pllPreScale);
  402ce8:	8afb      	ldrh	r3, [r7, #22]
  402cea:	4619      	mov	r1, r3
  402cec:	481e      	ldr	r0, [pc, #120]	; (402d68 <RTT_init+0xac>)
  402cee:	4b20      	ldr	r3, [pc, #128]	; (402d70 <RTT_init+0xb4>)
  402cf0:	4798      	blx	r3
	
	if (rttIRQSource & RTT_MR_ALMIEN) {
  402cf2:	687b      	ldr	r3, [r7, #4]
  402cf4:	f403 3380 	and.w	r3, r3, #65536	; 0x10000
  402cf8:	2b00      	cmp	r3, #0
  402cfa:	d012      	beq.n	402d22 <RTT_init+0x66>
		uint32_t ul_previous_time;
		ul_previous_time = rtt_read_timer_value(RTT);
  402cfc:	481a      	ldr	r0, [pc, #104]	; (402d68 <RTT_init+0xac>)
  402cfe:	4b1d      	ldr	r3, [pc, #116]	; (402d74 <RTT_init+0xb8>)
  402d00:	4798      	blx	r3
  402d02:	6138      	str	r0, [r7, #16]
		while (ul_previous_time == rtt_read_timer_value(RTT));
  402d04:	bf00      	nop
  402d06:	4818      	ldr	r0, [pc, #96]	; (402d68 <RTT_init+0xac>)
  402d08:	4b1a      	ldr	r3, [pc, #104]	; (402d74 <RTT_init+0xb8>)
  402d0a:	4798      	blx	r3
  402d0c:	4602      	mov	r2, r0
  402d0e:	693b      	ldr	r3, [r7, #16]
  402d10:	429a      	cmp	r2, r3
  402d12:	d0f8      	beq.n	402d06 <RTT_init+0x4a>
		rtt_write_alarm_time(RTT, IrqNPulses+ul_previous_time);
  402d14:	68ba      	ldr	r2, [r7, #8]
  402d16:	693b      	ldr	r3, [r7, #16]
  402d18:	4413      	add	r3, r2
  402d1a:	4619      	mov	r1, r3
  402d1c:	4812      	ldr	r0, [pc, #72]	; (402d68 <RTT_init+0xac>)
  402d1e:	4b16      	ldr	r3, [pc, #88]	; (402d78 <RTT_init+0xbc>)
  402d20:	4798      	blx	r3
	}

	/* config NVIC */
	NVIC_DisableIRQ(RTT_IRQn);
  402d22:	2003      	movs	r0, #3
  402d24:	4b15      	ldr	r3, [pc, #84]	; (402d7c <RTT_init+0xc0>)
  402d26:	4798      	blx	r3
	NVIC_ClearPendingIRQ(RTT_IRQn);
  402d28:	2003      	movs	r0, #3
  402d2a:	4b15      	ldr	r3, [pc, #84]	; (402d80 <RTT_init+0xc4>)
  402d2c:	4798      	blx	r3
	NVIC_SetPriority(RTT_IRQn, 4);
  402d2e:	2104      	movs	r1, #4
  402d30:	2003      	movs	r0, #3
  402d32:	4b14      	ldr	r3, [pc, #80]	; (402d84 <RTT_init+0xc8>)
  402d34:	4798      	blx	r3
	NVIC_EnableIRQ(RTT_IRQn);
  402d36:	2003      	movs	r0, #3
  402d38:	4b13      	ldr	r3, [pc, #76]	; (402d88 <RTT_init+0xcc>)
  402d3a:	4798      	blx	r3

	/* Enable RTT interrupt */
	if (rttIRQSource & (RTT_MR_RTTINCIEN | RTT_MR_ALMIEN))
  402d3c:	687b      	ldr	r3, [r7, #4]
  402d3e:	f403 3340 	and.w	r3, r3, #196608	; 0x30000
  402d42:	2b00      	cmp	r3, #0
  402d44:	d004      	beq.n	402d50 <RTT_init+0x94>
	rtt_enable_interrupt(RTT, rttIRQSource);
  402d46:	6879      	ldr	r1, [r7, #4]
  402d48:	4807      	ldr	r0, [pc, #28]	; (402d68 <RTT_init+0xac>)
  402d4a:	4b10      	ldr	r3, [pc, #64]	; (402d8c <RTT_init+0xd0>)
  402d4c:	4798      	blx	r3
	else
	rtt_disable_interrupt(RTT, RTT_MR_RTTINCIEN | RTT_MR_ALMIEN);
	
}
  402d4e:	e004      	b.n	402d5a <RTT_init+0x9e>
	rtt_disable_interrupt(RTT, RTT_MR_RTTINCIEN | RTT_MR_ALMIEN);
  402d50:	f44f 3140 	mov.w	r1, #196608	; 0x30000
  402d54:	4804      	ldr	r0, [pc, #16]	; (402d68 <RTT_init+0xac>)
  402d56:	4b0e      	ldr	r3, [pc, #56]	; (402d90 <RTT_init+0xd4>)
  402d58:	4798      	blx	r3
}
  402d5a:	bf00      	nop
  402d5c:	3718      	adds	r7, #24
  402d5e:	46bd      	mov	sp, r7
  402d60:	bd80      	pop	{r7, pc}
  402d62:	bf00      	nop
  402d64:	47000000 	.word	0x47000000
  402d68:	400e1830 	.word	0x400e1830
  402d6c:	004001dd 	.word	0x004001dd
  402d70:	004001ad 	.word	0x004001ad
  402d74:	004002ad 	.word	0x004002ad
  402d78:	004002f5 	.word	0x004002f5
  402d7c:	00402a29 	.word	0x00402a29
  402d80:	00402a5d 	.word	0x00402a5d
  402d84:	00402a91 	.word	0x00402a91
  402d88:	004029f5 	.word	0x004029f5
  402d8c:	00400235 	.word	0x00400235
  402d90:	0040026d 	.word	0x0040026d

00402d94 <main>:

int main (void)
{
  402d94:	e92d 4ff0 	stmdb	sp!, {r4, r5, r6, r7, r8, r9, sl, fp, lr}
  402d98:	b087      	sub	sp, #28
  402d9a:	af00      	add	r7, sp, #0
	float dist = 0;
  402d9c:	f04f 0300 	mov.w	r3, #0
  402da0:	613b      	str	r3, [r7, #16]
	
	
	board_init();
  402da2:	4b72      	ldr	r3, [pc, #456]	; (402f6c <main+0x1d8>)
  402da4:	4798      	blx	r3
	sysclk_init();
  402da6:	4b72      	ldr	r3, [pc, #456]	; (402f70 <main+0x1dc>)
  402da8:	4798      	blx	r3
	delay_init();
	init();
  402daa:	4b72      	ldr	r3, [pc, #456]	; (402f74 <main+0x1e0>)
  402dac:	4798      	blx	r3
	RTT_init(1000.0, 14, 0);
  402dae:	2200      	movs	r2, #0
  402db0:	210e      	movs	r1, #14
  402db2:	4871      	ldr	r0, [pc, #452]	; (402f78 <main+0x1e4>)
  402db4:	4b71      	ldr	r3, [pc, #452]	; (402f7c <main+0x1e8>)
  402db6:	4798      	blx	r3


	// Init OLED
	gfx_mono_ssd1306_init();
  402db8:	4b71      	ldr	r3, [pc, #452]	; (402f80 <main+0x1ec>)
  402dba:	4798      	blx	r3
	
	//sprintf(str, "%6.0lf", dist);
	//gfx_mono_draw_string(str, 0, 0, &sysfont);
	
	delay_s(1);
  402dbc:	4b71      	ldr	r3, [pc, #452]	; (402f84 <main+0x1f0>)
  402dbe:	4798      	blx	r3
  402dc0:	4603      	mov	r3, r0
  402dc2:	4619      	mov	r1, r3
  402dc4:	f04f 0200 	mov.w	r2, #0
  402dc8:	460b      	mov	r3, r1
  402dca:	4614      	mov	r4, r2
  402dcc:	0160      	lsls	r0, r4, #5
  402dce:	60f8      	str	r0, [r7, #12]
  402dd0:	68f8      	ldr	r0, [r7, #12]
  402dd2:	ea40 60d3 	orr.w	r0, r0, r3, lsr #27
  402dd6:	60f8      	str	r0, [r7, #12]
  402dd8:	015b      	lsls	r3, r3, #5
  402dda:	60bb      	str	r3, [r7, #8]
  402ddc:	e9d7 3402 	ldrd	r3, r4, [r7, #8]
  402de0:	1a5b      	subs	r3, r3, r1
  402de2:	eb64 0402 	sbc.w	r4, r4, r2
  402de6:	00a0      	lsls	r0, r4, #2
  402de8:	6078      	str	r0, [r7, #4]
  402dea:	6878      	ldr	r0, [r7, #4]
  402dec:	ea40 7093 	orr.w	r0, r0, r3, lsr #30
  402df0:	6078      	str	r0, [r7, #4]
  402df2:	009b      	lsls	r3, r3, #2
  402df4:	603b      	str	r3, [r7, #0]
  402df6:	e9d7 3400 	ldrd	r3, r4, [r7]
  402dfa:	185b      	adds	r3, r3, r1
  402dfc:	eb44 0402 	adc.w	r4, r4, r2
  402e00:	ea4f 0bc4 	mov.w	fp, r4, lsl #3
  402e04:	ea4b 7b53 	orr.w	fp, fp, r3, lsr #29
  402e08:	ea4f 0ac3 	mov.w	sl, r3, lsl #3
  402e0c:	4653      	mov	r3, sl
  402e0e:	465c      	mov	r4, fp
  402e10:	4619      	mov	r1, r3
  402e12:	4622      	mov	r2, r4
  402e14:	f241 732b 	movw	r3, #5931	; 0x172b
  402e18:	f04f 0400 	mov.w	r4, #0
  402e1c:	eb11 0a03 	adds.w	sl, r1, r3
  402e20:	eb42 0b04 	adc.w	fp, r2, r4
  402e24:	4650      	mov	r0, sl
  402e26:	4659      	mov	r1, fp
  402e28:	4c57      	ldr	r4, [pc, #348]	; (402f88 <main+0x1f4>)
  402e2a:	f241 722c 	movw	r2, #5932	; 0x172c
  402e2e:	f04f 0300 	mov.w	r3, #0
  402e32:	47a0      	blx	r4
  402e34:	4603      	mov	r3, r0
  402e36:	460c      	mov	r4, r1
  402e38:	4618      	mov	r0, r3
  402e3a:	4b54      	ldr	r3, [pc, #336]	; (402f8c <main+0x1f8>)
  402e3c:	4798      	blx	r3
	int i = 0 ;
  402e3e:	2300      	movs	r3, #0
  402e40:	617b      	str	r3, [r7, #20]
	
	/* Insert application code here, after the board has been initialized. */
	while(1) {
			delay_ms(100);
  402e42:	4b50      	ldr	r3, [pc, #320]	; (402f84 <main+0x1f0>)
  402e44:	4798      	blx	r3
  402e46:	4603      	mov	r3, r0
  402e48:	4619      	mov	r1, r3
  402e4a:	f04f 0200 	mov.w	r2, #0
  402e4e:	460b      	mov	r3, r1
  402e50:	4614      	mov	r4, r2
  402e52:	18db      	adds	r3, r3, r3
  402e54:	eb44 0404 	adc.w	r4, r4, r4
  402e58:	185b      	adds	r3, r3, r1
  402e5a:	eb44 0402 	adc.w	r4, r4, r2
  402e5e:	0166      	lsls	r6, r4, #5
  402e60:	ea46 66d3 	orr.w	r6, r6, r3, lsr #27
  402e64:	015d      	lsls	r5, r3, #5
  402e66:	195b      	adds	r3, r3, r5
  402e68:	eb44 0406 	adc.w	r4, r4, r6
  402e6c:	185b      	adds	r3, r3, r1
  402e6e:	eb44 0402 	adc.w	r4, r4, r2
  402e72:	f241 712b 	movw	r1, #5931	; 0x172b
  402e76:	f04f 0200 	mov.w	r2, #0
  402e7a:	eb13 0a01 	adds.w	sl, r3, r1
  402e7e:	eb44 0b02 	adc.w	fp, r4, r2
  402e82:	4650      	mov	r0, sl
  402e84:	4659      	mov	r1, fp
  402e86:	4c40      	ldr	r4, [pc, #256]	; (402f88 <main+0x1f4>)
  402e88:	f241 722c 	movw	r2, #5932	; 0x172c
  402e8c:	f04f 0300 	mov.w	r3, #0
  402e90:	47a0      	blx	r4
  402e92:	4603      	mov	r3, r0
  402e94:	460c      	mov	r4, r1
  402e96:	4618      	mov	r0, r3
  402e98:	4b3c      	ldr	r3, [pc, #240]	; (402f8c <main+0x1f8>)
  402e9a:	4798      	blx	r3

		if(end_flag == 0){
  402e9c:	4b3c      	ldr	r3, [pc, #240]	; (402f90 <main+0x1fc>)
  402e9e:	781b      	ldrb	r3, [r3, #0]
  402ea0:	b2db      	uxtb	r3, r3
  402ea2:	2b00      	cmp	r3, #0
  402ea4:	d137      	bne.n	402f16 <main+0x182>
			pio_set(TRIG_PIO,TRIG_PIO_IDX_MASK);
  402ea6:	f44f 5100 	mov.w	r1, #8192	; 0x2000
  402eaa:	483a      	ldr	r0, [pc, #232]	; (402f94 <main+0x200>)
  402eac:	4b3a      	ldr	r3, [pc, #232]	; (402f98 <main+0x204>)
  402eae:	4798      	blx	r3
			delay_us(10);
  402eb0:	4b34      	ldr	r3, [pc, #208]	; (402f84 <main+0x1f0>)
  402eb2:	4798      	blx	r3
  402eb4:	4603      	mov	r3, r0
  402eb6:	4619      	mov	r1, r3
  402eb8:	f04f 0200 	mov.w	r2, #0
  402ebc:	460b      	mov	r3, r1
  402ebe:	4614      	mov	r4, r2
  402ec0:	ea4f 0984 	mov.w	r9, r4, lsl #2
  402ec4:	ea49 7993 	orr.w	r9, r9, r3, lsr #30
  402ec8:	ea4f 0883 	mov.w	r8, r3, lsl #2
  402ecc:	4643      	mov	r3, r8
  402ece:	464c      	mov	r4, r9
  402ed0:	185b      	adds	r3, r3, r1
  402ed2:	eb44 0402 	adc.w	r4, r4, r2
  402ed6:	18db      	adds	r3, r3, r3
  402ed8:	eb44 0404 	adc.w	r4, r4, r4
  402edc:	4619      	mov	r1, r3
  402ede:	4622      	mov	r2, r4
  402ee0:	4b2e      	ldr	r3, [pc, #184]	; (402f9c <main+0x208>)
  402ee2:	f04f 0400 	mov.w	r4, #0
  402ee6:	eb11 0a03 	adds.w	sl, r1, r3
  402eea:	eb42 0b04 	adc.w	fp, r2, r4
  402eee:	4650      	mov	r0, sl
  402ef0:	4659      	mov	r1, fp
  402ef2:	4c25      	ldr	r4, [pc, #148]	; (402f88 <main+0x1f4>)
  402ef4:	4a2a      	ldr	r2, [pc, #168]	; (402fa0 <main+0x20c>)
  402ef6:	f04f 0300 	mov.w	r3, #0
  402efa:	47a0      	blx	r4
  402efc:	4603      	mov	r3, r0
  402efe:	460c      	mov	r4, r1
  402f00:	4618      	mov	r0, r3
  402f02:	4b22      	ldr	r3, [pc, #136]	; (402f8c <main+0x1f8>)
  402f04:	4798      	blx	r3
			pio_clear(TRIG_PIO,TRIG_PIO_IDX_MASK);
  402f06:	f44f 5100 	mov.w	r1, #8192	; 0x2000
  402f0a:	4822      	ldr	r0, [pc, #136]	; (402f94 <main+0x200>)
  402f0c:	4b25      	ldr	r3, [pc, #148]	; (402fa4 <main+0x210>)
  402f0e:	4798      	blx	r3
			end_flag = 1;
  402f10:	4b1f      	ldr	r3, [pc, #124]	; (402f90 <main+0x1fc>)
  402f12:	2201      	movs	r2, #1
  402f14:	701a      	strb	r2, [r3, #0]
		}
		
		
		if (f_tempo) {
  402f16:	4b24      	ldr	r3, [pc, #144]	; (402fa8 <main+0x214>)
  402f18:	781b      	ldrb	r3, [r3, #0]
  402f1a:	b2db      	uxtb	r3, r3
  402f1c:	2b00      	cmp	r3, #0
  402f1e:	d090      	beq.n	402e42 <main+0xae>
			i++;
  402f20:	697b      	ldr	r3, [r7, #20]
  402f22:	3301      	adds	r3, #1
  402f24:	617b      	str	r3, [r7, #20]
			dist = tempo/2 * 340;
  402f26:	4b21      	ldr	r3, [pc, #132]	; (402fac <main+0x218>)
  402f28:	681b      	ldr	r3, [r3, #0]
  402f2a:	085b      	lsrs	r3, r3, #1
  402f2c:	f44f 72aa 	mov.w	r2, #340	; 0x154
  402f30:	fb02 f303 	mul.w	r3, r2, r3
  402f34:	ee07 3a90 	vmov	s15, r3
  402f38:	eef8 7a67 	vcvt.f32.u32	s15, s15
  402f3c:	edc7 7a04 	vstr	s15, [r7, #16]
			sprintf(str, "%02d / %05d", inc, tempo);
  402f40:	4b1b      	ldr	r3, [pc, #108]	; (402fb0 <main+0x21c>)
  402f42:	681a      	ldr	r2, [r3, #0]
  402f44:	4b19      	ldr	r3, [pc, #100]	; (402fac <main+0x218>)
  402f46:	681b      	ldr	r3, [r3, #0]
  402f48:	491a      	ldr	r1, [pc, #104]	; (402fb4 <main+0x220>)
  402f4a:	481b      	ldr	r0, [pc, #108]	; (402fb8 <main+0x224>)
  402f4c:	4c1b      	ldr	r4, [pc, #108]	; (402fbc <main+0x228>)
  402f4e:	47a0      	blx	r4
			gfx_mono_draw_string(str, 0, 0, &sysfont);
  402f50:	4b1b      	ldr	r3, [pc, #108]	; (402fc0 <main+0x22c>)
  402f52:	2200      	movs	r2, #0
  402f54:	2100      	movs	r1, #0
  402f56:	4818      	ldr	r0, [pc, #96]	; (402fb8 <main+0x224>)
  402f58:	4c1a      	ldr	r4, [pc, #104]	; (402fc4 <main+0x230>)
  402f5a:	47a0      	blx	r4
			end_flag = 0;
  402f5c:	4b0c      	ldr	r3, [pc, #48]	; (402f90 <main+0x1fc>)
  402f5e:	2200      	movs	r2, #0
  402f60:	701a      	strb	r2, [r3, #0]
			f_tempo = 0;
  402f62:	4b11      	ldr	r3, [pc, #68]	; (402fa8 <main+0x214>)
  402f64:	2200      	movs	r2, #0
  402f66:	701a      	strb	r2, [r3, #0]
			delay_ms(100);
  402f68:	e76b      	b.n	402e42 <main+0xae>
  402f6a:	bf00      	nop
  402f6c:	00401c6d 	.word	0x00401c6d
  402f70:	004017a9 	.word	0x004017a9
  402f74:	00402c25 	.word	0x00402c25
  402f78:	447a0000 	.word	0x447a0000
  402f7c:	00402cbd 	.word	0x00402cbd
  402f80:	00400af5 	.word	0x00400af5
  402f84:	00402b79 	.word	0x00402b79
  402f88:	00402fc9 	.word	0x00402fc9
  402f8c:	20400001 	.word	0x20400001
  402f90:	20400c6c 	.word	0x20400c6c
  402f94:	400e1200 	.word	0x400e1200
  402f98:	00401d1d 	.word	0x00401d1d
  402f9c:	005a83df 	.word	0x005a83df
  402fa0:	005a83e0 	.word	0x005a83e0
  402fa4:	00401d39 	.word	0x00401d39
  402fa8:	20400c6d 	.word	0x20400c6d
  402fac:	20400c74 	.word	0x20400c74
  402fb0:	20400c78 	.word	0x20400c78
  402fb4:	0040832c 	.word	0x0040832c
  402fb8:	20400cb0 	.word	0x20400cb0
  402fbc:	004033c5 	.word	0x004033c5
  402fc0:	2040000c 	.word	0x2040000c
  402fc4:	004009f1 	.word	0x004009f1

00402fc8 <__aeabi_uldivmod>:
  402fc8:	b953      	cbnz	r3, 402fe0 <__aeabi_uldivmod+0x18>
  402fca:	b94a      	cbnz	r2, 402fe0 <__aeabi_uldivmod+0x18>
  402fcc:	2900      	cmp	r1, #0
  402fce:	bf08      	it	eq
  402fd0:	2800      	cmpeq	r0, #0
  402fd2:	bf1c      	itt	ne
  402fd4:	f04f 31ff 	movne.w	r1, #4294967295
  402fd8:	f04f 30ff 	movne.w	r0, #4294967295
  402fdc:	f000 b97a 	b.w	4032d4 <__aeabi_idiv0>
  402fe0:	f1ad 0c08 	sub.w	ip, sp, #8
  402fe4:	e96d ce04 	strd	ip, lr, [sp, #-16]!
  402fe8:	f000 f806 	bl	402ff8 <__udivmoddi4>
  402fec:	f8dd e004 	ldr.w	lr, [sp, #4]
  402ff0:	e9dd 2302 	ldrd	r2, r3, [sp, #8]
  402ff4:	b004      	add	sp, #16
  402ff6:	4770      	bx	lr

00402ff8 <__udivmoddi4>:
  402ff8:	e92d 47f0 	stmdb	sp!, {r4, r5, r6, r7, r8, r9, sl, lr}
  402ffc:	468c      	mov	ip, r1
  402ffe:	460d      	mov	r5, r1
  403000:	4604      	mov	r4, r0
  403002:	9e08      	ldr	r6, [sp, #32]
  403004:	2b00      	cmp	r3, #0
  403006:	d151      	bne.n	4030ac <__udivmoddi4+0xb4>
  403008:	428a      	cmp	r2, r1
  40300a:	4617      	mov	r7, r2
  40300c:	d96d      	bls.n	4030ea <__udivmoddi4+0xf2>
  40300e:	fab2 fe82 	clz	lr, r2
  403012:	f1be 0f00 	cmp.w	lr, #0
  403016:	d00b      	beq.n	403030 <__udivmoddi4+0x38>
  403018:	f1ce 0c20 	rsb	ip, lr, #32
  40301c:	fa01 f50e 	lsl.w	r5, r1, lr
  403020:	fa20 fc0c 	lsr.w	ip, r0, ip
  403024:	fa02 f70e 	lsl.w	r7, r2, lr
  403028:	ea4c 0c05 	orr.w	ip, ip, r5
  40302c:	fa00 f40e 	lsl.w	r4, r0, lr
  403030:	ea4f 4a17 	mov.w	sl, r7, lsr #16
  403034:	0c25      	lsrs	r5, r4, #16
  403036:	fbbc f8fa 	udiv	r8, ip, sl
  40303a:	fa1f f987 	uxth.w	r9, r7
  40303e:	fb0a cc18 	mls	ip, sl, r8, ip
  403042:	ea45 450c 	orr.w	r5, r5, ip, lsl #16
  403046:	fb08 f309 	mul.w	r3, r8, r9
  40304a:	42ab      	cmp	r3, r5
  40304c:	d90a      	bls.n	403064 <__udivmoddi4+0x6c>
  40304e:	19ed      	adds	r5, r5, r7
  403050:	f108 32ff 	add.w	r2, r8, #4294967295
  403054:	f080 8123 	bcs.w	40329e <__udivmoddi4+0x2a6>
  403058:	42ab      	cmp	r3, r5
  40305a:	f240 8120 	bls.w	40329e <__udivmoddi4+0x2a6>
  40305e:	f1a8 0802 	sub.w	r8, r8, #2
  403062:	443d      	add	r5, r7
  403064:	1aed      	subs	r5, r5, r3
  403066:	b2a4      	uxth	r4, r4
  403068:	fbb5 f0fa 	udiv	r0, r5, sl
  40306c:	fb0a 5510 	mls	r5, sl, r0, r5
  403070:	ea44 4405 	orr.w	r4, r4, r5, lsl #16
  403074:	fb00 f909 	mul.w	r9, r0, r9
  403078:	45a1      	cmp	r9, r4
  40307a:	d909      	bls.n	403090 <__udivmoddi4+0x98>
  40307c:	19e4      	adds	r4, r4, r7
  40307e:	f100 33ff 	add.w	r3, r0, #4294967295
  403082:	f080 810a 	bcs.w	40329a <__udivmoddi4+0x2a2>
  403086:	45a1      	cmp	r9, r4
  403088:	f240 8107 	bls.w	40329a <__udivmoddi4+0x2a2>
  40308c:	3802      	subs	r0, #2
  40308e:	443c      	add	r4, r7
  403090:	eba4 0409 	sub.w	r4, r4, r9
  403094:	ea40 4008 	orr.w	r0, r0, r8, lsl #16
  403098:	2100      	movs	r1, #0
  40309a:	2e00      	cmp	r6, #0
  40309c:	d061      	beq.n	403162 <__udivmoddi4+0x16a>
  40309e:	fa24 f40e 	lsr.w	r4, r4, lr
  4030a2:	2300      	movs	r3, #0
  4030a4:	6034      	str	r4, [r6, #0]
  4030a6:	6073      	str	r3, [r6, #4]
  4030a8:	e8bd 87f0 	ldmia.w	sp!, {r4, r5, r6, r7, r8, r9, sl, pc}
  4030ac:	428b      	cmp	r3, r1
  4030ae:	d907      	bls.n	4030c0 <__udivmoddi4+0xc8>
  4030b0:	2e00      	cmp	r6, #0
  4030b2:	d054      	beq.n	40315e <__udivmoddi4+0x166>
  4030b4:	2100      	movs	r1, #0
  4030b6:	e886 0021 	stmia.w	r6, {r0, r5}
  4030ba:	4608      	mov	r0, r1
  4030bc:	e8bd 87f0 	ldmia.w	sp!, {r4, r5, r6, r7, r8, r9, sl, pc}
  4030c0:	fab3 f183 	clz	r1, r3
  4030c4:	2900      	cmp	r1, #0
  4030c6:	f040 808e 	bne.w	4031e6 <__udivmoddi4+0x1ee>
  4030ca:	42ab      	cmp	r3, r5
  4030cc:	d302      	bcc.n	4030d4 <__udivmoddi4+0xdc>
  4030ce:	4282      	cmp	r2, r0
  4030d0:	f200 80fa 	bhi.w	4032c8 <__udivmoddi4+0x2d0>
  4030d4:	1a84      	subs	r4, r0, r2
  4030d6:	eb65 0503 	sbc.w	r5, r5, r3
  4030da:	2001      	movs	r0, #1
  4030dc:	46ac      	mov	ip, r5
  4030de:	2e00      	cmp	r6, #0
  4030e0:	d03f      	beq.n	403162 <__udivmoddi4+0x16a>
  4030e2:	e886 1010 	stmia.w	r6, {r4, ip}
  4030e6:	e8bd 87f0 	ldmia.w	sp!, {r4, r5, r6, r7, r8, r9, sl, pc}
  4030ea:	b912      	cbnz	r2, 4030f2 <__udivmoddi4+0xfa>
  4030ec:	2701      	movs	r7, #1
  4030ee:	fbb7 f7f2 	udiv	r7, r7, r2
  4030f2:	fab7 fe87 	clz	lr, r7
  4030f6:	f1be 0f00 	cmp.w	lr, #0
  4030fa:	d134      	bne.n	403166 <__udivmoddi4+0x16e>
  4030fc:	1beb      	subs	r3, r5, r7
  4030fe:	0c3a      	lsrs	r2, r7, #16
  403100:	fa1f fc87 	uxth.w	ip, r7
  403104:	2101      	movs	r1, #1
  403106:	fbb3 f8f2 	udiv	r8, r3, r2
  40310a:	0c25      	lsrs	r5, r4, #16
  40310c:	fb02 3318 	mls	r3, r2, r8, r3
  403110:	ea45 4503 	orr.w	r5, r5, r3, lsl #16
  403114:	fb0c f308 	mul.w	r3, ip, r8
  403118:	42ab      	cmp	r3, r5
  40311a:	d907      	bls.n	40312c <__udivmoddi4+0x134>
  40311c:	19ed      	adds	r5, r5, r7
  40311e:	f108 30ff 	add.w	r0, r8, #4294967295
  403122:	d202      	bcs.n	40312a <__udivmoddi4+0x132>
  403124:	42ab      	cmp	r3, r5
  403126:	f200 80d1 	bhi.w	4032cc <__udivmoddi4+0x2d4>
  40312a:	4680      	mov	r8, r0
  40312c:	1aed      	subs	r5, r5, r3
  40312e:	b2a3      	uxth	r3, r4
  403130:	fbb5 f0f2 	udiv	r0, r5, r2
  403134:	fb02 5510 	mls	r5, r2, r0, r5
  403138:	ea43 4405 	orr.w	r4, r3, r5, lsl #16
  40313c:	fb0c fc00 	mul.w	ip, ip, r0
  403140:	45a4      	cmp	ip, r4
  403142:	d907      	bls.n	403154 <__udivmoddi4+0x15c>
  403144:	19e4      	adds	r4, r4, r7
  403146:	f100 33ff 	add.w	r3, r0, #4294967295
  40314a:	d202      	bcs.n	403152 <__udivmoddi4+0x15a>
  40314c:	45a4      	cmp	ip, r4
  40314e:	f200 80b8 	bhi.w	4032c2 <__udivmoddi4+0x2ca>
  403152:	4618      	mov	r0, r3
  403154:	eba4 040c 	sub.w	r4, r4, ip
  403158:	ea40 4008 	orr.w	r0, r0, r8, lsl #16
  40315c:	e79d      	b.n	40309a <__udivmoddi4+0xa2>
  40315e:	4631      	mov	r1, r6
  403160:	4630      	mov	r0, r6
  403162:	e8bd 87f0 	ldmia.w	sp!, {r4, r5, r6, r7, r8, r9, sl, pc}
  403166:	f1ce 0420 	rsb	r4, lr, #32
  40316a:	fa05 f30e 	lsl.w	r3, r5, lr
  40316e:	fa07 f70e 	lsl.w	r7, r7, lr
  403172:	fa20 f804 	lsr.w	r8, r0, r4
  403176:	0c3a      	lsrs	r2, r7, #16
  403178:	fa25 f404 	lsr.w	r4, r5, r4
  40317c:	ea48 0803 	orr.w	r8, r8, r3
  403180:	fbb4 f1f2 	udiv	r1, r4, r2
  403184:	ea4f 4518 	mov.w	r5, r8, lsr #16
  403188:	fb02 4411 	mls	r4, r2, r1, r4
  40318c:	fa1f fc87 	uxth.w	ip, r7
  403190:	ea45 4504 	orr.w	r5, r5, r4, lsl #16
  403194:	fb01 f30c 	mul.w	r3, r1, ip
  403198:	42ab      	cmp	r3, r5
  40319a:	fa00 f40e 	lsl.w	r4, r0, lr
  40319e:	d909      	bls.n	4031b4 <__udivmoddi4+0x1bc>
  4031a0:	19ed      	adds	r5, r5, r7
  4031a2:	f101 30ff 	add.w	r0, r1, #4294967295
  4031a6:	f080 808a 	bcs.w	4032be <__udivmoddi4+0x2c6>
  4031aa:	42ab      	cmp	r3, r5
  4031ac:	f240 8087 	bls.w	4032be <__udivmoddi4+0x2c6>
  4031b0:	3902      	subs	r1, #2
  4031b2:	443d      	add	r5, r7
  4031b4:	1aeb      	subs	r3, r5, r3
  4031b6:	fa1f f588 	uxth.w	r5, r8
  4031ba:	fbb3 f0f2 	udiv	r0, r3, r2
  4031be:	fb02 3310 	mls	r3, r2, r0, r3
  4031c2:	ea45 4503 	orr.w	r5, r5, r3, lsl #16
  4031c6:	fb00 f30c 	mul.w	r3, r0, ip
  4031ca:	42ab      	cmp	r3, r5
  4031cc:	d907      	bls.n	4031de <__udivmoddi4+0x1e6>
  4031ce:	19ed      	adds	r5, r5, r7
  4031d0:	f100 38ff 	add.w	r8, r0, #4294967295
  4031d4:	d26f      	bcs.n	4032b6 <__udivmoddi4+0x2be>
  4031d6:	42ab      	cmp	r3, r5
  4031d8:	d96d      	bls.n	4032b6 <__udivmoddi4+0x2be>
  4031da:	3802      	subs	r0, #2
  4031dc:	443d      	add	r5, r7
  4031de:	1aeb      	subs	r3, r5, r3
  4031e0:	ea40 4101 	orr.w	r1, r0, r1, lsl #16
  4031e4:	e78f      	b.n	403106 <__udivmoddi4+0x10e>
  4031e6:	f1c1 0720 	rsb	r7, r1, #32
  4031ea:	fa22 f807 	lsr.w	r8, r2, r7
  4031ee:	408b      	lsls	r3, r1
  4031f0:	fa05 f401 	lsl.w	r4, r5, r1
  4031f4:	ea48 0303 	orr.w	r3, r8, r3
  4031f8:	fa20 fe07 	lsr.w	lr, r0, r7
  4031fc:	ea4f 4c13 	mov.w	ip, r3, lsr #16
  403200:	40fd      	lsrs	r5, r7
  403202:	ea4e 0e04 	orr.w	lr, lr, r4
  403206:	fbb5 f9fc 	udiv	r9, r5, ip
  40320a:	ea4f 441e 	mov.w	r4, lr, lsr #16
  40320e:	fb0c 5519 	mls	r5, ip, r9, r5
  403212:	fa1f f883 	uxth.w	r8, r3
  403216:	ea44 4505 	orr.w	r5, r4, r5, lsl #16
  40321a:	fb09 f408 	mul.w	r4, r9, r8
  40321e:	42ac      	cmp	r4, r5
  403220:	fa02 f201 	lsl.w	r2, r2, r1
  403224:	fa00 fa01 	lsl.w	sl, r0, r1
  403228:	d908      	bls.n	40323c <__udivmoddi4+0x244>
  40322a:	18ed      	adds	r5, r5, r3
  40322c:	f109 30ff 	add.w	r0, r9, #4294967295
  403230:	d243      	bcs.n	4032ba <__udivmoddi4+0x2c2>
  403232:	42ac      	cmp	r4, r5
  403234:	d941      	bls.n	4032ba <__udivmoddi4+0x2c2>
  403236:	f1a9 0902 	sub.w	r9, r9, #2
  40323a:	441d      	add	r5, r3
  40323c:	1b2d      	subs	r5, r5, r4
  40323e:	fa1f fe8e 	uxth.w	lr, lr
  403242:	fbb5 f0fc 	udiv	r0, r5, ip
  403246:	fb0c 5510 	mls	r5, ip, r0, r5
  40324a:	ea4e 4405 	orr.w	r4, lr, r5, lsl #16
  40324e:	fb00 f808 	mul.w	r8, r0, r8
  403252:	45a0      	cmp	r8, r4
  403254:	d907      	bls.n	403266 <__udivmoddi4+0x26e>
  403256:	18e4      	adds	r4, r4, r3
  403258:	f100 35ff 	add.w	r5, r0, #4294967295
  40325c:	d229      	bcs.n	4032b2 <__udivmoddi4+0x2ba>
  40325e:	45a0      	cmp	r8, r4
  403260:	d927      	bls.n	4032b2 <__udivmoddi4+0x2ba>
  403262:	3802      	subs	r0, #2
  403264:	441c      	add	r4, r3
  403266:	ea40 4009 	orr.w	r0, r0, r9, lsl #16
  40326a:	eba4 0408 	sub.w	r4, r4, r8
  40326e:	fba0 8902 	umull	r8, r9, r0, r2
  403272:	454c      	cmp	r4, r9
  403274:	46c6      	mov	lr, r8
  403276:	464d      	mov	r5, r9
  403278:	d315      	bcc.n	4032a6 <__udivmoddi4+0x2ae>
  40327a:	d012      	beq.n	4032a2 <__udivmoddi4+0x2aa>
  40327c:	b156      	cbz	r6, 403294 <__udivmoddi4+0x29c>
  40327e:	ebba 030e 	subs.w	r3, sl, lr
  403282:	eb64 0405 	sbc.w	r4, r4, r5
  403286:	fa04 f707 	lsl.w	r7, r4, r7
  40328a:	40cb      	lsrs	r3, r1
  40328c:	431f      	orrs	r7, r3
  40328e:	40cc      	lsrs	r4, r1
  403290:	6037      	str	r7, [r6, #0]
  403292:	6074      	str	r4, [r6, #4]
  403294:	2100      	movs	r1, #0
  403296:	e8bd 87f0 	ldmia.w	sp!, {r4, r5, r6, r7, r8, r9, sl, pc}
  40329a:	4618      	mov	r0, r3
  40329c:	e6f8      	b.n	403090 <__udivmoddi4+0x98>
  40329e:	4690      	mov	r8, r2
  4032a0:	e6e0      	b.n	403064 <__udivmoddi4+0x6c>
  4032a2:	45c2      	cmp	sl, r8
  4032a4:	d2ea      	bcs.n	40327c <__udivmoddi4+0x284>
  4032a6:	ebb8 0e02 	subs.w	lr, r8, r2
  4032aa:	eb69 0503 	sbc.w	r5, r9, r3
  4032ae:	3801      	subs	r0, #1
  4032b0:	e7e4      	b.n	40327c <__udivmoddi4+0x284>
  4032b2:	4628      	mov	r0, r5
  4032b4:	e7d7      	b.n	403266 <__udivmoddi4+0x26e>
  4032b6:	4640      	mov	r0, r8
  4032b8:	e791      	b.n	4031de <__udivmoddi4+0x1e6>
  4032ba:	4681      	mov	r9, r0
  4032bc:	e7be      	b.n	40323c <__udivmoddi4+0x244>
  4032be:	4601      	mov	r1, r0
  4032c0:	e778      	b.n	4031b4 <__udivmoddi4+0x1bc>
  4032c2:	3802      	subs	r0, #2
  4032c4:	443c      	add	r4, r7
  4032c6:	e745      	b.n	403154 <__udivmoddi4+0x15c>
  4032c8:	4608      	mov	r0, r1
  4032ca:	e708      	b.n	4030de <__udivmoddi4+0xe6>
  4032cc:	f1a8 0802 	sub.w	r8, r8, #2
  4032d0:	443d      	add	r5, r7
  4032d2:	e72b      	b.n	40312c <__udivmoddi4+0x134>

004032d4 <__aeabi_idiv0>:
  4032d4:	4770      	bx	lr
  4032d6:	bf00      	nop

004032d8 <__libc_init_array>:
  4032d8:	b570      	push	{r4, r5, r6, lr}
  4032da:	4e0f      	ldr	r6, [pc, #60]	; (403318 <__libc_init_array+0x40>)
  4032dc:	4d0f      	ldr	r5, [pc, #60]	; (40331c <__libc_init_array+0x44>)
  4032de:	1b76      	subs	r6, r6, r5
  4032e0:	10b6      	asrs	r6, r6, #2
  4032e2:	bf18      	it	ne
  4032e4:	2400      	movne	r4, #0
  4032e6:	d005      	beq.n	4032f4 <__libc_init_array+0x1c>
  4032e8:	3401      	adds	r4, #1
  4032ea:	f855 3b04 	ldr.w	r3, [r5], #4
  4032ee:	4798      	blx	r3
  4032f0:	42a6      	cmp	r6, r4
  4032f2:	d1f9      	bne.n	4032e8 <__libc_init_array+0x10>
  4032f4:	4e0a      	ldr	r6, [pc, #40]	; (403320 <__libc_init_array+0x48>)
  4032f6:	4d0b      	ldr	r5, [pc, #44]	; (403324 <__libc_init_array+0x4c>)
  4032f8:	1b76      	subs	r6, r6, r5
  4032fa:	f005 f961 	bl	4085c0 <_init>
  4032fe:	10b6      	asrs	r6, r6, #2
  403300:	bf18      	it	ne
  403302:	2400      	movne	r4, #0
  403304:	d006      	beq.n	403314 <__libc_init_array+0x3c>
  403306:	3401      	adds	r4, #1
  403308:	f855 3b04 	ldr.w	r3, [r5], #4
  40330c:	4798      	blx	r3
  40330e:	42a6      	cmp	r6, r4
  403310:	d1f9      	bne.n	403306 <__libc_init_array+0x2e>
  403312:	bd70      	pop	{r4, r5, r6, pc}
  403314:	bd70      	pop	{r4, r5, r6, pc}
  403316:	bf00      	nop
  403318:	004085cc 	.word	0x004085cc
  40331c:	004085cc 	.word	0x004085cc
  403320:	004085d4 	.word	0x004085d4
  403324:	004085cc 	.word	0x004085cc

00403328 <memset>:
  403328:	b470      	push	{r4, r5, r6}
  40332a:	0786      	lsls	r6, r0, #30
  40332c:	d046      	beq.n	4033bc <memset+0x94>
  40332e:	1e54      	subs	r4, r2, #1
  403330:	2a00      	cmp	r2, #0
  403332:	d041      	beq.n	4033b8 <memset+0x90>
  403334:	b2ca      	uxtb	r2, r1
  403336:	4603      	mov	r3, r0
  403338:	e002      	b.n	403340 <memset+0x18>
  40333a:	f114 34ff 	adds.w	r4, r4, #4294967295
  40333e:	d33b      	bcc.n	4033b8 <memset+0x90>
  403340:	f803 2b01 	strb.w	r2, [r3], #1
  403344:	079d      	lsls	r5, r3, #30
  403346:	d1f8      	bne.n	40333a <memset+0x12>
  403348:	2c03      	cmp	r4, #3
  40334a:	d92e      	bls.n	4033aa <memset+0x82>
  40334c:	b2cd      	uxtb	r5, r1
  40334e:	ea45 2505 	orr.w	r5, r5, r5, lsl #8
  403352:	2c0f      	cmp	r4, #15
  403354:	ea45 4505 	orr.w	r5, r5, r5, lsl #16
  403358:	d919      	bls.n	40338e <memset+0x66>
  40335a:	f103 0210 	add.w	r2, r3, #16
  40335e:	4626      	mov	r6, r4
  403360:	3e10      	subs	r6, #16
  403362:	2e0f      	cmp	r6, #15
  403364:	f842 5c10 	str.w	r5, [r2, #-16]
  403368:	f842 5c0c 	str.w	r5, [r2, #-12]
  40336c:	f842 5c08 	str.w	r5, [r2, #-8]
  403370:	f842 5c04 	str.w	r5, [r2, #-4]
  403374:	f102 0210 	add.w	r2, r2, #16
  403378:	d8f2      	bhi.n	403360 <memset+0x38>
  40337a:	f1a4 0210 	sub.w	r2, r4, #16
  40337e:	f022 020f 	bic.w	r2, r2, #15
  403382:	f004 040f 	and.w	r4, r4, #15
  403386:	3210      	adds	r2, #16
  403388:	2c03      	cmp	r4, #3
  40338a:	4413      	add	r3, r2
  40338c:	d90d      	bls.n	4033aa <memset+0x82>
  40338e:	461e      	mov	r6, r3
  403390:	4622      	mov	r2, r4
  403392:	3a04      	subs	r2, #4
  403394:	2a03      	cmp	r2, #3
  403396:	f846 5b04 	str.w	r5, [r6], #4
  40339a:	d8fa      	bhi.n	403392 <memset+0x6a>
  40339c:	1f22      	subs	r2, r4, #4
  40339e:	f022 0203 	bic.w	r2, r2, #3
  4033a2:	3204      	adds	r2, #4
  4033a4:	4413      	add	r3, r2
  4033a6:	f004 0403 	and.w	r4, r4, #3
  4033aa:	b12c      	cbz	r4, 4033b8 <memset+0x90>
  4033ac:	b2c9      	uxtb	r1, r1
  4033ae:	441c      	add	r4, r3
  4033b0:	f803 1b01 	strb.w	r1, [r3], #1
  4033b4:	429c      	cmp	r4, r3
  4033b6:	d1fb      	bne.n	4033b0 <memset+0x88>
  4033b8:	bc70      	pop	{r4, r5, r6}
  4033ba:	4770      	bx	lr
  4033bc:	4614      	mov	r4, r2
  4033be:	4603      	mov	r3, r0
  4033c0:	e7c2      	b.n	403348 <memset+0x20>
  4033c2:	bf00      	nop

004033c4 <sprintf>:
  4033c4:	b40e      	push	{r1, r2, r3}
  4033c6:	b5f0      	push	{r4, r5, r6, r7, lr}
  4033c8:	b09c      	sub	sp, #112	; 0x70
  4033ca:	ab21      	add	r3, sp, #132	; 0x84
  4033cc:	490f      	ldr	r1, [pc, #60]	; (40340c <sprintf+0x48>)
  4033ce:	f853 2b04 	ldr.w	r2, [r3], #4
  4033d2:	9301      	str	r3, [sp, #4]
  4033d4:	4605      	mov	r5, r0
  4033d6:	f06f 4400 	mvn.w	r4, #2147483648	; 0x80000000
  4033da:	6808      	ldr	r0, [r1, #0]
  4033dc:	9502      	str	r5, [sp, #8]
  4033de:	f44f 7702 	mov.w	r7, #520	; 0x208
  4033e2:	f64f 76ff 	movw	r6, #65535	; 0xffff
  4033e6:	a902      	add	r1, sp, #8
  4033e8:	9506      	str	r5, [sp, #24]
  4033ea:	f8ad 7014 	strh.w	r7, [sp, #20]
  4033ee:	9404      	str	r4, [sp, #16]
  4033f0:	9407      	str	r4, [sp, #28]
  4033f2:	f8ad 6016 	strh.w	r6, [sp, #22]
  4033f6:	f000 f80b 	bl	403410 <_svfprintf_r>
  4033fa:	9b02      	ldr	r3, [sp, #8]
  4033fc:	2200      	movs	r2, #0
  4033fe:	701a      	strb	r2, [r3, #0]
  403400:	b01c      	add	sp, #112	; 0x70
  403402:	e8bd 40f0 	ldmia.w	sp!, {r4, r5, r6, r7, lr}
  403406:	b003      	add	sp, #12
  403408:	4770      	bx	lr
  40340a:	bf00      	nop
  40340c:	20400020 	.word	0x20400020

00403410 <_svfprintf_r>:
  403410:	e92d 4ff0 	stmdb	sp!, {r4, r5, r6, r7, r8, r9, sl, fp, lr}
  403414:	b0c3      	sub	sp, #268	; 0x10c
  403416:	460c      	mov	r4, r1
  403418:	910b      	str	r1, [sp, #44]	; 0x2c
  40341a:	4692      	mov	sl, r2
  40341c:	930f      	str	r3, [sp, #60]	; 0x3c
  40341e:	900c      	str	r0, [sp, #48]	; 0x30
  403420:	f002 fa0e 	bl	405840 <_localeconv_r>
  403424:	6803      	ldr	r3, [r0, #0]
  403426:	931a      	str	r3, [sp, #104]	; 0x68
  403428:	4618      	mov	r0, r3
  40342a:	f003 f8e9 	bl	406600 <strlen>
  40342e:	89a3      	ldrh	r3, [r4, #12]
  403430:	9019      	str	r0, [sp, #100]	; 0x64
  403432:	0619      	lsls	r1, r3, #24
  403434:	d503      	bpl.n	40343e <_svfprintf_r+0x2e>
  403436:	6923      	ldr	r3, [r4, #16]
  403438:	2b00      	cmp	r3, #0
  40343a:	f001 8003 	beq.w	404444 <_svfprintf_r+0x1034>
  40343e:	2300      	movs	r3, #0
  403440:	f10d 09c8 	add.w	r9, sp, #200	; 0xc8
  403444:	9313      	str	r3, [sp, #76]	; 0x4c
  403446:	9315      	str	r3, [sp, #84]	; 0x54
  403448:	9314      	str	r3, [sp, #80]	; 0x50
  40344a:	9327      	str	r3, [sp, #156]	; 0x9c
  40344c:	9326      	str	r3, [sp, #152]	; 0x98
  40344e:	9318      	str	r3, [sp, #96]	; 0x60
  403450:	931b      	str	r3, [sp, #108]	; 0x6c
  403452:	9309      	str	r3, [sp, #36]	; 0x24
  403454:	f8cd 9094 	str.w	r9, [sp, #148]	; 0x94
  403458:	46c8      	mov	r8, r9
  40345a:	9316      	str	r3, [sp, #88]	; 0x58
  40345c:	9317      	str	r3, [sp, #92]	; 0x5c
  40345e:	f89a 3000 	ldrb.w	r3, [sl]
  403462:	4654      	mov	r4, sl
  403464:	b1e3      	cbz	r3, 4034a0 <_svfprintf_r+0x90>
  403466:	2b25      	cmp	r3, #37	; 0x25
  403468:	d102      	bne.n	403470 <_svfprintf_r+0x60>
  40346a:	e019      	b.n	4034a0 <_svfprintf_r+0x90>
  40346c:	2b25      	cmp	r3, #37	; 0x25
  40346e:	d003      	beq.n	403478 <_svfprintf_r+0x68>
  403470:	f814 3f01 	ldrb.w	r3, [r4, #1]!
  403474:	2b00      	cmp	r3, #0
  403476:	d1f9      	bne.n	40346c <_svfprintf_r+0x5c>
  403478:	eba4 050a 	sub.w	r5, r4, sl
  40347c:	b185      	cbz	r5, 4034a0 <_svfprintf_r+0x90>
  40347e:	9b26      	ldr	r3, [sp, #152]	; 0x98
  403480:	9a27      	ldr	r2, [sp, #156]	; 0x9c
  403482:	f8c8 a000 	str.w	sl, [r8]
  403486:	3301      	adds	r3, #1
  403488:	442a      	add	r2, r5
  40348a:	2b07      	cmp	r3, #7
  40348c:	f8c8 5004 	str.w	r5, [r8, #4]
  403490:	9227      	str	r2, [sp, #156]	; 0x9c
  403492:	9326      	str	r3, [sp, #152]	; 0x98
  403494:	dc7f      	bgt.n	403596 <_svfprintf_r+0x186>
  403496:	f108 0808 	add.w	r8, r8, #8
  40349a:	9b09      	ldr	r3, [sp, #36]	; 0x24
  40349c:	442b      	add	r3, r5
  40349e:	9309      	str	r3, [sp, #36]	; 0x24
  4034a0:	7823      	ldrb	r3, [r4, #0]
  4034a2:	2b00      	cmp	r3, #0
  4034a4:	d07f      	beq.n	4035a6 <_svfprintf_r+0x196>
  4034a6:	2300      	movs	r3, #0
  4034a8:	461a      	mov	r2, r3
  4034aa:	f88d 3077 	strb.w	r3, [sp, #119]	; 0x77
  4034ae:	4619      	mov	r1, r3
  4034b0:	930d      	str	r3, [sp, #52]	; 0x34
  4034b2:	469b      	mov	fp, r3
  4034b4:	f04f 30ff 	mov.w	r0, #4294967295
  4034b8:	7863      	ldrb	r3, [r4, #1]
  4034ba:	900a      	str	r0, [sp, #40]	; 0x28
  4034bc:	f104 0a01 	add.w	sl, r4, #1
  4034c0:	f10a 0a01 	add.w	sl, sl, #1
  4034c4:	f1a3 0020 	sub.w	r0, r3, #32
  4034c8:	2858      	cmp	r0, #88	; 0x58
  4034ca:	f200 83c1 	bhi.w	403c50 <_svfprintf_r+0x840>
  4034ce:	e8df f010 	tbh	[pc, r0, lsl #1]
  4034d2:	0238      	.short	0x0238
  4034d4:	03bf03bf 	.word	0x03bf03bf
  4034d8:	03bf0240 	.word	0x03bf0240
  4034dc:	03bf03bf 	.word	0x03bf03bf
  4034e0:	03bf03bf 	.word	0x03bf03bf
  4034e4:	024503bf 	.word	0x024503bf
  4034e8:	03bf0203 	.word	0x03bf0203
  4034ec:	026b005d 	.word	0x026b005d
  4034f0:	028603bf 	.word	0x028603bf
  4034f4:	039d039d 	.word	0x039d039d
  4034f8:	039d039d 	.word	0x039d039d
  4034fc:	039d039d 	.word	0x039d039d
  403500:	039d039d 	.word	0x039d039d
  403504:	03bf039d 	.word	0x03bf039d
  403508:	03bf03bf 	.word	0x03bf03bf
  40350c:	03bf03bf 	.word	0x03bf03bf
  403510:	03bf03bf 	.word	0x03bf03bf
  403514:	03bf03bf 	.word	0x03bf03bf
  403518:	033703bf 	.word	0x033703bf
  40351c:	03bf0357 	.word	0x03bf0357
  403520:	03bf0357 	.word	0x03bf0357
  403524:	03bf03bf 	.word	0x03bf03bf
  403528:	039803bf 	.word	0x039803bf
  40352c:	03bf03bf 	.word	0x03bf03bf
  403530:	03bf03ad 	.word	0x03bf03ad
  403534:	03bf03bf 	.word	0x03bf03bf
  403538:	03bf03bf 	.word	0x03bf03bf
  40353c:	03bf0259 	.word	0x03bf0259
  403540:	031e03bf 	.word	0x031e03bf
  403544:	03bf03bf 	.word	0x03bf03bf
  403548:	03bf03bf 	.word	0x03bf03bf
  40354c:	03bf03bf 	.word	0x03bf03bf
  403550:	03bf03bf 	.word	0x03bf03bf
  403554:	03bf03bf 	.word	0x03bf03bf
  403558:	02db02c6 	.word	0x02db02c6
  40355c:	03570357 	.word	0x03570357
  403560:	028b0357 	.word	0x028b0357
  403564:	03bf02db 	.word	0x03bf02db
  403568:	029003bf 	.word	0x029003bf
  40356c:	029d03bf 	.word	0x029d03bf
  403570:	02b401cc 	.word	0x02b401cc
  403574:	03bf0208 	.word	0x03bf0208
  403578:	03bf01e1 	.word	0x03bf01e1
  40357c:	03bf007e 	.word	0x03bf007e
  403580:	020d03bf 	.word	0x020d03bf
  403584:	980d      	ldr	r0, [sp, #52]	; 0x34
  403586:	930f      	str	r3, [sp, #60]	; 0x3c
  403588:	4240      	negs	r0, r0
  40358a:	900d      	str	r0, [sp, #52]	; 0x34
  40358c:	f04b 0b04 	orr.w	fp, fp, #4
  403590:	f89a 3000 	ldrb.w	r3, [sl]
  403594:	e794      	b.n	4034c0 <_svfprintf_r+0xb0>
  403596:	aa25      	add	r2, sp, #148	; 0x94
  403598:	990b      	ldr	r1, [sp, #44]	; 0x2c
  40359a:	980c      	ldr	r0, [sp, #48]	; 0x30
  40359c:	f003 f89e 	bl	4066dc <__ssprint_r>
  4035a0:	b940      	cbnz	r0, 4035b4 <_svfprintf_r+0x1a4>
  4035a2:	46c8      	mov	r8, r9
  4035a4:	e779      	b.n	40349a <_svfprintf_r+0x8a>
  4035a6:	9b27      	ldr	r3, [sp, #156]	; 0x9c
  4035a8:	b123      	cbz	r3, 4035b4 <_svfprintf_r+0x1a4>
  4035aa:	980c      	ldr	r0, [sp, #48]	; 0x30
  4035ac:	990b      	ldr	r1, [sp, #44]	; 0x2c
  4035ae:	aa25      	add	r2, sp, #148	; 0x94
  4035b0:	f003 f894 	bl	4066dc <__ssprint_r>
  4035b4:	9b0b      	ldr	r3, [sp, #44]	; 0x2c
  4035b6:	899b      	ldrh	r3, [r3, #12]
  4035b8:	f013 0f40 	tst.w	r3, #64	; 0x40
  4035bc:	9b09      	ldr	r3, [sp, #36]	; 0x24
  4035be:	bf18      	it	ne
  4035c0:	f04f 33ff 	movne.w	r3, #4294967295
  4035c4:	9309      	str	r3, [sp, #36]	; 0x24
  4035c6:	9809      	ldr	r0, [sp, #36]	; 0x24
  4035c8:	b043      	add	sp, #268	; 0x10c
  4035ca:	e8bd 8ff0 	ldmia.w	sp!, {r4, r5, r6, r7, r8, r9, sl, fp, pc}
  4035ce:	f01b 0f20 	tst.w	fp, #32
  4035d2:	9311      	str	r3, [sp, #68]	; 0x44
  4035d4:	f040 81dd 	bne.w	403992 <_svfprintf_r+0x582>
  4035d8:	9a0f      	ldr	r2, [sp, #60]	; 0x3c
  4035da:	f01b 0f10 	tst.w	fp, #16
  4035de:	4613      	mov	r3, r2
  4035e0:	f040 856e 	bne.w	4040c0 <_svfprintf_r+0xcb0>
  4035e4:	f01b 0f40 	tst.w	fp, #64	; 0x40
  4035e8:	f000 856a 	beq.w	4040c0 <_svfprintf_r+0xcb0>
  4035ec:	8814      	ldrh	r4, [r2, #0]
  4035ee:	3204      	adds	r2, #4
  4035f0:	2500      	movs	r5, #0
  4035f2:	2301      	movs	r3, #1
  4035f4:	920f      	str	r2, [sp, #60]	; 0x3c
  4035f6:	2700      	movs	r7, #0
  4035f8:	f88d 7077 	strb.w	r7, [sp, #119]	; 0x77
  4035fc:	990a      	ldr	r1, [sp, #40]	; 0x28
  4035fe:	1c4a      	adds	r2, r1, #1
  403600:	f000 8265 	beq.w	403ace <_svfprintf_r+0x6be>
  403604:	f02b 0280 	bic.w	r2, fp, #128	; 0x80
  403608:	9207      	str	r2, [sp, #28]
  40360a:	ea54 0205 	orrs.w	r2, r4, r5
  40360e:	f040 8264 	bne.w	403ada <_svfprintf_r+0x6ca>
  403612:	2900      	cmp	r1, #0
  403614:	f040 843c 	bne.w	403e90 <_svfprintf_r+0xa80>
  403618:	2b00      	cmp	r3, #0
  40361a:	f040 84d7 	bne.w	403fcc <_svfprintf_r+0xbbc>
  40361e:	f01b 0301 	ands.w	r3, fp, #1
  403622:	930e      	str	r3, [sp, #56]	; 0x38
  403624:	f000 8604 	beq.w	404230 <_svfprintf_r+0xe20>
  403628:	ae42      	add	r6, sp, #264	; 0x108
  40362a:	2330      	movs	r3, #48	; 0x30
  40362c:	f806 3d41 	strb.w	r3, [r6, #-65]!
  403630:	9b0a      	ldr	r3, [sp, #40]	; 0x28
  403632:	9a0e      	ldr	r2, [sp, #56]	; 0x38
  403634:	4293      	cmp	r3, r2
  403636:	bfb8      	it	lt
  403638:	4613      	movlt	r3, r2
  40363a:	9308      	str	r3, [sp, #32]
  40363c:	2300      	movs	r3, #0
  40363e:	9312      	str	r3, [sp, #72]	; 0x48
  403640:	b117      	cbz	r7, 403648 <_svfprintf_r+0x238>
  403642:	9b08      	ldr	r3, [sp, #32]
  403644:	3301      	adds	r3, #1
  403646:	9308      	str	r3, [sp, #32]
  403648:	9b07      	ldr	r3, [sp, #28]
  40364a:	f013 0302 	ands.w	r3, r3, #2
  40364e:	9310      	str	r3, [sp, #64]	; 0x40
  403650:	d002      	beq.n	403658 <_svfprintf_r+0x248>
  403652:	9b08      	ldr	r3, [sp, #32]
  403654:	3302      	adds	r3, #2
  403656:	9308      	str	r3, [sp, #32]
  403658:	9b07      	ldr	r3, [sp, #28]
  40365a:	f013 0584 	ands.w	r5, r3, #132	; 0x84
  40365e:	f040 830e 	bne.w	403c7e <_svfprintf_r+0x86e>
  403662:	9b0d      	ldr	r3, [sp, #52]	; 0x34
  403664:	9a08      	ldr	r2, [sp, #32]
  403666:	eba3 0b02 	sub.w	fp, r3, r2
  40366a:	f1bb 0f00 	cmp.w	fp, #0
  40366e:	f340 8306 	ble.w	403c7e <_svfprintf_r+0x86e>
  403672:	f1bb 0f10 	cmp.w	fp, #16
  403676:	9c27      	ldr	r4, [sp, #156]	; 0x9c
  403678:	9a26      	ldr	r2, [sp, #152]	; 0x98
  40367a:	dd29      	ble.n	4036d0 <_svfprintf_r+0x2c0>
  40367c:	4643      	mov	r3, r8
  40367e:	4621      	mov	r1, r4
  403680:	46a8      	mov	r8, r5
  403682:	2710      	movs	r7, #16
  403684:	9c0c      	ldr	r4, [sp, #48]	; 0x30
  403686:	9d0b      	ldr	r5, [sp, #44]	; 0x2c
  403688:	e006      	b.n	403698 <_svfprintf_r+0x288>
  40368a:	f1ab 0b10 	sub.w	fp, fp, #16
  40368e:	f1bb 0f10 	cmp.w	fp, #16
  403692:	f103 0308 	add.w	r3, r3, #8
  403696:	dd18      	ble.n	4036ca <_svfprintf_r+0x2ba>
  403698:	3201      	adds	r2, #1
  40369a:	48b7      	ldr	r0, [pc, #732]	; (403978 <_svfprintf_r+0x568>)
  40369c:	9226      	str	r2, [sp, #152]	; 0x98
  40369e:	3110      	adds	r1, #16
  4036a0:	2a07      	cmp	r2, #7
  4036a2:	9127      	str	r1, [sp, #156]	; 0x9c
  4036a4:	e883 0081 	stmia.w	r3, {r0, r7}
  4036a8:	ddef      	ble.n	40368a <_svfprintf_r+0x27a>
  4036aa:	aa25      	add	r2, sp, #148	; 0x94
  4036ac:	4629      	mov	r1, r5
  4036ae:	4620      	mov	r0, r4
  4036b0:	f003 f814 	bl	4066dc <__ssprint_r>
  4036b4:	2800      	cmp	r0, #0
  4036b6:	f47f af7d 	bne.w	4035b4 <_svfprintf_r+0x1a4>
  4036ba:	f1ab 0b10 	sub.w	fp, fp, #16
  4036be:	f1bb 0f10 	cmp.w	fp, #16
  4036c2:	9927      	ldr	r1, [sp, #156]	; 0x9c
  4036c4:	9a26      	ldr	r2, [sp, #152]	; 0x98
  4036c6:	464b      	mov	r3, r9
  4036c8:	dce6      	bgt.n	403698 <_svfprintf_r+0x288>
  4036ca:	4645      	mov	r5, r8
  4036cc:	460c      	mov	r4, r1
  4036ce:	4698      	mov	r8, r3
  4036d0:	3201      	adds	r2, #1
  4036d2:	4ba9      	ldr	r3, [pc, #676]	; (403978 <_svfprintf_r+0x568>)
  4036d4:	9226      	str	r2, [sp, #152]	; 0x98
  4036d6:	445c      	add	r4, fp
  4036d8:	2a07      	cmp	r2, #7
  4036da:	9427      	str	r4, [sp, #156]	; 0x9c
  4036dc:	e888 0808 	stmia.w	r8, {r3, fp}
  4036e0:	f300 8498 	bgt.w	404014 <_svfprintf_r+0xc04>
  4036e4:	f89d 7077 	ldrb.w	r7, [sp, #119]	; 0x77
  4036e8:	f108 0808 	add.w	r8, r8, #8
  4036ec:	b177      	cbz	r7, 40370c <_svfprintf_r+0x2fc>
  4036ee:	9b26      	ldr	r3, [sp, #152]	; 0x98
  4036f0:	3301      	adds	r3, #1
  4036f2:	3401      	adds	r4, #1
  4036f4:	f10d 0177 	add.w	r1, sp, #119	; 0x77
  4036f8:	2201      	movs	r2, #1
  4036fa:	2b07      	cmp	r3, #7
  4036fc:	9427      	str	r4, [sp, #156]	; 0x9c
  4036fe:	9326      	str	r3, [sp, #152]	; 0x98
  403700:	e888 0006 	stmia.w	r8, {r1, r2}
  403704:	f300 83db 	bgt.w	403ebe <_svfprintf_r+0xaae>
  403708:	f108 0808 	add.w	r8, r8, #8
  40370c:	9b10      	ldr	r3, [sp, #64]	; 0x40
  40370e:	b16b      	cbz	r3, 40372c <_svfprintf_r+0x31c>
  403710:	9b26      	ldr	r3, [sp, #152]	; 0x98
  403712:	3301      	adds	r3, #1
  403714:	3402      	adds	r4, #2
  403716:	a91e      	add	r1, sp, #120	; 0x78
  403718:	2202      	movs	r2, #2
  40371a:	2b07      	cmp	r3, #7
  40371c:	9427      	str	r4, [sp, #156]	; 0x9c
  40371e:	9326      	str	r3, [sp, #152]	; 0x98
  403720:	e888 0006 	stmia.w	r8, {r1, r2}
  403724:	f300 83d6 	bgt.w	403ed4 <_svfprintf_r+0xac4>
  403728:	f108 0808 	add.w	r8, r8, #8
  40372c:	2d80      	cmp	r5, #128	; 0x80
  40372e:	f000 8315 	beq.w	403d5c <_svfprintf_r+0x94c>
  403732:	9b0a      	ldr	r3, [sp, #40]	; 0x28
  403734:	9a0e      	ldr	r2, [sp, #56]	; 0x38
  403736:	1a9f      	subs	r7, r3, r2
  403738:	2f00      	cmp	r7, #0
  40373a:	dd36      	ble.n	4037aa <_svfprintf_r+0x39a>
  40373c:	2f10      	cmp	r7, #16
  40373e:	9b26      	ldr	r3, [sp, #152]	; 0x98
  403740:	4d8e      	ldr	r5, [pc, #568]	; (40397c <_svfprintf_r+0x56c>)
  403742:	dd27      	ble.n	403794 <_svfprintf_r+0x384>
  403744:	4642      	mov	r2, r8
  403746:	4621      	mov	r1, r4
  403748:	46b0      	mov	r8, r6
  40374a:	f04f 0b10 	mov.w	fp, #16
  40374e:	462e      	mov	r6, r5
  403750:	9c0c      	ldr	r4, [sp, #48]	; 0x30
  403752:	9d0b      	ldr	r5, [sp, #44]	; 0x2c
  403754:	e004      	b.n	403760 <_svfprintf_r+0x350>
  403756:	3f10      	subs	r7, #16
  403758:	2f10      	cmp	r7, #16
  40375a:	f102 0208 	add.w	r2, r2, #8
  40375e:	dd15      	ble.n	40378c <_svfprintf_r+0x37c>
  403760:	3301      	adds	r3, #1
  403762:	3110      	adds	r1, #16
  403764:	2b07      	cmp	r3, #7
  403766:	9127      	str	r1, [sp, #156]	; 0x9c
  403768:	9326      	str	r3, [sp, #152]	; 0x98
  40376a:	e882 0840 	stmia.w	r2, {r6, fp}
  40376e:	ddf2      	ble.n	403756 <_svfprintf_r+0x346>
  403770:	aa25      	add	r2, sp, #148	; 0x94
  403772:	4629      	mov	r1, r5
  403774:	4620      	mov	r0, r4
  403776:	f002 ffb1 	bl	4066dc <__ssprint_r>
  40377a:	2800      	cmp	r0, #0
  40377c:	f47f af1a 	bne.w	4035b4 <_svfprintf_r+0x1a4>
  403780:	3f10      	subs	r7, #16
  403782:	2f10      	cmp	r7, #16
  403784:	9927      	ldr	r1, [sp, #156]	; 0x9c
  403786:	9b26      	ldr	r3, [sp, #152]	; 0x98
  403788:	464a      	mov	r2, r9
  40378a:	dce9      	bgt.n	403760 <_svfprintf_r+0x350>
  40378c:	4635      	mov	r5, r6
  40378e:	460c      	mov	r4, r1
  403790:	4646      	mov	r6, r8
  403792:	4690      	mov	r8, r2
  403794:	3301      	adds	r3, #1
  403796:	443c      	add	r4, r7
  403798:	2b07      	cmp	r3, #7
  40379a:	9427      	str	r4, [sp, #156]	; 0x9c
  40379c:	9326      	str	r3, [sp, #152]	; 0x98
  40379e:	e888 00a0 	stmia.w	r8, {r5, r7}
  4037a2:	f300 8381 	bgt.w	403ea8 <_svfprintf_r+0xa98>
  4037a6:	f108 0808 	add.w	r8, r8, #8
  4037aa:	9b07      	ldr	r3, [sp, #28]
  4037ac:	05df      	lsls	r7, r3, #23
  4037ae:	f100 8268 	bmi.w	403c82 <_svfprintf_r+0x872>
  4037b2:	9b26      	ldr	r3, [sp, #152]	; 0x98
  4037b4:	990e      	ldr	r1, [sp, #56]	; 0x38
  4037b6:	f8c8 6000 	str.w	r6, [r8]
  4037ba:	3301      	adds	r3, #1
  4037bc:	440c      	add	r4, r1
  4037be:	2b07      	cmp	r3, #7
  4037c0:	9427      	str	r4, [sp, #156]	; 0x9c
  4037c2:	f8c8 1004 	str.w	r1, [r8, #4]
  4037c6:	9326      	str	r3, [sp, #152]	; 0x98
  4037c8:	f300 834d 	bgt.w	403e66 <_svfprintf_r+0xa56>
  4037cc:	f108 0808 	add.w	r8, r8, #8
  4037d0:	9b07      	ldr	r3, [sp, #28]
  4037d2:	075b      	lsls	r3, r3, #29
  4037d4:	d53a      	bpl.n	40384c <_svfprintf_r+0x43c>
  4037d6:	9b0d      	ldr	r3, [sp, #52]	; 0x34
  4037d8:	9a08      	ldr	r2, [sp, #32]
  4037da:	1a9d      	subs	r5, r3, r2
  4037dc:	2d00      	cmp	r5, #0
  4037de:	dd35      	ble.n	40384c <_svfprintf_r+0x43c>
  4037e0:	2d10      	cmp	r5, #16
  4037e2:	9b26      	ldr	r3, [sp, #152]	; 0x98
  4037e4:	dd20      	ble.n	403828 <_svfprintf_r+0x418>
  4037e6:	2610      	movs	r6, #16
  4037e8:	9f0c      	ldr	r7, [sp, #48]	; 0x30
  4037ea:	f8dd b02c 	ldr.w	fp, [sp, #44]	; 0x2c
  4037ee:	e004      	b.n	4037fa <_svfprintf_r+0x3ea>
  4037f0:	3d10      	subs	r5, #16
  4037f2:	2d10      	cmp	r5, #16
  4037f4:	f108 0808 	add.w	r8, r8, #8
  4037f8:	dd16      	ble.n	403828 <_svfprintf_r+0x418>
  4037fa:	3301      	adds	r3, #1
  4037fc:	4a5e      	ldr	r2, [pc, #376]	; (403978 <_svfprintf_r+0x568>)
  4037fe:	9326      	str	r3, [sp, #152]	; 0x98
  403800:	3410      	adds	r4, #16
  403802:	2b07      	cmp	r3, #7
  403804:	9427      	str	r4, [sp, #156]	; 0x9c
  403806:	e888 0044 	stmia.w	r8, {r2, r6}
  40380a:	ddf1      	ble.n	4037f0 <_svfprintf_r+0x3e0>
  40380c:	aa25      	add	r2, sp, #148	; 0x94
  40380e:	4659      	mov	r1, fp
  403810:	4638      	mov	r0, r7
  403812:	f002 ff63 	bl	4066dc <__ssprint_r>
  403816:	2800      	cmp	r0, #0
  403818:	f47f aecc 	bne.w	4035b4 <_svfprintf_r+0x1a4>
  40381c:	3d10      	subs	r5, #16
  40381e:	2d10      	cmp	r5, #16
  403820:	9c27      	ldr	r4, [sp, #156]	; 0x9c
  403822:	9b26      	ldr	r3, [sp, #152]	; 0x98
  403824:	46c8      	mov	r8, r9
  403826:	dce8      	bgt.n	4037fa <_svfprintf_r+0x3ea>
  403828:	3301      	adds	r3, #1
  40382a:	4a53      	ldr	r2, [pc, #332]	; (403978 <_svfprintf_r+0x568>)
  40382c:	9326      	str	r3, [sp, #152]	; 0x98
  40382e:	442c      	add	r4, r5
  403830:	2b07      	cmp	r3, #7
  403832:	9427      	str	r4, [sp, #156]	; 0x9c
  403834:	e888 0024 	stmia.w	r8, {r2, r5}
  403838:	dd08      	ble.n	40384c <_svfprintf_r+0x43c>
  40383a:	aa25      	add	r2, sp, #148	; 0x94
  40383c:	990b      	ldr	r1, [sp, #44]	; 0x2c
  40383e:	980c      	ldr	r0, [sp, #48]	; 0x30
  403840:	f002 ff4c 	bl	4066dc <__ssprint_r>
  403844:	2800      	cmp	r0, #0
  403846:	f47f aeb5 	bne.w	4035b4 <_svfprintf_r+0x1a4>
  40384a:	9c27      	ldr	r4, [sp, #156]	; 0x9c
  40384c:	9b09      	ldr	r3, [sp, #36]	; 0x24
  40384e:	9a0d      	ldr	r2, [sp, #52]	; 0x34
  403850:	9908      	ldr	r1, [sp, #32]
  403852:	428a      	cmp	r2, r1
  403854:	bfac      	ite	ge
  403856:	189b      	addge	r3, r3, r2
  403858:	185b      	addlt	r3, r3, r1
  40385a:	9309      	str	r3, [sp, #36]	; 0x24
  40385c:	2c00      	cmp	r4, #0
  40385e:	f040 830d 	bne.w	403e7c <_svfprintf_r+0xa6c>
  403862:	2300      	movs	r3, #0
  403864:	9326      	str	r3, [sp, #152]	; 0x98
  403866:	46c8      	mov	r8, r9
  403868:	e5f9      	b.n	40345e <_svfprintf_r+0x4e>
  40386a:	9311      	str	r3, [sp, #68]	; 0x44
  40386c:	f01b 0320 	ands.w	r3, fp, #32
  403870:	f040 81e3 	bne.w	403c3a <_svfprintf_r+0x82a>
  403874:	f01b 0210 	ands.w	r2, fp, #16
  403878:	f040 842e 	bne.w	4040d8 <_svfprintf_r+0xcc8>
  40387c:	f01b 0340 	ands.w	r3, fp, #64	; 0x40
  403880:	f000 842a 	beq.w	4040d8 <_svfprintf_r+0xcc8>
  403884:	990f      	ldr	r1, [sp, #60]	; 0x3c
  403886:	4613      	mov	r3, r2
  403888:	460a      	mov	r2, r1
  40388a:	3204      	adds	r2, #4
  40388c:	880c      	ldrh	r4, [r1, #0]
  40388e:	920f      	str	r2, [sp, #60]	; 0x3c
  403890:	2500      	movs	r5, #0
  403892:	e6b0      	b.n	4035f6 <_svfprintf_r+0x1e6>
  403894:	9a0f      	ldr	r2, [sp, #60]	; 0x3c
  403896:	9311      	str	r3, [sp, #68]	; 0x44
  403898:	6816      	ldr	r6, [r2, #0]
  40389a:	2400      	movs	r4, #0
  40389c:	f88d 4077 	strb.w	r4, [sp, #119]	; 0x77
  4038a0:	1d15      	adds	r5, r2, #4
  4038a2:	2e00      	cmp	r6, #0
  4038a4:	f000 86a7 	beq.w	4045f6 <_svfprintf_r+0x11e6>
  4038a8:	9a0a      	ldr	r2, [sp, #40]	; 0x28
  4038aa:	1c53      	adds	r3, r2, #1
  4038ac:	f000 8609 	beq.w	4044c2 <_svfprintf_r+0x10b2>
  4038b0:	4621      	mov	r1, r4
  4038b2:	4630      	mov	r0, r6
  4038b4:	f002 fa8c 	bl	405dd0 <memchr>
  4038b8:	2800      	cmp	r0, #0
  4038ba:	f000 86e1 	beq.w	404680 <_svfprintf_r+0x1270>
  4038be:	1b83      	subs	r3, r0, r6
  4038c0:	930e      	str	r3, [sp, #56]	; 0x38
  4038c2:	940a      	str	r4, [sp, #40]	; 0x28
  4038c4:	950f      	str	r5, [sp, #60]	; 0x3c
  4038c6:	f8cd b01c 	str.w	fp, [sp, #28]
  4038ca:	ea23 73e3 	bic.w	r3, r3, r3, asr #31
  4038ce:	9308      	str	r3, [sp, #32]
  4038d0:	9412      	str	r4, [sp, #72]	; 0x48
  4038d2:	f89d 7077 	ldrb.w	r7, [sp, #119]	; 0x77
  4038d6:	e6b3      	b.n	403640 <_svfprintf_r+0x230>
  4038d8:	f89a 3000 	ldrb.w	r3, [sl]
  4038dc:	2201      	movs	r2, #1
  4038de:	212b      	movs	r1, #43	; 0x2b
  4038e0:	e5ee      	b.n	4034c0 <_svfprintf_r+0xb0>
  4038e2:	f04b 0b20 	orr.w	fp, fp, #32
  4038e6:	f89a 3000 	ldrb.w	r3, [sl]
  4038ea:	e5e9      	b.n	4034c0 <_svfprintf_r+0xb0>
  4038ec:	9311      	str	r3, [sp, #68]	; 0x44
  4038ee:	2a00      	cmp	r2, #0
  4038f0:	f040 8795 	bne.w	40481e <_svfprintf_r+0x140e>
  4038f4:	4b22      	ldr	r3, [pc, #136]	; (403980 <_svfprintf_r+0x570>)
  4038f6:	9318      	str	r3, [sp, #96]	; 0x60
  4038f8:	f01b 0f20 	tst.w	fp, #32
  4038fc:	f040 8111 	bne.w	403b22 <_svfprintf_r+0x712>
  403900:	9a0f      	ldr	r2, [sp, #60]	; 0x3c
  403902:	f01b 0f10 	tst.w	fp, #16
  403906:	4613      	mov	r3, r2
  403908:	f040 83e1 	bne.w	4040ce <_svfprintf_r+0xcbe>
  40390c:	f01b 0f40 	tst.w	fp, #64	; 0x40
  403910:	f000 83dd 	beq.w	4040ce <_svfprintf_r+0xcbe>
  403914:	3304      	adds	r3, #4
  403916:	8814      	ldrh	r4, [r2, #0]
  403918:	930f      	str	r3, [sp, #60]	; 0x3c
  40391a:	2500      	movs	r5, #0
  40391c:	f01b 0f01 	tst.w	fp, #1
  403920:	f000 810c 	beq.w	403b3c <_svfprintf_r+0x72c>
  403924:	ea54 0305 	orrs.w	r3, r4, r5
  403928:	f000 8108 	beq.w	403b3c <_svfprintf_r+0x72c>
  40392c:	2330      	movs	r3, #48	; 0x30
  40392e:	f89d 2044 	ldrb.w	r2, [sp, #68]	; 0x44
  403932:	f88d 3078 	strb.w	r3, [sp, #120]	; 0x78
  403936:	f88d 2079 	strb.w	r2, [sp, #121]	; 0x79
  40393a:	f04b 0b02 	orr.w	fp, fp, #2
  40393e:	2302      	movs	r3, #2
  403940:	e659      	b.n	4035f6 <_svfprintf_r+0x1e6>
  403942:	f89a 3000 	ldrb.w	r3, [sl]
  403946:	2900      	cmp	r1, #0
  403948:	f47f adba 	bne.w	4034c0 <_svfprintf_r+0xb0>
  40394c:	2201      	movs	r2, #1
  40394e:	2120      	movs	r1, #32
  403950:	e5b6      	b.n	4034c0 <_svfprintf_r+0xb0>
  403952:	f04b 0b01 	orr.w	fp, fp, #1
  403956:	f89a 3000 	ldrb.w	r3, [sl]
  40395a:	e5b1      	b.n	4034c0 <_svfprintf_r+0xb0>
  40395c:	9c0f      	ldr	r4, [sp, #60]	; 0x3c
  40395e:	6823      	ldr	r3, [r4, #0]
  403960:	930d      	str	r3, [sp, #52]	; 0x34
  403962:	4618      	mov	r0, r3
  403964:	2800      	cmp	r0, #0
  403966:	4623      	mov	r3, r4
  403968:	f103 0304 	add.w	r3, r3, #4
  40396c:	f6ff ae0a 	blt.w	403584 <_svfprintf_r+0x174>
  403970:	930f      	str	r3, [sp, #60]	; 0x3c
  403972:	f89a 3000 	ldrb.w	r3, [sl]
  403976:	e5a3      	b.n	4034c0 <_svfprintf_r+0xb0>
  403978:	00408380 	.word	0x00408380
  40397c:	00408390 	.word	0x00408390
  403980:	00408360 	.word	0x00408360
  403984:	f04b 0b10 	orr.w	fp, fp, #16
  403988:	f01b 0f20 	tst.w	fp, #32
  40398c:	9311      	str	r3, [sp, #68]	; 0x44
  40398e:	f43f ae23 	beq.w	4035d8 <_svfprintf_r+0x1c8>
  403992:	9d0f      	ldr	r5, [sp, #60]	; 0x3c
  403994:	3507      	adds	r5, #7
  403996:	f025 0307 	bic.w	r3, r5, #7
  40399a:	f103 0208 	add.w	r2, r3, #8
  40399e:	e9d3 4500 	ldrd	r4, r5, [r3]
  4039a2:	920f      	str	r2, [sp, #60]	; 0x3c
  4039a4:	2301      	movs	r3, #1
  4039a6:	e626      	b.n	4035f6 <_svfprintf_r+0x1e6>
  4039a8:	f89a 3000 	ldrb.w	r3, [sl]
  4039ac:	2b2a      	cmp	r3, #42	; 0x2a
  4039ae:	f10a 0401 	add.w	r4, sl, #1
  4039b2:	f000 8727 	beq.w	404804 <_svfprintf_r+0x13f4>
  4039b6:	f1a3 0030 	sub.w	r0, r3, #48	; 0x30
  4039ba:	2809      	cmp	r0, #9
  4039bc:	46a2      	mov	sl, r4
  4039be:	f200 86ad 	bhi.w	40471c <_svfprintf_r+0x130c>
  4039c2:	2300      	movs	r3, #0
  4039c4:	461c      	mov	r4, r3
  4039c6:	f81a 3b01 	ldrb.w	r3, [sl], #1
  4039ca:	eb04 0484 	add.w	r4, r4, r4, lsl #2
  4039ce:	eb00 0444 	add.w	r4, r0, r4, lsl #1
  4039d2:	f1a3 0030 	sub.w	r0, r3, #48	; 0x30
  4039d6:	2809      	cmp	r0, #9
  4039d8:	d9f5      	bls.n	4039c6 <_svfprintf_r+0x5b6>
  4039da:	940a      	str	r4, [sp, #40]	; 0x28
  4039dc:	e572      	b.n	4034c4 <_svfprintf_r+0xb4>
  4039de:	f04b 0b80 	orr.w	fp, fp, #128	; 0x80
  4039e2:	f89a 3000 	ldrb.w	r3, [sl]
  4039e6:	e56b      	b.n	4034c0 <_svfprintf_r+0xb0>
  4039e8:	f04b 0b40 	orr.w	fp, fp, #64	; 0x40
  4039ec:	f89a 3000 	ldrb.w	r3, [sl]
  4039f0:	e566      	b.n	4034c0 <_svfprintf_r+0xb0>
  4039f2:	f89a 3000 	ldrb.w	r3, [sl]
  4039f6:	2b6c      	cmp	r3, #108	; 0x6c
  4039f8:	bf03      	ittte	eq
  4039fa:	f89a 3001 	ldrbeq.w	r3, [sl, #1]
  4039fe:	f04b 0b20 	orreq.w	fp, fp, #32
  403a02:	f10a 0a01 	addeq.w	sl, sl, #1
  403a06:	f04b 0b10 	orrne.w	fp, fp, #16
  403a0a:	e559      	b.n	4034c0 <_svfprintf_r+0xb0>
  403a0c:	2a00      	cmp	r2, #0
  403a0e:	f040 8711 	bne.w	404834 <_svfprintf_r+0x1424>
  403a12:	f01b 0f20 	tst.w	fp, #32
  403a16:	f040 84f9 	bne.w	40440c <_svfprintf_r+0xffc>
  403a1a:	f01b 0f10 	tst.w	fp, #16
  403a1e:	f040 84ac 	bne.w	40437a <_svfprintf_r+0xf6a>
  403a22:	f01b 0f40 	tst.w	fp, #64	; 0x40
  403a26:	f000 84a8 	beq.w	40437a <_svfprintf_r+0xf6a>
  403a2a:	9a0f      	ldr	r2, [sp, #60]	; 0x3c
  403a2c:	6813      	ldr	r3, [r2, #0]
  403a2e:	3204      	adds	r2, #4
  403a30:	920f      	str	r2, [sp, #60]	; 0x3c
  403a32:	f8bd 2024 	ldrh.w	r2, [sp, #36]	; 0x24
  403a36:	801a      	strh	r2, [r3, #0]
  403a38:	e511      	b.n	40345e <_svfprintf_r+0x4e>
  403a3a:	990f      	ldr	r1, [sp, #60]	; 0x3c
  403a3c:	4bb3      	ldr	r3, [pc, #716]	; (403d0c <_svfprintf_r+0x8fc>)
  403a3e:	680c      	ldr	r4, [r1, #0]
  403a40:	9318      	str	r3, [sp, #96]	; 0x60
  403a42:	2230      	movs	r2, #48	; 0x30
  403a44:	2378      	movs	r3, #120	; 0x78
  403a46:	3104      	adds	r1, #4
  403a48:	f88d 3079 	strb.w	r3, [sp, #121]	; 0x79
  403a4c:	9311      	str	r3, [sp, #68]	; 0x44
  403a4e:	f04b 0b02 	orr.w	fp, fp, #2
  403a52:	910f      	str	r1, [sp, #60]	; 0x3c
  403a54:	2500      	movs	r5, #0
  403a56:	f88d 2078 	strb.w	r2, [sp, #120]	; 0x78
  403a5a:	2302      	movs	r3, #2
  403a5c:	e5cb      	b.n	4035f6 <_svfprintf_r+0x1e6>
  403a5e:	990f      	ldr	r1, [sp, #60]	; 0x3c
  403a60:	9311      	str	r3, [sp, #68]	; 0x44
  403a62:	680a      	ldr	r2, [r1, #0]
  403a64:	f88d 20a0 	strb.w	r2, [sp, #160]	; 0xa0
  403a68:	2300      	movs	r3, #0
  403a6a:	460a      	mov	r2, r1
  403a6c:	461f      	mov	r7, r3
  403a6e:	f88d 3077 	strb.w	r3, [sp, #119]	; 0x77
  403a72:	3204      	adds	r2, #4
  403a74:	2301      	movs	r3, #1
  403a76:	9308      	str	r3, [sp, #32]
  403a78:	f8cd b01c 	str.w	fp, [sp, #28]
  403a7c:	970a      	str	r7, [sp, #40]	; 0x28
  403a7e:	9712      	str	r7, [sp, #72]	; 0x48
  403a80:	920f      	str	r2, [sp, #60]	; 0x3c
  403a82:	930e      	str	r3, [sp, #56]	; 0x38
  403a84:	ae28      	add	r6, sp, #160	; 0xa0
  403a86:	e5df      	b.n	403648 <_svfprintf_r+0x238>
  403a88:	9311      	str	r3, [sp, #68]	; 0x44
  403a8a:	2a00      	cmp	r2, #0
  403a8c:	f040 86ea 	bne.w	404864 <_svfprintf_r+0x1454>
  403a90:	f01b 0f20 	tst.w	fp, #32
  403a94:	d15d      	bne.n	403b52 <_svfprintf_r+0x742>
  403a96:	f01b 0f10 	tst.w	fp, #16
  403a9a:	f040 8308 	bne.w	4040ae <_svfprintf_r+0xc9e>
  403a9e:	f01b 0f40 	tst.w	fp, #64	; 0x40
  403aa2:	f000 8304 	beq.w	4040ae <_svfprintf_r+0xc9e>
  403aa6:	990f      	ldr	r1, [sp, #60]	; 0x3c
  403aa8:	f9b1 4000 	ldrsh.w	r4, [r1]
  403aac:	3104      	adds	r1, #4
  403aae:	17e5      	asrs	r5, r4, #31
  403ab0:	4622      	mov	r2, r4
  403ab2:	462b      	mov	r3, r5
  403ab4:	910f      	str	r1, [sp, #60]	; 0x3c
  403ab6:	2a00      	cmp	r2, #0
  403ab8:	f173 0300 	sbcs.w	r3, r3, #0
  403abc:	db58      	blt.n	403b70 <_svfprintf_r+0x760>
  403abe:	990a      	ldr	r1, [sp, #40]	; 0x28
  403ac0:	f89d 7077 	ldrb.w	r7, [sp, #119]	; 0x77
  403ac4:	1c4a      	adds	r2, r1, #1
  403ac6:	f04f 0301 	mov.w	r3, #1
  403aca:	f47f ad9b 	bne.w	403604 <_svfprintf_r+0x1f4>
  403ace:	ea54 0205 	orrs.w	r2, r4, r5
  403ad2:	f000 81df 	beq.w	403e94 <_svfprintf_r+0xa84>
  403ad6:	f8cd b01c 	str.w	fp, [sp, #28]
  403ada:	2b01      	cmp	r3, #1
  403adc:	f000 827b 	beq.w	403fd6 <_svfprintf_r+0xbc6>
  403ae0:	2b02      	cmp	r3, #2
  403ae2:	f040 8206 	bne.w	403ef2 <_svfprintf_r+0xae2>
  403ae6:	9818      	ldr	r0, [sp, #96]	; 0x60
  403ae8:	464e      	mov	r6, r9
  403aea:	0923      	lsrs	r3, r4, #4
  403aec:	f004 010f 	and.w	r1, r4, #15
  403af0:	ea43 7305 	orr.w	r3, r3, r5, lsl #28
  403af4:	092a      	lsrs	r2, r5, #4
  403af6:	461c      	mov	r4, r3
  403af8:	4615      	mov	r5, r2
  403afa:	5c43      	ldrb	r3, [r0, r1]
  403afc:	f806 3d01 	strb.w	r3, [r6, #-1]!
  403b00:	ea54 0305 	orrs.w	r3, r4, r5
  403b04:	d1f1      	bne.n	403aea <_svfprintf_r+0x6da>
  403b06:	eba9 0306 	sub.w	r3, r9, r6
  403b0a:	930e      	str	r3, [sp, #56]	; 0x38
  403b0c:	e590      	b.n	403630 <_svfprintf_r+0x220>
  403b0e:	9311      	str	r3, [sp, #68]	; 0x44
  403b10:	2a00      	cmp	r2, #0
  403b12:	f040 86a3 	bne.w	40485c <_svfprintf_r+0x144c>
  403b16:	4b7e      	ldr	r3, [pc, #504]	; (403d10 <_svfprintf_r+0x900>)
  403b18:	9318      	str	r3, [sp, #96]	; 0x60
  403b1a:	f01b 0f20 	tst.w	fp, #32
  403b1e:	f43f aeef 	beq.w	403900 <_svfprintf_r+0x4f0>
  403b22:	9d0f      	ldr	r5, [sp, #60]	; 0x3c
  403b24:	3507      	adds	r5, #7
  403b26:	f025 0307 	bic.w	r3, r5, #7
  403b2a:	f103 0208 	add.w	r2, r3, #8
  403b2e:	f01b 0f01 	tst.w	fp, #1
  403b32:	920f      	str	r2, [sp, #60]	; 0x3c
  403b34:	e9d3 4500 	ldrd	r4, r5, [r3]
  403b38:	f47f aef4 	bne.w	403924 <_svfprintf_r+0x514>
  403b3c:	2302      	movs	r3, #2
  403b3e:	e55a      	b.n	4035f6 <_svfprintf_r+0x1e6>
  403b40:	9311      	str	r3, [sp, #68]	; 0x44
  403b42:	2a00      	cmp	r2, #0
  403b44:	f040 8686 	bne.w	404854 <_svfprintf_r+0x1444>
  403b48:	f04b 0b10 	orr.w	fp, fp, #16
  403b4c:	f01b 0f20 	tst.w	fp, #32
  403b50:	d0a1      	beq.n	403a96 <_svfprintf_r+0x686>
  403b52:	9d0f      	ldr	r5, [sp, #60]	; 0x3c
  403b54:	3507      	adds	r5, #7
  403b56:	f025 0507 	bic.w	r5, r5, #7
  403b5a:	e9d5 2300 	ldrd	r2, r3, [r5]
  403b5e:	2a00      	cmp	r2, #0
  403b60:	f105 0108 	add.w	r1, r5, #8
  403b64:	461d      	mov	r5, r3
  403b66:	f173 0300 	sbcs.w	r3, r3, #0
  403b6a:	910f      	str	r1, [sp, #60]	; 0x3c
  403b6c:	4614      	mov	r4, r2
  403b6e:	daa6      	bge.n	403abe <_svfprintf_r+0x6ae>
  403b70:	272d      	movs	r7, #45	; 0x2d
  403b72:	4264      	negs	r4, r4
  403b74:	eb65 0545 	sbc.w	r5, r5, r5, lsl #1
  403b78:	f88d 7077 	strb.w	r7, [sp, #119]	; 0x77
  403b7c:	2301      	movs	r3, #1
  403b7e:	e53d      	b.n	4035fc <_svfprintf_r+0x1ec>
  403b80:	9311      	str	r3, [sp, #68]	; 0x44
  403b82:	2a00      	cmp	r2, #0
  403b84:	f040 8662 	bne.w	40484c <_svfprintf_r+0x143c>
  403b88:	9d0f      	ldr	r5, [sp, #60]	; 0x3c
  403b8a:	3507      	adds	r5, #7
  403b8c:	f025 0307 	bic.w	r3, r5, #7
  403b90:	f103 0208 	add.w	r2, r3, #8
  403b94:	920f      	str	r2, [sp, #60]	; 0x3c
  403b96:	681a      	ldr	r2, [r3, #0]
  403b98:	9215      	str	r2, [sp, #84]	; 0x54
  403b9a:	685b      	ldr	r3, [r3, #4]
  403b9c:	9314      	str	r3, [sp, #80]	; 0x50
  403b9e:	9b14      	ldr	r3, [sp, #80]	; 0x50
  403ba0:	9d15      	ldr	r5, [sp, #84]	; 0x54
  403ba2:	f023 4400 	bic.w	r4, r3, #2147483648	; 0x80000000
  403ba6:	4628      	mov	r0, r5
  403ba8:	4621      	mov	r1, r4
  403baa:	f04f 32ff 	mov.w	r2, #4294967295
  403bae:	4b59      	ldr	r3, [pc, #356]	; (403d14 <_svfprintf_r+0x904>)
  403bb0:	f003 fe5a 	bl	407868 <__aeabi_dcmpun>
  403bb4:	2800      	cmp	r0, #0
  403bb6:	f040 834a 	bne.w	40424e <_svfprintf_r+0xe3e>
  403bba:	4628      	mov	r0, r5
  403bbc:	4621      	mov	r1, r4
  403bbe:	f04f 32ff 	mov.w	r2, #4294967295
  403bc2:	4b54      	ldr	r3, [pc, #336]	; (403d14 <_svfprintf_r+0x904>)
  403bc4:	f003 fe32 	bl	40782c <__aeabi_dcmple>
  403bc8:	2800      	cmp	r0, #0
  403bca:	f040 8340 	bne.w	40424e <_svfprintf_r+0xe3e>
  403bce:	a815      	add	r0, sp, #84	; 0x54
  403bd0:	c80d      	ldmia	r0, {r0, r2, r3}
  403bd2:	9914      	ldr	r1, [sp, #80]	; 0x50
  403bd4:	f003 fe20 	bl	407818 <__aeabi_dcmplt>
  403bd8:	2800      	cmp	r0, #0
  403bda:	f040 8530 	bne.w	40463e <_svfprintf_r+0x122e>
  403bde:	f89d 7077 	ldrb.w	r7, [sp, #119]	; 0x77
  403be2:	4e4d      	ldr	r6, [pc, #308]	; (403d18 <_svfprintf_r+0x908>)
  403be4:	4b4d      	ldr	r3, [pc, #308]	; (403d1c <_svfprintf_r+0x90c>)
  403be6:	f02b 0080 	bic.w	r0, fp, #128	; 0x80
  403bea:	9007      	str	r0, [sp, #28]
  403bec:	9811      	ldr	r0, [sp, #68]	; 0x44
  403bee:	2203      	movs	r2, #3
  403bf0:	2100      	movs	r1, #0
  403bf2:	9208      	str	r2, [sp, #32]
  403bf4:	910a      	str	r1, [sp, #40]	; 0x28
  403bf6:	2847      	cmp	r0, #71	; 0x47
  403bf8:	bfd8      	it	le
  403bfa:	461e      	movle	r6, r3
  403bfc:	920e      	str	r2, [sp, #56]	; 0x38
  403bfe:	9112      	str	r1, [sp, #72]	; 0x48
  403c00:	e51e      	b.n	403640 <_svfprintf_r+0x230>
  403c02:	f04b 0b08 	orr.w	fp, fp, #8
  403c06:	f89a 3000 	ldrb.w	r3, [sl]
  403c0a:	e459      	b.n	4034c0 <_svfprintf_r+0xb0>
  403c0c:	f1a3 0030 	sub.w	r0, r3, #48	; 0x30
  403c10:	2300      	movs	r3, #0
  403c12:	461c      	mov	r4, r3
  403c14:	f81a 3b01 	ldrb.w	r3, [sl], #1
  403c18:	eb04 0484 	add.w	r4, r4, r4, lsl #2
  403c1c:	eb00 0444 	add.w	r4, r0, r4, lsl #1
  403c20:	f1a3 0030 	sub.w	r0, r3, #48	; 0x30
  403c24:	2809      	cmp	r0, #9
  403c26:	d9f5      	bls.n	403c14 <_svfprintf_r+0x804>
  403c28:	940d      	str	r4, [sp, #52]	; 0x34
  403c2a:	e44b      	b.n	4034c4 <_svfprintf_r+0xb4>
  403c2c:	f04b 0b10 	orr.w	fp, fp, #16
  403c30:	9311      	str	r3, [sp, #68]	; 0x44
  403c32:	f01b 0320 	ands.w	r3, fp, #32
  403c36:	f43f ae1d 	beq.w	403874 <_svfprintf_r+0x464>
  403c3a:	9d0f      	ldr	r5, [sp, #60]	; 0x3c
  403c3c:	3507      	adds	r5, #7
  403c3e:	f025 0307 	bic.w	r3, r5, #7
  403c42:	f103 0208 	add.w	r2, r3, #8
  403c46:	e9d3 4500 	ldrd	r4, r5, [r3]
  403c4a:	920f      	str	r2, [sp, #60]	; 0x3c
  403c4c:	2300      	movs	r3, #0
  403c4e:	e4d2      	b.n	4035f6 <_svfprintf_r+0x1e6>
  403c50:	9311      	str	r3, [sp, #68]	; 0x44
  403c52:	2a00      	cmp	r2, #0
  403c54:	f040 85e7 	bne.w	404826 <_svfprintf_r+0x1416>
  403c58:	9a11      	ldr	r2, [sp, #68]	; 0x44
  403c5a:	2a00      	cmp	r2, #0
  403c5c:	f43f aca3 	beq.w	4035a6 <_svfprintf_r+0x196>
  403c60:	2300      	movs	r3, #0
  403c62:	2101      	movs	r1, #1
  403c64:	461f      	mov	r7, r3
  403c66:	9108      	str	r1, [sp, #32]
  403c68:	f88d 20a0 	strb.w	r2, [sp, #160]	; 0xa0
  403c6c:	f8cd b01c 	str.w	fp, [sp, #28]
  403c70:	f88d 3077 	strb.w	r3, [sp, #119]	; 0x77
  403c74:	930a      	str	r3, [sp, #40]	; 0x28
  403c76:	9312      	str	r3, [sp, #72]	; 0x48
  403c78:	910e      	str	r1, [sp, #56]	; 0x38
  403c7a:	ae28      	add	r6, sp, #160	; 0xa0
  403c7c:	e4e4      	b.n	403648 <_svfprintf_r+0x238>
  403c7e:	9c27      	ldr	r4, [sp, #156]	; 0x9c
  403c80:	e534      	b.n	4036ec <_svfprintf_r+0x2dc>
  403c82:	9b11      	ldr	r3, [sp, #68]	; 0x44
  403c84:	2b65      	cmp	r3, #101	; 0x65
  403c86:	f340 80a7 	ble.w	403dd8 <_svfprintf_r+0x9c8>
  403c8a:	a815      	add	r0, sp, #84	; 0x54
  403c8c:	c80d      	ldmia	r0, {r0, r2, r3}
  403c8e:	9914      	ldr	r1, [sp, #80]	; 0x50
  403c90:	f003 fdb8 	bl	407804 <__aeabi_dcmpeq>
  403c94:	2800      	cmp	r0, #0
  403c96:	f000 8150 	beq.w	403f3a <_svfprintf_r+0xb2a>
  403c9a:	9b26      	ldr	r3, [sp, #152]	; 0x98
  403c9c:	4a20      	ldr	r2, [pc, #128]	; (403d20 <_svfprintf_r+0x910>)
  403c9e:	f8c8 2000 	str.w	r2, [r8]
  403ca2:	3301      	adds	r3, #1
  403ca4:	3401      	adds	r4, #1
  403ca6:	2201      	movs	r2, #1
  403ca8:	2b07      	cmp	r3, #7
  403caa:	9427      	str	r4, [sp, #156]	; 0x9c
  403cac:	9326      	str	r3, [sp, #152]	; 0x98
  403cae:	f8c8 2004 	str.w	r2, [r8, #4]
  403cb2:	f300 836a 	bgt.w	40438a <_svfprintf_r+0xf7a>
  403cb6:	f108 0808 	add.w	r8, r8, #8
  403cba:	9b1f      	ldr	r3, [sp, #124]	; 0x7c
  403cbc:	9a13      	ldr	r2, [sp, #76]	; 0x4c
  403cbe:	9c27      	ldr	r4, [sp, #156]	; 0x9c
  403cc0:	4293      	cmp	r3, r2
  403cc2:	db03      	blt.n	403ccc <_svfprintf_r+0x8bc>
  403cc4:	9b07      	ldr	r3, [sp, #28]
  403cc6:	07dd      	lsls	r5, r3, #31
  403cc8:	f57f ad82 	bpl.w	4037d0 <_svfprintf_r+0x3c0>
  403ccc:	9b26      	ldr	r3, [sp, #152]	; 0x98
  403cce:	9919      	ldr	r1, [sp, #100]	; 0x64
  403cd0:	9a1a      	ldr	r2, [sp, #104]	; 0x68
  403cd2:	f8c8 2000 	str.w	r2, [r8]
  403cd6:	3301      	adds	r3, #1
  403cd8:	440c      	add	r4, r1
  403cda:	2b07      	cmp	r3, #7
  403cdc:	f8c8 1004 	str.w	r1, [r8, #4]
  403ce0:	9427      	str	r4, [sp, #156]	; 0x9c
  403ce2:	9326      	str	r3, [sp, #152]	; 0x98
  403ce4:	f300 839e 	bgt.w	404424 <_svfprintf_r+0x1014>
  403ce8:	f108 0808 	add.w	r8, r8, #8
  403cec:	9b13      	ldr	r3, [sp, #76]	; 0x4c
  403cee:	1e5e      	subs	r6, r3, #1
  403cf0:	2e00      	cmp	r6, #0
  403cf2:	f77f ad6d 	ble.w	4037d0 <_svfprintf_r+0x3c0>
  403cf6:	2e10      	cmp	r6, #16
  403cf8:	9b26      	ldr	r3, [sp, #152]	; 0x98
  403cfa:	4d0a      	ldr	r5, [pc, #40]	; (403d24 <_svfprintf_r+0x914>)
  403cfc:	f340 81f5 	ble.w	4040ea <_svfprintf_r+0xcda>
  403d00:	4622      	mov	r2, r4
  403d02:	2710      	movs	r7, #16
  403d04:	f8dd b030 	ldr.w	fp, [sp, #48]	; 0x30
  403d08:	9c0b      	ldr	r4, [sp, #44]	; 0x2c
  403d0a:	e013      	b.n	403d34 <_svfprintf_r+0x924>
  403d0c:	00408360 	.word	0x00408360
  403d10:	0040834c 	.word	0x0040834c
  403d14:	7fefffff 	.word	0x7fefffff
  403d18:	00408340 	.word	0x00408340
  403d1c:	0040833c 	.word	0x0040833c
  403d20:	0040837c 	.word	0x0040837c
  403d24:	00408390 	.word	0x00408390
  403d28:	f108 0808 	add.w	r8, r8, #8
  403d2c:	3e10      	subs	r6, #16
  403d2e:	2e10      	cmp	r6, #16
  403d30:	f340 81da 	ble.w	4040e8 <_svfprintf_r+0xcd8>
  403d34:	3301      	adds	r3, #1
  403d36:	3210      	adds	r2, #16
  403d38:	2b07      	cmp	r3, #7
  403d3a:	9227      	str	r2, [sp, #156]	; 0x9c
  403d3c:	9326      	str	r3, [sp, #152]	; 0x98
  403d3e:	e888 00a0 	stmia.w	r8, {r5, r7}
  403d42:	ddf1      	ble.n	403d28 <_svfprintf_r+0x918>
  403d44:	aa25      	add	r2, sp, #148	; 0x94
  403d46:	4621      	mov	r1, r4
  403d48:	4658      	mov	r0, fp
  403d4a:	f002 fcc7 	bl	4066dc <__ssprint_r>
  403d4e:	2800      	cmp	r0, #0
  403d50:	f47f ac30 	bne.w	4035b4 <_svfprintf_r+0x1a4>
  403d54:	9a27      	ldr	r2, [sp, #156]	; 0x9c
  403d56:	9b26      	ldr	r3, [sp, #152]	; 0x98
  403d58:	46c8      	mov	r8, r9
  403d5a:	e7e7      	b.n	403d2c <_svfprintf_r+0x91c>
  403d5c:	9b0d      	ldr	r3, [sp, #52]	; 0x34
  403d5e:	9a08      	ldr	r2, [sp, #32]
  403d60:	1a9f      	subs	r7, r3, r2
  403d62:	2f00      	cmp	r7, #0
  403d64:	f77f ace5 	ble.w	403732 <_svfprintf_r+0x322>
  403d68:	2f10      	cmp	r7, #16
  403d6a:	9b26      	ldr	r3, [sp, #152]	; 0x98
  403d6c:	4db6      	ldr	r5, [pc, #728]	; (404048 <_svfprintf_r+0xc38>)
  403d6e:	dd27      	ble.n	403dc0 <_svfprintf_r+0x9b0>
  403d70:	4642      	mov	r2, r8
  403d72:	4621      	mov	r1, r4
  403d74:	46b0      	mov	r8, r6
  403d76:	f04f 0b10 	mov.w	fp, #16
  403d7a:	462e      	mov	r6, r5
  403d7c:	9c0c      	ldr	r4, [sp, #48]	; 0x30
  403d7e:	9d0b      	ldr	r5, [sp, #44]	; 0x2c
  403d80:	e004      	b.n	403d8c <_svfprintf_r+0x97c>
  403d82:	3f10      	subs	r7, #16
  403d84:	2f10      	cmp	r7, #16
  403d86:	f102 0208 	add.w	r2, r2, #8
  403d8a:	dd15      	ble.n	403db8 <_svfprintf_r+0x9a8>
  403d8c:	3301      	adds	r3, #1
  403d8e:	3110      	adds	r1, #16
  403d90:	2b07      	cmp	r3, #7
  403d92:	9127      	str	r1, [sp, #156]	; 0x9c
  403d94:	9326      	str	r3, [sp, #152]	; 0x98
  403d96:	e882 0840 	stmia.w	r2, {r6, fp}
  403d9a:	ddf2      	ble.n	403d82 <_svfprintf_r+0x972>
  403d9c:	aa25      	add	r2, sp, #148	; 0x94
  403d9e:	4629      	mov	r1, r5
  403da0:	4620      	mov	r0, r4
  403da2:	f002 fc9b 	bl	4066dc <__ssprint_r>
  403da6:	2800      	cmp	r0, #0
  403da8:	f47f ac04 	bne.w	4035b4 <_svfprintf_r+0x1a4>
  403dac:	3f10      	subs	r7, #16
  403dae:	2f10      	cmp	r7, #16
  403db0:	9927      	ldr	r1, [sp, #156]	; 0x9c
  403db2:	9b26      	ldr	r3, [sp, #152]	; 0x98
  403db4:	464a      	mov	r2, r9
  403db6:	dce9      	bgt.n	403d8c <_svfprintf_r+0x97c>
  403db8:	4635      	mov	r5, r6
  403dba:	460c      	mov	r4, r1
  403dbc:	4646      	mov	r6, r8
  403dbe:	4690      	mov	r8, r2
  403dc0:	3301      	adds	r3, #1
  403dc2:	443c      	add	r4, r7
  403dc4:	2b07      	cmp	r3, #7
  403dc6:	9427      	str	r4, [sp, #156]	; 0x9c
  403dc8:	9326      	str	r3, [sp, #152]	; 0x98
  403dca:	e888 00a0 	stmia.w	r8, {r5, r7}
  403dce:	f300 8232 	bgt.w	404236 <_svfprintf_r+0xe26>
  403dd2:	f108 0808 	add.w	r8, r8, #8
  403dd6:	e4ac      	b.n	403732 <_svfprintf_r+0x322>
  403dd8:	9b13      	ldr	r3, [sp, #76]	; 0x4c
  403dda:	9f26      	ldr	r7, [sp, #152]	; 0x98
  403ddc:	2b01      	cmp	r3, #1
  403dde:	f340 81fe 	ble.w	4041de <_svfprintf_r+0xdce>
  403de2:	3701      	adds	r7, #1
  403de4:	3401      	adds	r4, #1
  403de6:	2301      	movs	r3, #1
  403de8:	2f07      	cmp	r7, #7
  403dea:	9427      	str	r4, [sp, #156]	; 0x9c
  403dec:	9726      	str	r7, [sp, #152]	; 0x98
  403dee:	f8c8 6000 	str.w	r6, [r8]
  403df2:	f8c8 3004 	str.w	r3, [r8, #4]
  403df6:	f300 8203 	bgt.w	404200 <_svfprintf_r+0xdf0>
  403dfa:	f108 0808 	add.w	r8, r8, #8
  403dfe:	9a19      	ldr	r2, [sp, #100]	; 0x64
  403e00:	9b1a      	ldr	r3, [sp, #104]	; 0x68
  403e02:	f8c8 3000 	str.w	r3, [r8]
  403e06:	3701      	adds	r7, #1
  403e08:	4414      	add	r4, r2
  403e0a:	2f07      	cmp	r7, #7
  403e0c:	9427      	str	r4, [sp, #156]	; 0x9c
  403e0e:	9726      	str	r7, [sp, #152]	; 0x98
  403e10:	f8c8 2004 	str.w	r2, [r8, #4]
  403e14:	f300 8200 	bgt.w	404218 <_svfprintf_r+0xe08>
  403e18:	f108 0808 	add.w	r8, r8, #8
  403e1c:	a815      	add	r0, sp, #84	; 0x54
  403e1e:	c80d      	ldmia	r0, {r0, r2, r3}
  403e20:	9914      	ldr	r1, [sp, #80]	; 0x50
  403e22:	f003 fcef 	bl	407804 <__aeabi_dcmpeq>
  403e26:	9b13      	ldr	r3, [sp, #76]	; 0x4c
  403e28:	2800      	cmp	r0, #0
  403e2a:	f040 8101 	bne.w	404030 <_svfprintf_r+0xc20>
  403e2e:	3b01      	subs	r3, #1
  403e30:	3701      	adds	r7, #1
  403e32:	3601      	adds	r6, #1
  403e34:	441c      	add	r4, r3
  403e36:	2f07      	cmp	r7, #7
  403e38:	9726      	str	r7, [sp, #152]	; 0x98
  403e3a:	9427      	str	r4, [sp, #156]	; 0x9c
  403e3c:	f8c8 6000 	str.w	r6, [r8]
  403e40:	f8c8 3004 	str.w	r3, [r8, #4]
  403e44:	f300 8127 	bgt.w	404096 <_svfprintf_r+0xc86>
  403e48:	f108 0808 	add.w	r8, r8, #8
  403e4c:	9a1b      	ldr	r2, [sp, #108]	; 0x6c
  403e4e:	f8c8 2004 	str.w	r2, [r8, #4]
  403e52:	3701      	adds	r7, #1
  403e54:	4414      	add	r4, r2
  403e56:	ab21      	add	r3, sp, #132	; 0x84
  403e58:	2f07      	cmp	r7, #7
  403e5a:	9427      	str	r4, [sp, #156]	; 0x9c
  403e5c:	9726      	str	r7, [sp, #152]	; 0x98
  403e5e:	f8c8 3000 	str.w	r3, [r8]
  403e62:	f77f acb3 	ble.w	4037cc <_svfprintf_r+0x3bc>
  403e66:	aa25      	add	r2, sp, #148	; 0x94
  403e68:	990b      	ldr	r1, [sp, #44]	; 0x2c
  403e6a:	980c      	ldr	r0, [sp, #48]	; 0x30
  403e6c:	f002 fc36 	bl	4066dc <__ssprint_r>
  403e70:	2800      	cmp	r0, #0
  403e72:	f47f ab9f 	bne.w	4035b4 <_svfprintf_r+0x1a4>
  403e76:	9c27      	ldr	r4, [sp, #156]	; 0x9c
  403e78:	46c8      	mov	r8, r9
  403e7a:	e4a9      	b.n	4037d0 <_svfprintf_r+0x3c0>
  403e7c:	aa25      	add	r2, sp, #148	; 0x94
  403e7e:	990b      	ldr	r1, [sp, #44]	; 0x2c
  403e80:	980c      	ldr	r0, [sp, #48]	; 0x30
  403e82:	f002 fc2b 	bl	4066dc <__ssprint_r>
  403e86:	2800      	cmp	r0, #0
  403e88:	f43f aceb 	beq.w	403862 <_svfprintf_r+0x452>
  403e8c:	f7ff bb92 	b.w	4035b4 <_svfprintf_r+0x1a4>
  403e90:	f8dd b01c 	ldr.w	fp, [sp, #28]
  403e94:	2b01      	cmp	r3, #1
  403e96:	f000 8134 	beq.w	404102 <_svfprintf_r+0xcf2>
  403e9a:	2b02      	cmp	r3, #2
  403e9c:	d125      	bne.n	403eea <_svfprintf_r+0xada>
  403e9e:	f8cd b01c 	str.w	fp, [sp, #28]
  403ea2:	2400      	movs	r4, #0
  403ea4:	2500      	movs	r5, #0
  403ea6:	e61e      	b.n	403ae6 <_svfprintf_r+0x6d6>
  403ea8:	aa25      	add	r2, sp, #148	; 0x94
  403eaa:	990b      	ldr	r1, [sp, #44]	; 0x2c
  403eac:	980c      	ldr	r0, [sp, #48]	; 0x30
  403eae:	f002 fc15 	bl	4066dc <__ssprint_r>
  403eb2:	2800      	cmp	r0, #0
  403eb4:	f47f ab7e 	bne.w	4035b4 <_svfprintf_r+0x1a4>
  403eb8:	9c27      	ldr	r4, [sp, #156]	; 0x9c
  403eba:	46c8      	mov	r8, r9
  403ebc:	e475      	b.n	4037aa <_svfprintf_r+0x39a>
  403ebe:	aa25      	add	r2, sp, #148	; 0x94
  403ec0:	990b      	ldr	r1, [sp, #44]	; 0x2c
  403ec2:	980c      	ldr	r0, [sp, #48]	; 0x30
  403ec4:	f002 fc0a 	bl	4066dc <__ssprint_r>
  403ec8:	2800      	cmp	r0, #0
  403eca:	f47f ab73 	bne.w	4035b4 <_svfprintf_r+0x1a4>
  403ece:	9c27      	ldr	r4, [sp, #156]	; 0x9c
  403ed0:	46c8      	mov	r8, r9
  403ed2:	e41b      	b.n	40370c <_svfprintf_r+0x2fc>
  403ed4:	aa25      	add	r2, sp, #148	; 0x94
  403ed6:	990b      	ldr	r1, [sp, #44]	; 0x2c
  403ed8:	980c      	ldr	r0, [sp, #48]	; 0x30
  403eda:	f002 fbff 	bl	4066dc <__ssprint_r>
  403ede:	2800      	cmp	r0, #0
  403ee0:	f47f ab68 	bne.w	4035b4 <_svfprintf_r+0x1a4>
  403ee4:	9c27      	ldr	r4, [sp, #156]	; 0x9c
  403ee6:	46c8      	mov	r8, r9
  403ee8:	e420      	b.n	40372c <_svfprintf_r+0x31c>
  403eea:	f8cd b01c 	str.w	fp, [sp, #28]
  403eee:	2400      	movs	r4, #0
  403ef0:	2500      	movs	r5, #0
  403ef2:	4649      	mov	r1, r9
  403ef4:	e000      	b.n	403ef8 <_svfprintf_r+0xae8>
  403ef6:	4631      	mov	r1, r6
  403ef8:	08e2      	lsrs	r2, r4, #3
  403efa:	ea42 7245 	orr.w	r2, r2, r5, lsl #29
  403efe:	08e8      	lsrs	r0, r5, #3
  403f00:	f004 0307 	and.w	r3, r4, #7
  403f04:	4605      	mov	r5, r0
  403f06:	4614      	mov	r4, r2
  403f08:	3330      	adds	r3, #48	; 0x30
  403f0a:	ea54 0205 	orrs.w	r2, r4, r5
  403f0e:	f801 3c01 	strb.w	r3, [r1, #-1]
  403f12:	f101 36ff 	add.w	r6, r1, #4294967295
  403f16:	d1ee      	bne.n	403ef6 <_svfprintf_r+0xae6>
  403f18:	9a07      	ldr	r2, [sp, #28]
  403f1a:	07d2      	lsls	r2, r2, #31
  403f1c:	f57f adf3 	bpl.w	403b06 <_svfprintf_r+0x6f6>
  403f20:	2b30      	cmp	r3, #48	; 0x30
  403f22:	f43f adf0 	beq.w	403b06 <_svfprintf_r+0x6f6>
  403f26:	3902      	subs	r1, #2
  403f28:	2330      	movs	r3, #48	; 0x30
  403f2a:	f806 3c01 	strb.w	r3, [r6, #-1]
  403f2e:	eba9 0301 	sub.w	r3, r9, r1
  403f32:	930e      	str	r3, [sp, #56]	; 0x38
  403f34:	460e      	mov	r6, r1
  403f36:	f7ff bb7b 	b.w	403630 <_svfprintf_r+0x220>
  403f3a:	991f      	ldr	r1, [sp, #124]	; 0x7c
  403f3c:	2900      	cmp	r1, #0
  403f3e:	f340 822e 	ble.w	40439e <_svfprintf_r+0xf8e>
  403f42:	9b12      	ldr	r3, [sp, #72]	; 0x48
  403f44:	9a13      	ldr	r2, [sp, #76]	; 0x4c
  403f46:	4293      	cmp	r3, r2
  403f48:	bfa8      	it	ge
  403f4a:	4613      	movge	r3, r2
  403f4c:	2b00      	cmp	r3, #0
  403f4e:	461f      	mov	r7, r3
  403f50:	dd0d      	ble.n	403f6e <_svfprintf_r+0xb5e>
  403f52:	9b26      	ldr	r3, [sp, #152]	; 0x98
  403f54:	f8c8 6000 	str.w	r6, [r8]
  403f58:	3301      	adds	r3, #1
  403f5a:	443c      	add	r4, r7
  403f5c:	2b07      	cmp	r3, #7
  403f5e:	9427      	str	r4, [sp, #156]	; 0x9c
  403f60:	f8c8 7004 	str.w	r7, [r8, #4]
  403f64:	9326      	str	r3, [sp, #152]	; 0x98
  403f66:	f300 831f 	bgt.w	4045a8 <_svfprintf_r+0x1198>
  403f6a:	f108 0808 	add.w	r8, r8, #8
  403f6e:	9b12      	ldr	r3, [sp, #72]	; 0x48
  403f70:	2f00      	cmp	r7, #0
  403f72:	bfa8      	it	ge
  403f74:	1bdb      	subge	r3, r3, r7
  403f76:	2b00      	cmp	r3, #0
  403f78:	461f      	mov	r7, r3
  403f7a:	f340 80d6 	ble.w	40412a <_svfprintf_r+0xd1a>
  403f7e:	2f10      	cmp	r7, #16
  403f80:	9b26      	ldr	r3, [sp, #152]	; 0x98
  403f82:	4d31      	ldr	r5, [pc, #196]	; (404048 <_svfprintf_r+0xc38>)
  403f84:	f340 81ed 	ble.w	404362 <_svfprintf_r+0xf52>
  403f88:	4642      	mov	r2, r8
  403f8a:	4621      	mov	r1, r4
  403f8c:	46b0      	mov	r8, r6
  403f8e:	f04f 0b10 	mov.w	fp, #16
  403f92:	462e      	mov	r6, r5
  403f94:	9c0c      	ldr	r4, [sp, #48]	; 0x30
  403f96:	9d0b      	ldr	r5, [sp, #44]	; 0x2c
  403f98:	e004      	b.n	403fa4 <_svfprintf_r+0xb94>
  403f9a:	3208      	adds	r2, #8
  403f9c:	3f10      	subs	r7, #16
  403f9e:	2f10      	cmp	r7, #16
  403fa0:	f340 81db 	ble.w	40435a <_svfprintf_r+0xf4a>
  403fa4:	3301      	adds	r3, #1
  403fa6:	3110      	adds	r1, #16
  403fa8:	2b07      	cmp	r3, #7
  403faa:	9127      	str	r1, [sp, #156]	; 0x9c
  403fac:	9326      	str	r3, [sp, #152]	; 0x98
  403fae:	e882 0840 	stmia.w	r2, {r6, fp}
  403fb2:	ddf2      	ble.n	403f9a <_svfprintf_r+0xb8a>
  403fb4:	aa25      	add	r2, sp, #148	; 0x94
  403fb6:	4629      	mov	r1, r5
  403fb8:	4620      	mov	r0, r4
  403fba:	f002 fb8f 	bl	4066dc <__ssprint_r>
  403fbe:	2800      	cmp	r0, #0
  403fc0:	f47f aaf8 	bne.w	4035b4 <_svfprintf_r+0x1a4>
  403fc4:	9927      	ldr	r1, [sp, #156]	; 0x9c
  403fc6:	9b26      	ldr	r3, [sp, #152]	; 0x98
  403fc8:	464a      	mov	r2, r9
  403fca:	e7e7      	b.n	403f9c <_svfprintf_r+0xb8c>
  403fcc:	9b0a      	ldr	r3, [sp, #40]	; 0x28
  403fce:	930e      	str	r3, [sp, #56]	; 0x38
  403fd0:	464e      	mov	r6, r9
  403fd2:	f7ff bb2d 	b.w	403630 <_svfprintf_r+0x220>
  403fd6:	2d00      	cmp	r5, #0
  403fd8:	bf08      	it	eq
  403fda:	2c0a      	cmpeq	r4, #10
  403fdc:	f0c0 808f 	bcc.w	4040fe <_svfprintf_r+0xcee>
  403fe0:	464e      	mov	r6, r9
  403fe2:	4620      	mov	r0, r4
  403fe4:	4629      	mov	r1, r5
  403fe6:	220a      	movs	r2, #10
  403fe8:	2300      	movs	r3, #0
  403fea:	f7fe ffed 	bl	402fc8 <__aeabi_uldivmod>
  403fee:	3230      	adds	r2, #48	; 0x30
  403ff0:	f806 2d01 	strb.w	r2, [r6, #-1]!
  403ff4:	4620      	mov	r0, r4
  403ff6:	4629      	mov	r1, r5
  403ff8:	2300      	movs	r3, #0
  403ffa:	220a      	movs	r2, #10
  403ffc:	f7fe ffe4 	bl	402fc8 <__aeabi_uldivmod>
  404000:	4604      	mov	r4, r0
  404002:	460d      	mov	r5, r1
  404004:	ea54 0305 	orrs.w	r3, r4, r5
  404008:	d1eb      	bne.n	403fe2 <_svfprintf_r+0xbd2>
  40400a:	eba9 0306 	sub.w	r3, r9, r6
  40400e:	930e      	str	r3, [sp, #56]	; 0x38
  404010:	f7ff bb0e 	b.w	403630 <_svfprintf_r+0x220>
  404014:	aa25      	add	r2, sp, #148	; 0x94
  404016:	990b      	ldr	r1, [sp, #44]	; 0x2c
  404018:	980c      	ldr	r0, [sp, #48]	; 0x30
  40401a:	f002 fb5f 	bl	4066dc <__ssprint_r>
  40401e:	2800      	cmp	r0, #0
  404020:	f47f aac8 	bne.w	4035b4 <_svfprintf_r+0x1a4>
  404024:	f89d 7077 	ldrb.w	r7, [sp, #119]	; 0x77
  404028:	9c27      	ldr	r4, [sp, #156]	; 0x9c
  40402a:	46c8      	mov	r8, r9
  40402c:	f7ff bb5e 	b.w	4036ec <_svfprintf_r+0x2dc>
  404030:	1e5e      	subs	r6, r3, #1
  404032:	2e00      	cmp	r6, #0
  404034:	f77f af0a 	ble.w	403e4c <_svfprintf_r+0xa3c>
  404038:	2e10      	cmp	r6, #16
  40403a:	4d03      	ldr	r5, [pc, #12]	; (404048 <_svfprintf_r+0xc38>)
  40403c:	dd22      	ble.n	404084 <_svfprintf_r+0xc74>
  40403e:	4622      	mov	r2, r4
  404040:	f04f 0b10 	mov.w	fp, #16
  404044:	9c0c      	ldr	r4, [sp, #48]	; 0x30
  404046:	e006      	b.n	404056 <_svfprintf_r+0xc46>
  404048:	00408390 	.word	0x00408390
  40404c:	3e10      	subs	r6, #16
  40404e:	2e10      	cmp	r6, #16
  404050:	f108 0808 	add.w	r8, r8, #8
  404054:	dd15      	ble.n	404082 <_svfprintf_r+0xc72>
  404056:	3701      	adds	r7, #1
  404058:	3210      	adds	r2, #16
  40405a:	2f07      	cmp	r7, #7
  40405c:	9227      	str	r2, [sp, #156]	; 0x9c
  40405e:	9726      	str	r7, [sp, #152]	; 0x98
  404060:	e888 0820 	stmia.w	r8, {r5, fp}
  404064:	ddf2      	ble.n	40404c <_svfprintf_r+0xc3c>
  404066:	aa25      	add	r2, sp, #148	; 0x94
  404068:	990b      	ldr	r1, [sp, #44]	; 0x2c
  40406a:	4620      	mov	r0, r4
  40406c:	f002 fb36 	bl	4066dc <__ssprint_r>
  404070:	2800      	cmp	r0, #0
  404072:	f47f aa9f 	bne.w	4035b4 <_svfprintf_r+0x1a4>
  404076:	3e10      	subs	r6, #16
  404078:	2e10      	cmp	r6, #16
  40407a:	9a27      	ldr	r2, [sp, #156]	; 0x9c
  40407c:	9f26      	ldr	r7, [sp, #152]	; 0x98
  40407e:	46c8      	mov	r8, r9
  404080:	dce9      	bgt.n	404056 <_svfprintf_r+0xc46>
  404082:	4614      	mov	r4, r2
  404084:	3701      	adds	r7, #1
  404086:	4434      	add	r4, r6
  404088:	2f07      	cmp	r7, #7
  40408a:	9427      	str	r4, [sp, #156]	; 0x9c
  40408c:	9726      	str	r7, [sp, #152]	; 0x98
  40408e:	e888 0060 	stmia.w	r8, {r5, r6}
  404092:	f77f aed9 	ble.w	403e48 <_svfprintf_r+0xa38>
  404096:	aa25      	add	r2, sp, #148	; 0x94
  404098:	990b      	ldr	r1, [sp, #44]	; 0x2c
  40409a:	980c      	ldr	r0, [sp, #48]	; 0x30
  40409c:	f002 fb1e 	bl	4066dc <__ssprint_r>
  4040a0:	2800      	cmp	r0, #0
  4040a2:	f47f aa87 	bne.w	4035b4 <_svfprintf_r+0x1a4>
  4040a6:	9c27      	ldr	r4, [sp, #156]	; 0x9c
  4040a8:	9f26      	ldr	r7, [sp, #152]	; 0x98
  4040aa:	46c8      	mov	r8, r9
  4040ac:	e6ce      	b.n	403e4c <_svfprintf_r+0xa3c>
  4040ae:	9a0f      	ldr	r2, [sp, #60]	; 0x3c
  4040b0:	6814      	ldr	r4, [r2, #0]
  4040b2:	4613      	mov	r3, r2
  4040b4:	3304      	adds	r3, #4
  4040b6:	17e5      	asrs	r5, r4, #31
  4040b8:	930f      	str	r3, [sp, #60]	; 0x3c
  4040ba:	4622      	mov	r2, r4
  4040bc:	462b      	mov	r3, r5
  4040be:	e4fa      	b.n	403ab6 <_svfprintf_r+0x6a6>
  4040c0:	3204      	adds	r2, #4
  4040c2:	681c      	ldr	r4, [r3, #0]
  4040c4:	920f      	str	r2, [sp, #60]	; 0x3c
  4040c6:	2301      	movs	r3, #1
  4040c8:	2500      	movs	r5, #0
  4040ca:	f7ff ba94 	b.w	4035f6 <_svfprintf_r+0x1e6>
  4040ce:	681c      	ldr	r4, [r3, #0]
  4040d0:	3304      	adds	r3, #4
  4040d2:	930f      	str	r3, [sp, #60]	; 0x3c
  4040d4:	2500      	movs	r5, #0
  4040d6:	e421      	b.n	40391c <_svfprintf_r+0x50c>
  4040d8:	990f      	ldr	r1, [sp, #60]	; 0x3c
  4040da:	460a      	mov	r2, r1
  4040dc:	3204      	adds	r2, #4
  4040de:	680c      	ldr	r4, [r1, #0]
  4040e0:	920f      	str	r2, [sp, #60]	; 0x3c
  4040e2:	2500      	movs	r5, #0
  4040e4:	f7ff ba87 	b.w	4035f6 <_svfprintf_r+0x1e6>
  4040e8:	4614      	mov	r4, r2
  4040ea:	3301      	adds	r3, #1
  4040ec:	4434      	add	r4, r6
  4040ee:	2b07      	cmp	r3, #7
  4040f0:	9427      	str	r4, [sp, #156]	; 0x9c
  4040f2:	9326      	str	r3, [sp, #152]	; 0x98
  4040f4:	e888 0060 	stmia.w	r8, {r5, r6}
  4040f8:	f77f ab68 	ble.w	4037cc <_svfprintf_r+0x3bc>
  4040fc:	e6b3      	b.n	403e66 <_svfprintf_r+0xa56>
  4040fe:	f8dd b01c 	ldr.w	fp, [sp, #28]
  404102:	f8cd b01c 	str.w	fp, [sp, #28]
  404106:	ae42      	add	r6, sp, #264	; 0x108
  404108:	3430      	adds	r4, #48	; 0x30
  40410a:	2301      	movs	r3, #1
  40410c:	f806 4d41 	strb.w	r4, [r6, #-65]!
  404110:	930e      	str	r3, [sp, #56]	; 0x38
  404112:	f7ff ba8d 	b.w	403630 <_svfprintf_r+0x220>
  404116:	aa25      	add	r2, sp, #148	; 0x94
  404118:	990b      	ldr	r1, [sp, #44]	; 0x2c
  40411a:	980c      	ldr	r0, [sp, #48]	; 0x30
  40411c:	f002 fade 	bl	4066dc <__ssprint_r>
  404120:	2800      	cmp	r0, #0
  404122:	f47f aa47 	bne.w	4035b4 <_svfprintf_r+0x1a4>
  404126:	9c27      	ldr	r4, [sp, #156]	; 0x9c
  404128:	46c8      	mov	r8, r9
  40412a:	9a1f      	ldr	r2, [sp, #124]	; 0x7c
  40412c:	9b13      	ldr	r3, [sp, #76]	; 0x4c
  40412e:	429a      	cmp	r2, r3
  404130:	db44      	blt.n	4041bc <_svfprintf_r+0xdac>
  404132:	9b07      	ldr	r3, [sp, #28]
  404134:	07d9      	lsls	r1, r3, #31
  404136:	d441      	bmi.n	4041bc <_svfprintf_r+0xdac>
  404138:	9b13      	ldr	r3, [sp, #76]	; 0x4c
  40413a:	9812      	ldr	r0, [sp, #72]	; 0x48
  40413c:	1a9a      	subs	r2, r3, r2
  40413e:	1a1d      	subs	r5, r3, r0
  404140:	4295      	cmp	r5, r2
  404142:	bfa8      	it	ge
  404144:	4615      	movge	r5, r2
  404146:	2d00      	cmp	r5, #0
  404148:	dd0e      	ble.n	404168 <_svfprintf_r+0xd58>
  40414a:	9926      	ldr	r1, [sp, #152]	; 0x98
  40414c:	f8c8 5004 	str.w	r5, [r8, #4]
  404150:	3101      	adds	r1, #1
  404152:	4406      	add	r6, r0
  404154:	442c      	add	r4, r5
  404156:	2907      	cmp	r1, #7
  404158:	f8c8 6000 	str.w	r6, [r8]
  40415c:	9427      	str	r4, [sp, #156]	; 0x9c
  40415e:	9126      	str	r1, [sp, #152]	; 0x98
  404160:	f300 823b 	bgt.w	4045da <_svfprintf_r+0x11ca>
  404164:	f108 0808 	add.w	r8, r8, #8
  404168:	2d00      	cmp	r5, #0
  40416a:	bfac      	ite	ge
  40416c:	1b56      	subge	r6, r2, r5
  40416e:	4616      	movlt	r6, r2
  404170:	2e00      	cmp	r6, #0
  404172:	f77f ab2d 	ble.w	4037d0 <_svfprintf_r+0x3c0>
  404176:	2e10      	cmp	r6, #16
  404178:	9b26      	ldr	r3, [sp, #152]	; 0x98
  40417a:	4db0      	ldr	r5, [pc, #704]	; (40443c <_svfprintf_r+0x102c>)
  40417c:	ddb5      	ble.n	4040ea <_svfprintf_r+0xcda>
  40417e:	4622      	mov	r2, r4
  404180:	2710      	movs	r7, #16
  404182:	f8dd b030 	ldr.w	fp, [sp, #48]	; 0x30
  404186:	9c0b      	ldr	r4, [sp, #44]	; 0x2c
  404188:	e004      	b.n	404194 <_svfprintf_r+0xd84>
  40418a:	f108 0808 	add.w	r8, r8, #8
  40418e:	3e10      	subs	r6, #16
  404190:	2e10      	cmp	r6, #16
  404192:	dda9      	ble.n	4040e8 <_svfprintf_r+0xcd8>
  404194:	3301      	adds	r3, #1
  404196:	3210      	adds	r2, #16
  404198:	2b07      	cmp	r3, #7
  40419a:	9227      	str	r2, [sp, #156]	; 0x9c
  40419c:	9326      	str	r3, [sp, #152]	; 0x98
  40419e:	e888 00a0 	stmia.w	r8, {r5, r7}
  4041a2:	ddf2      	ble.n	40418a <_svfprintf_r+0xd7a>
  4041a4:	aa25      	add	r2, sp, #148	; 0x94
  4041a6:	4621      	mov	r1, r4
  4041a8:	4658      	mov	r0, fp
  4041aa:	f002 fa97 	bl	4066dc <__ssprint_r>
  4041ae:	2800      	cmp	r0, #0
  4041b0:	f47f aa00 	bne.w	4035b4 <_svfprintf_r+0x1a4>
  4041b4:	9a27      	ldr	r2, [sp, #156]	; 0x9c
  4041b6:	9b26      	ldr	r3, [sp, #152]	; 0x98
  4041b8:	46c8      	mov	r8, r9
  4041ba:	e7e8      	b.n	40418e <_svfprintf_r+0xd7e>
  4041bc:	9b26      	ldr	r3, [sp, #152]	; 0x98
  4041be:	9819      	ldr	r0, [sp, #100]	; 0x64
  4041c0:	991a      	ldr	r1, [sp, #104]	; 0x68
  4041c2:	f8c8 1000 	str.w	r1, [r8]
  4041c6:	3301      	adds	r3, #1
  4041c8:	4404      	add	r4, r0
  4041ca:	2b07      	cmp	r3, #7
  4041cc:	9427      	str	r4, [sp, #156]	; 0x9c
  4041ce:	f8c8 0004 	str.w	r0, [r8, #4]
  4041d2:	9326      	str	r3, [sp, #152]	; 0x98
  4041d4:	f300 81f5 	bgt.w	4045c2 <_svfprintf_r+0x11b2>
  4041d8:	f108 0808 	add.w	r8, r8, #8
  4041dc:	e7ac      	b.n	404138 <_svfprintf_r+0xd28>
  4041de:	9b07      	ldr	r3, [sp, #28]
  4041e0:	07da      	lsls	r2, r3, #31
  4041e2:	f53f adfe 	bmi.w	403de2 <_svfprintf_r+0x9d2>
  4041e6:	3701      	adds	r7, #1
  4041e8:	3401      	adds	r4, #1
  4041ea:	2301      	movs	r3, #1
  4041ec:	2f07      	cmp	r7, #7
  4041ee:	9427      	str	r4, [sp, #156]	; 0x9c
  4041f0:	9726      	str	r7, [sp, #152]	; 0x98
  4041f2:	f8c8 6000 	str.w	r6, [r8]
  4041f6:	f8c8 3004 	str.w	r3, [r8, #4]
  4041fa:	f77f ae25 	ble.w	403e48 <_svfprintf_r+0xa38>
  4041fe:	e74a      	b.n	404096 <_svfprintf_r+0xc86>
  404200:	aa25      	add	r2, sp, #148	; 0x94
  404202:	990b      	ldr	r1, [sp, #44]	; 0x2c
  404204:	980c      	ldr	r0, [sp, #48]	; 0x30
  404206:	f002 fa69 	bl	4066dc <__ssprint_r>
  40420a:	2800      	cmp	r0, #0
  40420c:	f47f a9d2 	bne.w	4035b4 <_svfprintf_r+0x1a4>
  404210:	9c27      	ldr	r4, [sp, #156]	; 0x9c
  404212:	9f26      	ldr	r7, [sp, #152]	; 0x98
  404214:	46c8      	mov	r8, r9
  404216:	e5f2      	b.n	403dfe <_svfprintf_r+0x9ee>
  404218:	aa25      	add	r2, sp, #148	; 0x94
  40421a:	990b      	ldr	r1, [sp, #44]	; 0x2c
  40421c:	980c      	ldr	r0, [sp, #48]	; 0x30
  40421e:	f002 fa5d 	bl	4066dc <__ssprint_r>
  404222:	2800      	cmp	r0, #0
  404224:	f47f a9c6 	bne.w	4035b4 <_svfprintf_r+0x1a4>
  404228:	9c27      	ldr	r4, [sp, #156]	; 0x9c
  40422a:	9f26      	ldr	r7, [sp, #152]	; 0x98
  40422c:	46c8      	mov	r8, r9
  40422e:	e5f5      	b.n	403e1c <_svfprintf_r+0xa0c>
  404230:	464e      	mov	r6, r9
  404232:	f7ff b9fd 	b.w	403630 <_svfprintf_r+0x220>
  404236:	aa25      	add	r2, sp, #148	; 0x94
  404238:	990b      	ldr	r1, [sp, #44]	; 0x2c
  40423a:	980c      	ldr	r0, [sp, #48]	; 0x30
  40423c:	f002 fa4e 	bl	4066dc <__ssprint_r>
  404240:	2800      	cmp	r0, #0
  404242:	f47f a9b7 	bne.w	4035b4 <_svfprintf_r+0x1a4>
  404246:	9c27      	ldr	r4, [sp, #156]	; 0x9c
  404248:	46c8      	mov	r8, r9
  40424a:	f7ff ba72 	b.w	403732 <_svfprintf_r+0x322>
  40424e:	9c15      	ldr	r4, [sp, #84]	; 0x54
  404250:	4622      	mov	r2, r4
  404252:	4620      	mov	r0, r4
  404254:	9c14      	ldr	r4, [sp, #80]	; 0x50
  404256:	4623      	mov	r3, r4
  404258:	4621      	mov	r1, r4
  40425a:	f003 fb05 	bl	407868 <__aeabi_dcmpun>
  40425e:	2800      	cmp	r0, #0
  404260:	f040 8286 	bne.w	404770 <_svfprintf_r+0x1360>
  404264:	9b0a      	ldr	r3, [sp, #40]	; 0x28
  404266:	3301      	adds	r3, #1
  404268:	9b11      	ldr	r3, [sp, #68]	; 0x44
  40426a:	f023 0320 	bic.w	r3, r3, #32
  40426e:	930e      	str	r3, [sp, #56]	; 0x38
  404270:	f000 81e2 	beq.w	404638 <_svfprintf_r+0x1228>
  404274:	2b47      	cmp	r3, #71	; 0x47
  404276:	f000 811e 	beq.w	4044b6 <_svfprintf_r+0x10a6>
  40427a:	f44b 7380 	orr.w	r3, fp, #256	; 0x100
  40427e:	9307      	str	r3, [sp, #28]
  404280:	9b14      	ldr	r3, [sp, #80]	; 0x50
  404282:	1e1f      	subs	r7, r3, #0
  404284:	9b15      	ldr	r3, [sp, #84]	; 0x54
  404286:	9308      	str	r3, [sp, #32]
  404288:	bfbb      	ittet	lt
  40428a:	463b      	movlt	r3, r7
  40428c:	f103 4700 	addlt.w	r7, r3, #2147483648	; 0x80000000
  404290:	2300      	movge	r3, #0
  404292:	232d      	movlt	r3, #45	; 0x2d
  404294:	9310      	str	r3, [sp, #64]	; 0x40
  404296:	9b11      	ldr	r3, [sp, #68]	; 0x44
  404298:	2b66      	cmp	r3, #102	; 0x66
  40429a:	f000 81bb 	beq.w	404614 <_svfprintf_r+0x1204>
  40429e:	2b46      	cmp	r3, #70	; 0x46
  4042a0:	f000 80df 	beq.w	404462 <_svfprintf_r+0x1052>
  4042a4:	9b0e      	ldr	r3, [sp, #56]	; 0x38
  4042a6:	9a08      	ldr	r2, [sp, #32]
  4042a8:	2b45      	cmp	r3, #69	; 0x45
  4042aa:	bf0c      	ite	eq
  4042ac:	9b0a      	ldreq	r3, [sp, #40]	; 0x28
  4042ae:	9d0a      	ldrne	r5, [sp, #40]	; 0x28
  4042b0:	a823      	add	r0, sp, #140	; 0x8c
  4042b2:	a920      	add	r1, sp, #128	; 0x80
  4042b4:	bf08      	it	eq
  4042b6:	1c5d      	addeq	r5, r3, #1
  4042b8:	9004      	str	r0, [sp, #16]
  4042ba:	9103      	str	r1, [sp, #12]
  4042bc:	a81f      	add	r0, sp, #124	; 0x7c
  4042be:	2102      	movs	r1, #2
  4042c0:	463b      	mov	r3, r7
  4042c2:	9002      	str	r0, [sp, #8]
  4042c4:	9501      	str	r5, [sp, #4]
  4042c6:	9100      	str	r1, [sp, #0]
  4042c8:	980c      	ldr	r0, [sp, #48]	; 0x30
  4042ca:	f000 fb75 	bl	4049b8 <_dtoa_r>
  4042ce:	9b11      	ldr	r3, [sp, #68]	; 0x44
  4042d0:	2b67      	cmp	r3, #103	; 0x67
  4042d2:	4606      	mov	r6, r0
  4042d4:	f040 81e0 	bne.w	404698 <_svfprintf_r+0x1288>
  4042d8:	f01b 0f01 	tst.w	fp, #1
  4042dc:	f000 8246 	beq.w	40476c <_svfprintf_r+0x135c>
  4042e0:	1974      	adds	r4, r6, r5
  4042e2:	9a16      	ldr	r2, [sp, #88]	; 0x58
  4042e4:	9808      	ldr	r0, [sp, #32]
  4042e6:	9b17      	ldr	r3, [sp, #92]	; 0x5c
  4042e8:	4639      	mov	r1, r7
  4042ea:	f003 fa8b 	bl	407804 <__aeabi_dcmpeq>
  4042ee:	2800      	cmp	r0, #0
  4042f0:	f040 8165 	bne.w	4045be <_svfprintf_r+0x11ae>
  4042f4:	9b23      	ldr	r3, [sp, #140]	; 0x8c
  4042f6:	42a3      	cmp	r3, r4
  4042f8:	d206      	bcs.n	404308 <_svfprintf_r+0xef8>
  4042fa:	2130      	movs	r1, #48	; 0x30
  4042fc:	1c5a      	adds	r2, r3, #1
  4042fe:	9223      	str	r2, [sp, #140]	; 0x8c
  404300:	7019      	strb	r1, [r3, #0]
  404302:	9b23      	ldr	r3, [sp, #140]	; 0x8c
  404304:	429c      	cmp	r4, r3
  404306:	d8f9      	bhi.n	4042fc <_svfprintf_r+0xeec>
  404308:	1b9b      	subs	r3, r3, r6
  40430a:	9313      	str	r3, [sp, #76]	; 0x4c
  40430c:	9b0e      	ldr	r3, [sp, #56]	; 0x38
  40430e:	2b47      	cmp	r3, #71	; 0x47
  404310:	f000 80e9 	beq.w	4044e6 <_svfprintf_r+0x10d6>
  404314:	9b11      	ldr	r3, [sp, #68]	; 0x44
  404316:	2b65      	cmp	r3, #101	; 0x65
  404318:	f340 81cd 	ble.w	4046b6 <_svfprintf_r+0x12a6>
  40431c:	9b11      	ldr	r3, [sp, #68]	; 0x44
  40431e:	2b66      	cmp	r3, #102	; 0x66
  404320:	9b1f      	ldr	r3, [sp, #124]	; 0x7c
  404322:	9312      	str	r3, [sp, #72]	; 0x48
  404324:	f000 819e 	beq.w	404664 <_svfprintf_r+0x1254>
  404328:	9b13      	ldr	r3, [sp, #76]	; 0x4c
  40432a:	9a12      	ldr	r2, [sp, #72]	; 0x48
  40432c:	4619      	mov	r1, r3
  40432e:	4291      	cmp	r1, r2
  404330:	f300 818a 	bgt.w	404648 <_svfprintf_r+0x1238>
  404334:	f01b 0f01 	tst.w	fp, #1
  404338:	f040 8213 	bne.w	404762 <_svfprintf_r+0x1352>
  40433c:	ea22 73e2 	bic.w	r3, r2, r2, asr #31
  404340:	9308      	str	r3, [sp, #32]
  404342:	2367      	movs	r3, #103	; 0x67
  404344:	920e      	str	r2, [sp, #56]	; 0x38
  404346:	9311      	str	r3, [sp, #68]	; 0x44
  404348:	9b10      	ldr	r3, [sp, #64]	; 0x40
  40434a:	2b00      	cmp	r3, #0
  40434c:	f040 80c4 	bne.w	4044d8 <_svfprintf_r+0x10c8>
  404350:	930a      	str	r3, [sp, #40]	; 0x28
  404352:	f89d 7077 	ldrb.w	r7, [sp, #119]	; 0x77
  404356:	f7ff b973 	b.w	403640 <_svfprintf_r+0x230>
  40435a:	4635      	mov	r5, r6
  40435c:	460c      	mov	r4, r1
  40435e:	4646      	mov	r6, r8
  404360:	4690      	mov	r8, r2
  404362:	3301      	adds	r3, #1
  404364:	443c      	add	r4, r7
  404366:	2b07      	cmp	r3, #7
  404368:	9427      	str	r4, [sp, #156]	; 0x9c
  40436a:	9326      	str	r3, [sp, #152]	; 0x98
  40436c:	e888 00a0 	stmia.w	r8, {r5, r7}
  404370:	f73f aed1 	bgt.w	404116 <_svfprintf_r+0xd06>
  404374:	f108 0808 	add.w	r8, r8, #8
  404378:	e6d7      	b.n	40412a <_svfprintf_r+0xd1a>
  40437a:	9a0f      	ldr	r2, [sp, #60]	; 0x3c
  40437c:	6813      	ldr	r3, [r2, #0]
  40437e:	3204      	adds	r2, #4
  404380:	920f      	str	r2, [sp, #60]	; 0x3c
  404382:	9a09      	ldr	r2, [sp, #36]	; 0x24
  404384:	601a      	str	r2, [r3, #0]
  404386:	f7ff b86a 	b.w	40345e <_svfprintf_r+0x4e>
  40438a:	aa25      	add	r2, sp, #148	; 0x94
  40438c:	990b      	ldr	r1, [sp, #44]	; 0x2c
  40438e:	980c      	ldr	r0, [sp, #48]	; 0x30
  404390:	f002 f9a4 	bl	4066dc <__ssprint_r>
  404394:	2800      	cmp	r0, #0
  404396:	f47f a90d 	bne.w	4035b4 <_svfprintf_r+0x1a4>
  40439a:	46c8      	mov	r8, r9
  40439c:	e48d      	b.n	403cba <_svfprintf_r+0x8aa>
  40439e:	9b26      	ldr	r3, [sp, #152]	; 0x98
  4043a0:	4a27      	ldr	r2, [pc, #156]	; (404440 <_svfprintf_r+0x1030>)
  4043a2:	f8c8 2000 	str.w	r2, [r8]
  4043a6:	3301      	adds	r3, #1
  4043a8:	3401      	adds	r4, #1
  4043aa:	2201      	movs	r2, #1
  4043ac:	2b07      	cmp	r3, #7
  4043ae:	9427      	str	r4, [sp, #156]	; 0x9c
  4043b0:	9326      	str	r3, [sp, #152]	; 0x98
  4043b2:	f8c8 2004 	str.w	r2, [r8, #4]
  4043b6:	dc72      	bgt.n	40449e <_svfprintf_r+0x108e>
  4043b8:	f108 0808 	add.w	r8, r8, #8
  4043bc:	b929      	cbnz	r1, 4043ca <_svfprintf_r+0xfba>
  4043be:	9b13      	ldr	r3, [sp, #76]	; 0x4c
  4043c0:	b91b      	cbnz	r3, 4043ca <_svfprintf_r+0xfba>
  4043c2:	9b07      	ldr	r3, [sp, #28]
  4043c4:	07d8      	lsls	r0, r3, #31
  4043c6:	f57f aa03 	bpl.w	4037d0 <_svfprintf_r+0x3c0>
  4043ca:	9b26      	ldr	r3, [sp, #152]	; 0x98
  4043cc:	9819      	ldr	r0, [sp, #100]	; 0x64
  4043ce:	9a1a      	ldr	r2, [sp, #104]	; 0x68
  4043d0:	f8c8 2000 	str.w	r2, [r8]
  4043d4:	3301      	adds	r3, #1
  4043d6:	4602      	mov	r2, r0
  4043d8:	4422      	add	r2, r4
  4043da:	2b07      	cmp	r3, #7
  4043dc:	9227      	str	r2, [sp, #156]	; 0x9c
  4043de:	f8c8 0004 	str.w	r0, [r8, #4]
  4043e2:	9326      	str	r3, [sp, #152]	; 0x98
  4043e4:	f300 818d 	bgt.w	404702 <_svfprintf_r+0x12f2>
  4043e8:	f108 0808 	add.w	r8, r8, #8
  4043ec:	2900      	cmp	r1, #0
  4043ee:	f2c0 8165 	blt.w	4046bc <_svfprintf_r+0x12ac>
  4043f2:	9913      	ldr	r1, [sp, #76]	; 0x4c
  4043f4:	f8c8 6000 	str.w	r6, [r8]
  4043f8:	3301      	adds	r3, #1
  4043fa:	188c      	adds	r4, r1, r2
  4043fc:	2b07      	cmp	r3, #7
  4043fe:	9427      	str	r4, [sp, #156]	; 0x9c
  404400:	9326      	str	r3, [sp, #152]	; 0x98
  404402:	f8c8 1004 	str.w	r1, [r8, #4]
  404406:	f77f a9e1 	ble.w	4037cc <_svfprintf_r+0x3bc>
  40440a:	e52c      	b.n	403e66 <_svfprintf_r+0xa56>
  40440c:	9a0f      	ldr	r2, [sp, #60]	; 0x3c
  40440e:	9909      	ldr	r1, [sp, #36]	; 0x24
  404410:	6813      	ldr	r3, [r2, #0]
  404412:	17cd      	asrs	r5, r1, #31
  404414:	4608      	mov	r0, r1
  404416:	3204      	adds	r2, #4
  404418:	4629      	mov	r1, r5
  40441a:	920f      	str	r2, [sp, #60]	; 0x3c
  40441c:	e9c3 0100 	strd	r0, r1, [r3]
  404420:	f7ff b81d 	b.w	40345e <_svfprintf_r+0x4e>
  404424:	aa25      	add	r2, sp, #148	; 0x94
  404426:	990b      	ldr	r1, [sp, #44]	; 0x2c
  404428:	980c      	ldr	r0, [sp, #48]	; 0x30
  40442a:	f002 f957 	bl	4066dc <__ssprint_r>
  40442e:	2800      	cmp	r0, #0
  404430:	f47f a8c0 	bne.w	4035b4 <_svfprintf_r+0x1a4>
  404434:	9c27      	ldr	r4, [sp, #156]	; 0x9c
  404436:	46c8      	mov	r8, r9
  404438:	e458      	b.n	403cec <_svfprintf_r+0x8dc>
  40443a:	bf00      	nop
  40443c:	00408390 	.word	0x00408390
  404440:	0040837c 	.word	0x0040837c
  404444:	2140      	movs	r1, #64	; 0x40
  404446:	980c      	ldr	r0, [sp, #48]	; 0x30
  404448:	f001 fa0c 	bl	405864 <_malloc_r>
  40444c:	9a0b      	ldr	r2, [sp, #44]	; 0x2c
  40444e:	6010      	str	r0, [r2, #0]
  404450:	6110      	str	r0, [r2, #16]
  404452:	2800      	cmp	r0, #0
  404454:	f000 81f2 	beq.w	40483c <_svfprintf_r+0x142c>
  404458:	9a0b      	ldr	r2, [sp, #44]	; 0x2c
  40445a:	2340      	movs	r3, #64	; 0x40
  40445c:	6153      	str	r3, [r2, #20]
  40445e:	f7fe bfee 	b.w	40343e <_svfprintf_r+0x2e>
  404462:	a823      	add	r0, sp, #140	; 0x8c
  404464:	a920      	add	r1, sp, #128	; 0x80
  404466:	9c0a      	ldr	r4, [sp, #40]	; 0x28
  404468:	9004      	str	r0, [sp, #16]
  40446a:	9103      	str	r1, [sp, #12]
  40446c:	a81f      	add	r0, sp, #124	; 0x7c
  40446e:	2103      	movs	r1, #3
  404470:	9002      	str	r0, [sp, #8]
  404472:	9a08      	ldr	r2, [sp, #32]
  404474:	9401      	str	r4, [sp, #4]
  404476:	463b      	mov	r3, r7
  404478:	9100      	str	r1, [sp, #0]
  40447a:	980c      	ldr	r0, [sp, #48]	; 0x30
  40447c:	f000 fa9c 	bl	4049b8 <_dtoa_r>
  404480:	4625      	mov	r5, r4
  404482:	4606      	mov	r6, r0
  404484:	9b11      	ldr	r3, [sp, #68]	; 0x44
  404486:	2b46      	cmp	r3, #70	; 0x46
  404488:	eb06 0405 	add.w	r4, r6, r5
  40448c:	f47f af29 	bne.w	4042e2 <_svfprintf_r+0xed2>
  404490:	7833      	ldrb	r3, [r6, #0]
  404492:	2b30      	cmp	r3, #48	; 0x30
  404494:	f000 8178 	beq.w	404788 <_svfprintf_r+0x1378>
  404498:	9d1f      	ldr	r5, [sp, #124]	; 0x7c
  40449a:	442c      	add	r4, r5
  40449c:	e721      	b.n	4042e2 <_svfprintf_r+0xed2>
  40449e:	aa25      	add	r2, sp, #148	; 0x94
  4044a0:	990b      	ldr	r1, [sp, #44]	; 0x2c
  4044a2:	980c      	ldr	r0, [sp, #48]	; 0x30
  4044a4:	f002 f91a 	bl	4066dc <__ssprint_r>
  4044a8:	2800      	cmp	r0, #0
  4044aa:	f47f a883 	bne.w	4035b4 <_svfprintf_r+0x1a4>
  4044ae:	991f      	ldr	r1, [sp, #124]	; 0x7c
  4044b0:	9c27      	ldr	r4, [sp, #156]	; 0x9c
  4044b2:	46c8      	mov	r8, r9
  4044b4:	e782      	b.n	4043bc <_svfprintf_r+0xfac>
  4044b6:	9b0a      	ldr	r3, [sp, #40]	; 0x28
  4044b8:	2b00      	cmp	r3, #0
  4044ba:	bf08      	it	eq
  4044bc:	2301      	moveq	r3, #1
  4044be:	930a      	str	r3, [sp, #40]	; 0x28
  4044c0:	e6db      	b.n	40427a <_svfprintf_r+0xe6a>
  4044c2:	4630      	mov	r0, r6
  4044c4:	940a      	str	r4, [sp, #40]	; 0x28
  4044c6:	f002 f89b 	bl	406600 <strlen>
  4044ca:	950f      	str	r5, [sp, #60]	; 0x3c
  4044cc:	900e      	str	r0, [sp, #56]	; 0x38
  4044ce:	f8cd b01c 	str.w	fp, [sp, #28]
  4044d2:	4603      	mov	r3, r0
  4044d4:	f7ff b9f9 	b.w	4038ca <_svfprintf_r+0x4ba>
  4044d8:	272d      	movs	r7, #45	; 0x2d
  4044da:	2300      	movs	r3, #0
  4044dc:	f88d 7077 	strb.w	r7, [sp, #119]	; 0x77
  4044e0:	930a      	str	r3, [sp, #40]	; 0x28
  4044e2:	f7ff b8ae 	b.w	403642 <_svfprintf_r+0x232>
  4044e6:	9b1f      	ldr	r3, [sp, #124]	; 0x7c
  4044e8:	9312      	str	r3, [sp, #72]	; 0x48
  4044ea:	461a      	mov	r2, r3
  4044ec:	3303      	adds	r3, #3
  4044ee:	db04      	blt.n	4044fa <_svfprintf_r+0x10ea>
  4044f0:	9b0a      	ldr	r3, [sp, #40]	; 0x28
  4044f2:	4619      	mov	r1, r3
  4044f4:	4291      	cmp	r1, r2
  4044f6:	f6bf af17 	bge.w	404328 <_svfprintf_r+0xf18>
  4044fa:	9b11      	ldr	r3, [sp, #68]	; 0x44
  4044fc:	3b02      	subs	r3, #2
  4044fe:	9311      	str	r3, [sp, #68]	; 0x44
  404500:	f89d 3044 	ldrb.w	r3, [sp, #68]	; 0x44
  404504:	f88d 3084 	strb.w	r3, [sp, #132]	; 0x84
  404508:	9b12      	ldr	r3, [sp, #72]	; 0x48
  40450a:	3b01      	subs	r3, #1
  40450c:	2b00      	cmp	r3, #0
  40450e:	931f      	str	r3, [sp, #124]	; 0x7c
  404510:	bfbd      	ittte	lt
  404512:	9b12      	ldrlt	r3, [sp, #72]	; 0x48
  404514:	f1c3 0301 	rsblt	r3, r3, #1
  404518:	222d      	movlt	r2, #45	; 0x2d
  40451a:	222b      	movge	r2, #43	; 0x2b
  40451c:	2b09      	cmp	r3, #9
  40451e:	f88d 2085 	strb.w	r2, [sp, #133]	; 0x85
  404522:	f340 8116 	ble.w	404752 <_svfprintf_r+0x1342>
  404526:	f10d 0493 	add.w	r4, sp, #147	; 0x93
  40452a:	4620      	mov	r0, r4
  40452c:	4dab      	ldr	r5, [pc, #684]	; (4047dc <_svfprintf_r+0x13cc>)
  40452e:	e000      	b.n	404532 <_svfprintf_r+0x1122>
  404530:	4610      	mov	r0, r2
  404532:	fb85 1203 	smull	r1, r2, r5, r3
  404536:	17d9      	asrs	r1, r3, #31
  404538:	ebc1 01a2 	rsb	r1, r1, r2, asr #2
  40453c:	eb01 0281 	add.w	r2, r1, r1, lsl #2
  404540:	eba3 0242 	sub.w	r2, r3, r2, lsl #1
  404544:	3230      	adds	r2, #48	; 0x30
  404546:	2909      	cmp	r1, #9
  404548:	f800 2c01 	strb.w	r2, [r0, #-1]
  40454c:	460b      	mov	r3, r1
  40454e:	f100 32ff 	add.w	r2, r0, #4294967295
  404552:	dced      	bgt.n	404530 <_svfprintf_r+0x1120>
  404554:	3330      	adds	r3, #48	; 0x30
  404556:	3802      	subs	r0, #2
  404558:	b2d9      	uxtb	r1, r3
  40455a:	4284      	cmp	r4, r0
  40455c:	f802 1c01 	strb.w	r1, [r2, #-1]
  404560:	f240 8165 	bls.w	40482e <_svfprintf_r+0x141e>
  404564:	f10d 0086 	add.w	r0, sp, #134	; 0x86
  404568:	4613      	mov	r3, r2
  40456a:	e001      	b.n	404570 <_svfprintf_r+0x1160>
  40456c:	f813 1b01 	ldrb.w	r1, [r3], #1
  404570:	f800 1b01 	strb.w	r1, [r0], #1
  404574:	42a3      	cmp	r3, r4
  404576:	d1f9      	bne.n	40456c <_svfprintf_r+0x115c>
  404578:	3301      	adds	r3, #1
  40457a:	1a9b      	subs	r3, r3, r2
  40457c:	f10d 0286 	add.w	r2, sp, #134	; 0x86
  404580:	4413      	add	r3, r2
  404582:	aa21      	add	r2, sp, #132	; 0x84
  404584:	1a9b      	subs	r3, r3, r2
  404586:	9a13      	ldr	r2, [sp, #76]	; 0x4c
  404588:	931b      	str	r3, [sp, #108]	; 0x6c
  40458a:	2a01      	cmp	r2, #1
  40458c:	4413      	add	r3, r2
  40458e:	930e      	str	r3, [sp, #56]	; 0x38
  404590:	f340 8119 	ble.w	4047c6 <_svfprintf_r+0x13b6>
  404594:	9b0e      	ldr	r3, [sp, #56]	; 0x38
  404596:	9a19      	ldr	r2, [sp, #100]	; 0x64
  404598:	4413      	add	r3, r2
  40459a:	930e      	str	r3, [sp, #56]	; 0x38
  40459c:	ea23 73e3 	bic.w	r3, r3, r3, asr #31
  4045a0:	9308      	str	r3, [sp, #32]
  4045a2:	2300      	movs	r3, #0
  4045a4:	9312      	str	r3, [sp, #72]	; 0x48
  4045a6:	e6cf      	b.n	404348 <_svfprintf_r+0xf38>
  4045a8:	aa25      	add	r2, sp, #148	; 0x94
  4045aa:	990b      	ldr	r1, [sp, #44]	; 0x2c
  4045ac:	980c      	ldr	r0, [sp, #48]	; 0x30
  4045ae:	f002 f895 	bl	4066dc <__ssprint_r>
  4045b2:	2800      	cmp	r0, #0
  4045b4:	f47e affe 	bne.w	4035b4 <_svfprintf_r+0x1a4>
  4045b8:	9c27      	ldr	r4, [sp, #156]	; 0x9c
  4045ba:	46c8      	mov	r8, r9
  4045bc:	e4d7      	b.n	403f6e <_svfprintf_r+0xb5e>
  4045be:	4623      	mov	r3, r4
  4045c0:	e6a2      	b.n	404308 <_svfprintf_r+0xef8>
  4045c2:	aa25      	add	r2, sp, #148	; 0x94
  4045c4:	990b      	ldr	r1, [sp, #44]	; 0x2c
  4045c6:	980c      	ldr	r0, [sp, #48]	; 0x30
  4045c8:	f002 f888 	bl	4066dc <__ssprint_r>
  4045cc:	2800      	cmp	r0, #0
  4045ce:	f47e aff1 	bne.w	4035b4 <_svfprintf_r+0x1a4>
  4045d2:	9a1f      	ldr	r2, [sp, #124]	; 0x7c
  4045d4:	9c27      	ldr	r4, [sp, #156]	; 0x9c
  4045d6:	46c8      	mov	r8, r9
  4045d8:	e5ae      	b.n	404138 <_svfprintf_r+0xd28>
  4045da:	aa25      	add	r2, sp, #148	; 0x94
  4045dc:	990b      	ldr	r1, [sp, #44]	; 0x2c
  4045de:	980c      	ldr	r0, [sp, #48]	; 0x30
  4045e0:	f002 f87c 	bl	4066dc <__ssprint_r>
  4045e4:	2800      	cmp	r0, #0
  4045e6:	f47e afe5 	bne.w	4035b4 <_svfprintf_r+0x1a4>
  4045ea:	9a1f      	ldr	r2, [sp, #124]	; 0x7c
  4045ec:	9b13      	ldr	r3, [sp, #76]	; 0x4c
  4045ee:	9c27      	ldr	r4, [sp, #156]	; 0x9c
  4045f0:	1a9a      	subs	r2, r3, r2
  4045f2:	46c8      	mov	r8, r9
  4045f4:	e5b8      	b.n	404168 <_svfprintf_r+0xd58>
  4045f6:	9b0a      	ldr	r3, [sp, #40]	; 0x28
  4045f8:	9612      	str	r6, [sp, #72]	; 0x48
  4045fa:	2b06      	cmp	r3, #6
  4045fc:	bf28      	it	cs
  4045fe:	2306      	movcs	r3, #6
  404600:	960a      	str	r6, [sp, #40]	; 0x28
  404602:	4637      	mov	r7, r6
  404604:	9308      	str	r3, [sp, #32]
  404606:	950f      	str	r5, [sp, #60]	; 0x3c
  404608:	f8cd b01c 	str.w	fp, [sp, #28]
  40460c:	930e      	str	r3, [sp, #56]	; 0x38
  40460e:	4e74      	ldr	r6, [pc, #464]	; (4047e0 <_svfprintf_r+0x13d0>)
  404610:	f7ff b816 	b.w	403640 <_svfprintf_r+0x230>
  404614:	a823      	add	r0, sp, #140	; 0x8c
  404616:	a920      	add	r1, sp, #128	; 0x80
  404618:	9d0a      	ldr	r5, [sp, #40]	; 0x28
  40461a:	9004      	str	r0, [sp, #16]
  40461c:	9103      	str	r1, [sp, #12]
  40461e:	a81f      	add	r0, sp, #124	; 0x7c
  404620:	2103      	movs	r1, #3
  404622:	9002      	str	r0, [sp, #8]
  404624:	9a08      	ldr	r2, [sp, #32]
  404626:	9501      	str	r5, [sp, #4]
  404628:	463b      	mov	r3, r7
  40462a:	9100      	str	r1, [sp, #0]
  40462c:	980c      	ldr	r0, [sp, #48]	; 0x30
  40462e:	f000 f9c3 	bl	4049b8 <_dtoa_r>
  404632:	4606      	mov	r6, r0
  404634:	1944      	adds	r4, r0, r5
  404636:	e72b      	b.n	404490 <_svfprintf_r+0x1080>
  404638:	2306      	movs	r3, #6
  40463a:	930a      	str	r3, [sp, #40]	; 0x28
  40463c:	e61d      	b.n	40427a <_svfprintf_r+0xe6a>
  40463e:	272d      	movs	r7, #45	; 0x2d
  404640:	f88d 7077 	strb.w	r7, [sp, #119]	; 0x77
  404644:	f7ff bacd 	b.w	403be2 <_svfprintf_r+0x7d2>
  404648:	9a19      	ldr	r2, [sp, #100]	; 0x64
  40464a:	9b13      	ldr	r3, [sp, #76]	; 0x4c
  40464c:	4413      	add	r3, r2
  40464e:	9a12      	ldr	r2, [sp, #72]	; 0x48
  404650:	930e      	str	r3, [sp, #56]	; 0x38
  404652:	2a00      	cmp	r2, #0
  404654:	f340 80b0 	ble.w	4047b8 <_svfprintf_r+0x13a8>
  404658:	ea23 73e3 	bic.w	r3, r3, r3, asr #31
  40465c:	9308      	str	r3, [sp, #32]
  40465e:	2367      	movs	r3, #103	; 0x67
  404660:	9311      	str	r3, [sp, #68]	; 0x44
  404662:	e671      	b.n	404348 <_svfprintf_r+0xf38>
  404664:	2b00      	cmp	r3, #0
  404666:	f340 80c3 	ble.w	4047f0 <_svfprintf_r+0x13e0>
  40466a:	9a0a      	ldr	r2, [sp, #40]	; 0x28
  40466c:	2a00      	cmp	r2, #0
  40466e:	f040 8099 	bne.w	4047a4 <_svfprintf_r+0x1394>
  404672:	f01b 0f01 	tst.w	fp, #1
  404676:	f040 8095 	bne.w	4047a4 <_svfprintf_r+0x1394>
  40467a:	9308      	str	r3, [sp, #32]
  40467c:	930e      	str	r3, [sp, #56]	; 0x38
  40467e:	e663      	b.n	404348 <_svfprintf_r+0xf38>
  404680:	9b0a      	ldr	r3, [sp, #40]	; 0x28
  404682:	9308      	str	r3, [sp, #32]
  404684:	930e      	str	r3, [sp, #56]	; 0x38
  404686:	900a      	str	r0, [sp, #40]	; 0x28
  404688:	950f      	str	r5, [sp, #60]	; 0x3c
  40468a:	f8cd b01c 	str.w	fp, [sp, #28]
  40468e:	9012      	str	r0, [sp, #72]	; 0x48
  404690:	f89d 7077 	ldrb.w	r7, [sp, #119]	; 0x77
  404694:	f7fe bfd4 	b.w	403640 <_svfprintf_r+0x230>
  404698:	9b11      	ldr	r3, [sp, #68]	; 0x44
  40469a:	2b47      	cmp	r3, #71	; 0x47
  40469c:	f47f ae20 	bne.w	4042e0 <_svfprintf_r+0xed0>
  4046a0:	f01b 0f01 	tst.w	fp, #1
  4046a4:	f47f aeee 	bne.w	404484 <_svfprintf_r+0x1074>
  4046a8:	9b23      	ldr	r3, [sp, #140]	; 0x8c
  4046aa:	1b9b      	subs	r3, r3, r6
  4046ac:	9313      	str	r3, [sp, #76]	; 0x4c
  4046ae:	9b0e      	ldr	r3, [sp, #56]	; 0x38
  4046b0:	2b47      	cmp	r3, #71	; 0x47
  4046b2:	f43f af18 	beq.w	4044e6 <_svfprintf_r+0x10d6>
  4046b6:	9b1f      	ldr	r3, [sp, #124]	; 0x7c
  4046b8:	9312      	str	r3, [sp, #72]	; 0x48
  4046ba:	e721      	b.n	404500 <_svfprintf_r+0x10f0>
  4046bc:	424f      	negs	r7, r1
  4046be:	3110      	adds	r1, #16
  4046c0:	4d48      	ldr	r5, [pc, #288]	; (4047e4 <_svfprintf_r+0x13d4>)
  4046c2:	da2f      	bge.n	404724 <_svfprintf_r+0x1314>
  4046c4:	2410      	movs	r4, #16
  4046c6:	f8dd b030 	ldr.w	fp, [sp, #48]	; 0x30
  4046ca:	e004      	b.n	4046d6 <_svfprintf_r+0x12c6>
  4046cc:	f108 0808 	add.w	r8, r8, #8
  4046d0:	3f10      	subs	r7, #16
  4046d2:	2f10      	cmp	r7, #16
  4046d4:	dd26      	ble.n	404724 <_svfprintf_r+0x1314>
  4046d6:	3301      	adds	r3, #1
  4046d8:	3210      	adds	r2, #16
  4046da:	2b07      	cmp	r3, #7
  4046dc:	9227      	str	r2, [sp, #156]	; 0x9c
  4046de:	9326      	str	r3, [sp, #152]	; 0x98
  4046e0:	f8c8 5000 	str.w	r5, [r8]
  4046e4:	f8c8 4004 	str.w	r4, [r8, #4]
  4046e8:	ddf0      	ble.n	4046cc <_svfprintf_r+0x12bc>
  4046ea:	aa25      	add	r2, sp, #148	; 0x94
  4046ec:	990b      	ldr	r1, [sp, #44]	; 0x2c
  4046ee:	4658      	mov	r0, fp
  4046f0:	f001 fff4 	bl	4066dc <__ssprint_r>
  4046f4:	2800      	cmp	r0, #0
  4046f6:	f47e af5d 	bne.w	4035b4 <_svfprintf_r+0x1a4>
  4046fa:	9a27      	ldr	r2, [sp, #156]	; 0x9c
  4046fc:	9b26      	ldr	r3, [sp, #152]	; 0x98
  4046fe:	46c8      	mov	r8, r9
  404700:	e7e6      	b.n	4046d0 <_svfprintf_r+0x12c0>
  404702:	aa25      	add	r2, sp, #148	; 0x94
  404704:	990b      	ldr	r1, [sp, #44]	; 0x2c
  404706:	980c      	ldr	r0, [sp, #48]	; 0x30
  404708:	f001 ffe8 	bl	4066dc <__ssprint_r>
  40470c:	2800      	cmp	r0, #0
  40470e:	f47e af51 	bne.w	4035b4 <_svfprintf_r+0x1a4>
  404712:	991f      	ldr	r1, [sp, #124]	; 0x7c
  404714:	9a27      	ldr	r2, [sp, #156]	; 0x9c
  404716:	9b26      	ldr	r3, [sp, #152]	; 0x98
  404718:	46c8      	mov	r8, r9
  40471a:	e667      	b.n	4043ec <_svfprintf_r+0xfdc>
  40471c:	2000      	movs	r0, #0
  40471e:	900a      	str	r0, [sp, #40]	; 0x28
  404720:	f7fe bed0 	b.w	4034c4 <_svfprintf_r+0xb4>
  404724:	3301      	adds	r3, #1
  404726:	443a      	add	r2, r7
  404728:	2b07      	cmp	r3, #7
  40472a:	e888 00a0 	stmia.w	r8, {r5, r7}
  40472e:	9227      	str	r2, [sp, #156]	; 0x9c
  404730:	9326      	str	r3, [sp, #152]	; 0x98
  404732:	f108 0808 	add.w	r8, r8, #8
  404736:	f77f ae5c 	ble.w	4043f2 <_svfprintf_r+0xfe2>
  40473a:	aa25      	add	r2, sp, #148	; 0x94
  40473c:	990b      	ldr	r1, [sp, #44]	; 0x2c
  40473e:	980c      	ldr	r0, [sp, #48]	; 0x30
  404740:	f001 ffcc 	bl	4066dc <__ssprint_r>
  404744:	2800      	cmp	r0, #0
  404746:	f47e af35 	bne.w	4035b4 <_svfprintf_r+0x1a4>
  40474a:	9a27      	ldr	r2, [sp, #156]	; 0x9c
  40474c:	9b26      	ldr	r3, [sp, #152]	; 0x98
  40474e:	46c8      	mov	r8, r9
  404750:	e64f      	b.n	4043f2 <_svfprintf_r+0xfe2>
  404752:	3330      	adds	r3, #48	; 0x30
  404754:	2230      	movs	r2, #48	; 0x30
  404756:	f88d 3087 	strb.w	r3, [sp, #135]	; 0x87
  40475a:	f88d 2086 	strb.w	r2, [sp, #134]	; 0x86
  40475e:	ab22      	add	r3, sp, #136	; 0x88
  404760:	e70f      	b.n	404582 <_svfprintf_r+0x1172>
  404762:	9b12      	ldr	r3, [sp, #72]	; 0x48
  404764:	9a19      	ldr	r2, [sp, #100]	; 0x64
  404766:	4413      	add	r3, r2
  404768:	930e      	str	r3, [sp, #56]	; 0x38
  40476a:	e775      	b.n	404658 <_svfprintf_r+0x1248>
  40476c:	9b23      	ldr	r3, [sp, #140]	; 0x8c
  40476e:	e5cb      	b.n	404308 <_svfprintf_r+0xef8>
  404770:	9b14      	ldr	r3, [sp, #80]	; 0x50
  404772:	4e1d      	ldr	r6, [pc, #116]	; (4047e8 <_svfprintf_r+0x13d8>)
  404774:	2b00      	cmp	r3, #0
  404776:	bfb6      	itet	lt
  404778:	272d      	movlt	r7, #45	; 0x2d
  40477a:	f89d 7077 	ldrbge.w	r7, [sp, #119]	; 0x77
  40477e:	f88d 7077 	strblt.w	r7, [sp, #119]	; 0x77
  404782:	4b1a      	ldr	r3, [pc, #104]	; (4047ec <_svfprintf_r+0x13dc>)
  404784:	f7ff ba2f 	b.w	403be6 <_svfprintf_r+0x7d6>
  404788:	9a16      	ldr	r2, [sp, #88]	; 0x58
  40478a:	9808      	ldr	r0, [sp, #32]
  40478c:	9b17      	ldr	r3, [sp, #92]	; 0x5c
  40478e:	4639      	mov	r1, r7
  404790:	f003 f838 	bl	407804 <__aeabi_dcmpeq>
  404794:	2800      	cmp	r0, #0
  404796:	f47f ae7f 	bne.w	404498 <_svfprintf_r+0x1088>
  40479a:	f1c5 0501 	rsb	r5, r5, #1
  40479e:	951f      	str	r5, [sp, #124]	; 0x7c
  4047a0:	442c      	add	r4, r5
  4047a2:	e59e      	b.n	4042e2 <_svfprintf_r+0xed2>
  4047a4:	9b12      	ldr	r3, [sp, #72]	; 0x48
  4047a6:	9a19      	ldr	r2, [sp, #100]	; 0x64
  4047a8:	4413      	add	r3, r2
  4047aa:	9a0a      	ldr	r2, [sp, #40]	; 0x28
  4047ac:	441a      	add	r2, r3
  4047ae:	ea22 73e2 	bic.w	r3, r2, r2, asr #31
  4047b2:	920e      	str	r2, [sp, #56]	; 0x38
  4047b4:	9308      	str	r3, [sp, #32]
  4047b6:	e5c7      	b.n	404348 <_svfprintf_r+0xf38>
  4047b8:	9b12      	ldr	r3, [sp, #72]	; 0x48
  4047ba:	9a0e      	ldr	r2, [sp, #56]	; 0x38
  4047bc:	f1c3 0301 	rsb	r3, r3, #1
  4047c0:	441a      	add	r2, r3
  4047c2:	4613      	mov	r3, r2
  4047c4:	e7d0      	b.n	404768 <_svfprintf_r+0x1358>
  4047c6:	f01b 0301 	ands.w	r3, fp, #1
  4047ca:	9312      	str	r3, [sp, #72]	; 0x48
  4047cc:	f47f aee2 	bne.w	404594 <_svfprintf_r+0x1184>
  4047d0:	9b0e      	ldr	r3, [sp, #56]	; 0x38
  4047d2:	ea23 73e3 	bic.w	r3, r3, r3, asr #31
  4047d6:	9308      	str	r3, [sp, #32]
  4047d8:	e5b6      	b.n	404348 <_svfprintf_r+0xf38>
  4047da:	bf00      	nop
  4047dc:	66666667 	.word	0x66666667
  4047e0:	00408374 	.word	0x00408374
  4047e4:	00408390 	.word	0x00408390
  4047e8:	00408348 	.word	0x00408348
  4047ec:	00408344 	.word	0x00408344
  4047f0:	9b0a      	ldr	r3, [sp, #40]	; 0x28
  4047f2:	b913      	cbnz	r3, 4047fa <_svfprintf_r+0x13ea>
  4047f4:	f01b 0f01 	tst.w	fp, #1
  4047f8:	d002      	beq.n	404800 <_svfprintf_r+0x13f0>
  4047fa:	9b19      	ldr	r3, [sp, #100]	; 0x64
  4047fc:	3301      	adds	r3, #1
  4047fe:	e7d4      	b.n	4047aa <_svfprintf_r+0x139a>
  404800:	2301      	movs	r3, #1
  404802:	e73a      	b.n	40467a <_svfprintf_r+0x126a>
  404804:	9d0f      	ldr	r5, [sp, #60]	; 0x3c
  404806:	f89a 3001 	ldrb.w	r3, [sl, #1]
  40480a:	6828      	ldr	r0, [r5, #0]
  40480c:	ea40 70e0 	orr.w	r0, r0, r0, asr #31
  404810:	900a      	str	r0, [sp, #40]	; 0x28
  404812:	4628      	mov	r0, r5
  404814:	3004      	adds	r0, #4
  404816:	46a2      	mov	sl, r4
  404818:	900f      	str	r0, [sp, #60]	; 0x3c
  40481a:	f7fe be51 	b.w	4034c0 <_svfprintf_r+0xb0>
  40481e:	f88d 1077 	strb.w	r1, [sp, #119]	; 0x77
  404822:	f7ff b867 	b.w	4038f4 <_svfprintf_r+0x4e4>
  404826:	f88d 1077 	strb.w	r1, [sp, #119]	; 0x77
  40482a:	f7ff ba15 	b.w	403c58 <_svfprintf_r+0x848>
  40482e:	f10d 0386 	add.w	r3, sp, #134	; 0x86
  404832:	e6a6      	b.n	404582 <_svfprintf_r+0x1172>
  404834:	f88d 1077 	strb.w	r1, [sp, #119]	; 0x77
  404838:	f7ff b8eb 	b.w	403a12 <_svfprintf_r+0x602>
  40483c:	9a0c      	ldr	r2, [sp, #48]	; 0x30
  40483e:	230c      	movs	r3, #12
  404840:	6013      	str	r3, [r2, #0]
  404842:	f04f 33ff 	mov.w	r3, #4294967295
  404846:	9309      	str	r3, [sp, #36]	; 0x24
  404848:	f7fe bebd 	b.w	4035c6 <_svfprintf_r+0x1b6>
  40484c:	f88d 1077 	strb.w	r1, [sp, #119]	; 0x77
  404850:	f7ff b99a 	b.w	403b88 <_svfprintf_r+0x778>
  404854:	f88d 1077 	strb.w	r1, [sp, #119]	; 0x77
  404858:	f7ff b976 	b.w	403b48 <_svfprintf_r+0x738>
  40485c:	f88d 1077 	strb.w	r1, [sp, #119]	; 0x77
  404860:	f7ff b959 	b.w	403b16 <_svfprintf_r+0x706>
  404864:	f88d 1077 	strb.w	r1, [sp, #119]	; 0x77
  404868:	f7ff b912 	b.w	403a90 <_svfprintf_r+0x680>

0040486c <register_fini>:
  40486c:	4b02      	ldr	r3, [pc, #8]	; (404878 <register_fini+0xc>)
  40486e:	b113      	cbz	r3, 404876 <register_fini+0xa>
  404870:	4802      	ldr	r0, [pc, #8]	; (40487c <register_fini+0x10>)
  404872:	f000 b805 	b.w	404880 <atexit>
  404876:	4770      	bx	lr
  404878:	00000000 	.word	0x00000000
  40487c:	0040580d 	.word	0x0040580d

00404880 <atexit>:
  404880:	2300      	movs	r3, #0
  404882:	4601      	mov	r1, r0
  404884:	461a      	mov	r2, r3
  404886:	4618      	mov	r0, r3
  404888:	f001 bfa6 	b.w	4067d8 <__register_exitproc>

0040488c <quorem>:
  40488c:	6902      	ldr	r2, [r0, #16]
  40488e:	690b      	ldr	r3, [r1, #16]
  404890:	4293      	cmp	r3, r2
  404892:	f300 808d 	bgt.w	4049b0 <quorem+0x124>
  404896:	e92d 4ff0 	stmdb	sp!, {r4, r5, r6, r7, r8, r9, sl, fp, lr}
  40489a:	f103 38ff 	add.w	r8, r3, #4294967295
  40489e:	f101 0714 	add.w	r7, r1, #20
  4048a2:	f100 0b14 	add.w	fp, r0, #20
  4048a6:	f857 2028 	ldr.w	r2, [r7, r8, lsl #2]
  4048aa:	f85b 3028 	ldr.w	r3, [fp, r8, lsl #2]
  4048ae:	ea4f 0488 	mov.w	r4, r8, lsl #2
  4048b2:	b083      	sub	sp, #12
  4048b4:	3201      	adds	r2, #1
  4048b6:	fbb3 f9f2 	udiv	r9, r3, r2
  4048ba:	eb0b 0304 	add.w	r3, fp, r4
  4048be:	9400      	str	r4, [sp, #0]
  4048c0:	eb07 0a04 	add.w	sl, r7, r4
  4048c4:	9301      	str	r3, [sp, #4]
  4048c6:	f1b9 0f00 	cmp.w	r9, #0
  4048ca:	d039      	beq.n	404940 <quorem+0xb4>
  4048cc:	2500      	movs	r5, #0
  4048ce:	462e      	mov	r6, r5
  4048d0:	46bc      	mov	ip, r7
  4048d2:	46de      	mov	lr, fp
  4048d4:	f85c 4b04 	ldr.w	r4, [ip], #4
  4048d8:	f8de 3000 	ldr.w	r3, [lr]
  4048dc:	b2a2      	uxth	r2, r4
  4048de:	fb09 5502 	mla	r5, r9, r2, r5
  4048e2:	0c22      	lsrs	r2, r4, #16
  4048e4:	0c2c      	lsrs	r4, r5, #16
  4048e6:	fb09 4202 	mla	r2, r9, r2, r4
  4048ea:	b2ad      	uxth	r5, r5
  4048ec:	1b75      	subs	r5, r6, r5
  4048ee:	b296      	uxth	r6, r2
  4048f0:	ebc6 4613 	rsb	r6, r6, r3, lsr #16
  4048f4:	fa15 f383 	uxtah	r3, r5, r3
  4048f8:	eb06 4623 	add.w	r6, r6, r3, asr #16
  4048fc:	b29b      	uxth	r3, r3
  4048fe:	ea43 4306 	orr.w	r3, r3, r6, lsl #16
  404902:	45e2      	cmp	sl, ip
  404904:	ea4f 4512 	mov.w	r5, r2, lsr #16
  404908:	f84e 3b04 	str.w	r3, [lr], #4
  40490c:	ea4f 4626 	mov.w	r6, r6, asr #16
  404910:	d2e0      	bcs.n	4048d4 <quorem+0x48>
  404912:	9b00      	ldr	r3, [sp, #0]
  404914:	f85b 3003 	ldr.w	r3, [fp, r3]
  404918:	b993      	cbnz	r3, 404940 <quorem+0xb4>
  40491a:	9c01      	ldr	r4, [sp, #4]
  40491c:	1f23      	subs	r3, r4, #4
  40491e:	459b      	cmp	fp, r3
  404920:	d20c      	bcs.n	40493c <quorem+0xb0>
  404922:	f854 3c04 	ldr.w	r3, [r4, #-4]
  404926:	b94b      	cbnz	r3, 40493c <quorem+0xb0>
  404928:	f1a4 0308 	sub.w	r3, r4, #8
  40492c:	e002      	b.n	404934 <quorem+0xa8>
  40492e:	681a      	ldr	r2, [r3, #0]
  404930:	3b04      	subs	r3, #4
  404932:	b91a      	cbnz	r2, 40493c <quorem+0xb0>
  404934:	459b      	cmp	fp, r3
  404936:	f108 38ff 	add.w	r8, r8, #4294967295
  40493a:	d3f8      	bcc.n	40492e <quorem+0xa2>
  40493c:	f8c0 8010 	str.w	r8, [r0, #16]
  404940:	4604      	mov	r4, r0
  404942:	f001 fd39 	bl	4063b8 <__mcmp>
  404946:	2800      	cmp	r0, #0
  404948:	db2e      	blt.n	4049a8 <quorem+0x11c>
  40494a:	f109 0901 	add.w	r9, r9, #1
  40494e:	465d      	mov	r5, fp
  404950:	2300      	movs	r3, #0
  404952:	f857 1b04 	ldr.w	r1, [r7], #4
  404956:	6828      	ldr	r0, [r5, #0]
  404958:	b28a      	uxth	r2, r1
  40495a:	1a9a      	subs	r2, r3, r2
  40495c:	0c0b      	lsrs	r3, r1, #16
  40495e:	fa12 f280 	uxtah	r2, r2, r0
  404962:	ebc3 4310 	rsb	r3, r3, r0, lsr #16
  404966:	eb03 4322 	add.w	r3, r3, r2, asr #16
  40496a:	b292      	uxth	r2, r2
  40496c:	ea42 4203 	orr.w	r2, r2, r3, lsl #16
  404970:	45ba      	cmp	sl, r7
  404972:	f845 2b04 	str.w	r2, [r5], #4
  404976:	ea4f 4323 	mov.w	r3, r3, asr #16
  40497a:	d2ea      	bcs.n	404952 <quorem+0xc6>
  40497c:	f85b 2028 	ldr.w	r2, [fp, r8, lsl #2]
  404980:	eb0b 0388 	add.w	r3, fp, r8, lsl #2
  404984:	b982      	cbnz	r2, 4049a8 <quorem+0x11c>
  404986:	1f1a      	subs	r2, r3, #4
  404988:	4593      	cmp	fp, r2
  40498a:	d20b      	bcs.n	4049a4 <quorem+0x118>
  40498c:	f853 2c04 	ldr.w	r2, [r3, #-4]
  404990:	b942      	cbnz	r2, 4049a4 <quorem+0x118>
  404992:	3b08      	subs	r3, #8
  404994:	e002      	b.n	40499c <quorem+0x110>
  404996:	681a      	ldr	r2, [r3, #0]
  404998:	3b04      	subs	r3, #4
  40499a:	b91a      	cbnz	r2, 4049a4 <quorem+0x118>
  40499c:	459b      	cmp	fp, r3
  40499e:	f108 38ff 	add.w	r8, r8, #4294967295
  4049a2:	d3f8      	bcc.n	404996 <quorem+0x10a>
  4049a4:	f8c4 8010 	str.w	r8, [r4, #16]
  4049a8:	4648      	mov	r0, r9
  4049aa:	b003      	add	sp, #12
  4049ac:	e8bd 8ff0 	ldmia.w	sp!, {r4, r5, r6, r7, r8, r9, sl, fp, pc}
  4049b0:	2000      	movs	r0, #0
  4049b2:	4770      	bx	lr
  4049b4:	0000      	movs	r0, r0
	...

004049b8 <_dtoa_r>:
  4049b8:	e92d 4ff0 	stmdb	sp!, {r4, r5, r6, r7, r8, r9, sl, fp, lr}
  4049bc:	6c01      	ldr	r1, [r0, #64]	; 0x40
  4049be:	b09b      	sub	sp, #108	; 0x6c
  4049c0:	4604      	mov	r4, r0
  4049c2:	9e27      	ldr	r6, [sp, #156]	; 0x9c
  4049c4:	4692      	mov	sl, r2
  4049c6:	469b      	mov	fp, r3
  4049c8:	b141      	cbz	r1, 4049dc <_dtoa_r+0x24>
  4049ca:	6c42      	ldr	r2, [r0, #68]	; 0x44
  4049cc:	604a      	str	r2, [r1, #4]
  4049ce:	2301      	movs	r3, #1
  4049d0:	4093      	lsls	r3, r2
  4049d2:	608b      	str	r3, [r1, #8]
  4049d4:	f001 fb18 	bl	406008 <_Bfree>
  4049d8:	2300      	movs	r3, #0
  4049da:	6423      	str	r3, [r4, #64]	; 0x40
  4049dc:	f1bb 0f00 	cmp.w	fp, #0
  4049e0:	465d      	mov	r5, fp
  4049e2:	db35      	blt.n	404a50 <_dtoa_r+0x98>
  4049e4:	2300      	movs	r3, #0
  4049e6:	6033      	str	r3, [r6, #0]
  4049e8:	4b9d      	ldr	r3, [pc, #628]	; (404c60 <_dtoa_r+0x2a8>)
  4049ea:	43ab      	bics	r3, r5
  4049ec:	d015      	beq.n	404a1a <_dtoa_r+0x62>
  4049ee:	4650      	mov	r0, sl
  4049f0:	4659      	mov	r1, fp
  4049f2:	2200      	movs	r2, #0
  4049f4:	2300      	movs	r3, #0
  4049f6:	f002 ff05 	bl	407804 <__aeabi_dcmpeq>
  4049fa:	4680      	mov	r8, r0
  4049fc:	2800      	cmp	r0, #0
  4049fe:	d02d      	beq.n	404a5c <_dtoa_r+0xa4>
  404a00:	9a26      	ldr	r2, [sp, #152]	; 0x98
  404a02:	2301      	movs	r3, #1
  404a04:	6013      	str	r3, [r2, #0]
  404a06:	9b28      	ldr	r3, [sp, #160]	; 0xa0
  404a08:	2b00      	cmp	r3, #0
  404a0a:	f000 80bd 	beq.w	404b88 <_dtoa_r+0x1d0>
  404a0e:	4895      	ldr	r0, [pc, #596]	; (404c64 <_dtoa_r+0x2ac>)
  404a10:	6018      	str	r0, [r3, #0]
  404a12:	3801      	subs	r0, #1
  404a14:	b01b      	add	sp, #108	; 0x6c
  404a16:	e8bd 8ff0 	ldmia.w	sp!, {r4, r5, r6, r7, r8, r9, sl, fp, pc}
  404a1a:	9a26      	ldr	r2, [sp, #152]	; 0x98
  404a1c:	f242 730f 	movw	r3, #9999	; 0x270f
  404a20:	6013      	str	r3, [r2, #0]
  404a22:	f1ba 0f00 	cmp.w	sl, #0
  404a26:	d10d      	bne.n	404a44 <_dtoa_r+0x8c>
  404a28:	f3c5 0513 	ubfx	r5, r5, #0, #20
  404a2c:	b955      	cbnz	r5, 404a44 <_dtoa_r+0x8c>
  404a2e:	9b28      	ldr	r3, [sp, #160]	; 0xa0
  404a30:	488d      	ldr	r0, [pc, #564]	; (404c68 <_dtoa_r+0x2b0>)
  404a32:	2b00      	cmp	r3, #0
  404a34:	d0ee      	beq.n	404a14 <_dtoa_r+0x5c>
  404a36:	f100 0308 	add.w	r3, r0, #8
  404a3a:	9a28      	ldr	r2, [sp, #160]	; 0xa0
  404a3c:	6013      	str	r3, [r2, #0]
  404a3e:	b01b      	add	sp, #108	; 0x6c
  404a40:	e8bd 8ff0 	ldmia.w	sp!, {r4, r5, r6, r7, r8, r9, sl, fp, pc}
  404a44:	9b28      	ldr	r3, [sp, #160]	; 0xa0
  404a46:	4889      	ldr	r0, [pc, #548]	; (404c6c <_dtoa_r+0x2b4>)
  404a48:	2b00      	cmp	r3, #0
  404a4a:	d0e3      	beq.n	404a14 <_dtoa_r+0x5c>
  404a4c:	1cc3      	adds	r3, r0, #3
  404a4e:	e7f4      	b.n	404a3a <_dtoa_r+0x82>
  404a50:	2301      	movs	r3, #1
  404a52:	f02b 4500 	bic.w	r5, fp, #2147483648	; 0x80000000
  404a56:	6033      	str	r3, [r6, #0]
  404a58:	46ab      	mov	fp, r5
  404a5a:	e7c5      	b.n	4049e8 <_dtoa_r+0x30>
  404a5c:	aa18      	add	r2, sp, #96	; 0x60
  404a5e:	ab19      	add	r3, sp, #100	; 0x64
  404a60:	9201      	str	r2, [sp, #4]
  404a62:	9300      	str	r3, [sp, #0]
  404a64:	4652      	mov	r2, sl
  404a66:	465b      	mov	r3, fp
  404a68:	4620      	mov	r0, r4
  404a6a:	f001 fd45 	bl	4064f8 <__d2b>
  404a6e:	0d2b      	lsrs	r3, r5, #20
  404a70:	4681      	mov	r9, r0
  404a72:	d071      	beq.n	404b58 <_dtoa_r+0x1a0>
  404a74:	f3cb 0213 	ubfx	r2, fp, #0, #20
  404a78:	f042 517f 	orr.w	r1, r2, #1069547520	; 0x3fc00000
  404a7c:	9f18      	ldr	r7, [sp, #96]	; 0x60
  404a7e:	f8cd 8050 	str.w	r8, [sp, #80]	; 0x50
  404a82:	4650      	mov	r0, sl
  404a84:	f2a3 36ff 	subw	r6, r3, #1023	; 0x3ff
  404a88:	f441 1140 	orr.w	r1, r1, #3145728	; 0x300000
  404a8c:	2200      	movs	r2, #0
  404a8e:	4b78      	ldr	r3, [pc, #480]	; (404c70 <_dtoa_r+0x2b8>)
  404a90:	f002 fa9c 	bl	406fcc <__aeabi_dsub>
  404a94:	a36c      	add	r3, pc, #432	; (adr r3, 404c48 <_dtoa_r+0x290>)
  404a96:	e9d3 2300 	ldrd	r2, r3, [r3]
  404a9a:	f002 fc4b 	bl	407334 <__aeabi_dmul>
  404a9e:	a36c      	add	r3, pc, #432	; (adr r3, 404c50 <_dtoa_r+0x298>)
  404aa0:	e9d3 2300 	ldrd	r2, r3, [r3]
  404aa4:	f002 fa94 	bl	406fd0 <__adddf3>
  404aa8:	e9cd 0102 	strd	r0, r1, [sp, #8]
  404aac:	4630      	mov	r0, r6
  404aae:	f002 fbdb 	bl	407268 <__aeabi_i2d>
  404ab2:	a369      	add	r3, pc, #420	; (adr r3, 404c58 <_dtoa_r+0x2a0>)
  404ab4:	e9d3 2300 	ldrd	r2, r3, [r3]
  404ab8:	f002 fc3c 	bl	407334 <__aeabi_dmul>
  404abc:	4602      	mov	r2, r0
  404abe:	460b      	mov	r3, r1
  404ac0:	e9dd 0102 	ldrd	r0, r1, [sp, #8]
  404ac4:	f002 fa84 	bl	406fd0 <__adddf3>
  404ac8:	e9cd 0104 	strd	r0, r1, [sp, #16]
  404acc:	f002 fee2 	bl	407894 <__aeabi_d2iz>
  404ad0:	2200      	movs	r2, #0
  404ad2:	9002      	str	r0, [sp, #8]
  404ad4:	2300      	movs	r3, #0
  404ad6:	e9dd 0104 	ldrd	r0, r1, [sp, #16]
  404ada:	f002 fe9d 	bl	407818 <__aeabi_dcmplt>
  404ade:	2800      	cmp	r0, #0
  404ae0:	f040 8173 	bne.w	404dca <_dtoa_r+0x412>
  404ae4:	9d02      	ldr	r5, [sp, #8]
  404ae6:	2d16      	cmp	r5, #22
  404ae8:	f200 815d 	bhi.w	404da6 <_dtoa_r+0x3ee>
  404aec:	4b61      	ldr	r3, [pc, #388]	; (404c74 <_dtoa_r+0x2bc>)
  404aee:	eb03 03c5 	add.w	r3, r3, r5, lsl #3
  404af2:	e9d3 0100 	ldrd	r0, r1, [r3]
  404af6:	4652      	mov	r2, sl
  404af8:	465b      	mov	r3, fp
  404afa:	f002 feab 	bl	407854 <__aeabi_dcmpgt>
  404afe:	2800      	cmp	r0, #0
  404b00:	f000 81c5 	beq.w	404e8e <_dtoa_r+0x4d6>
  404b04:	1e6b      	subs	r3, r5, #1
  404b06:	9302      	str	r3, [sp, #8]
  404b08:	2300      	movs	r3, #0
  404b0a:	930e      	str	r3, [sp, #56]	; 0x38
  404b0c:	1bbf      	subs	r7, r7, r6
  404b0e:	1e7b      	subs	r3, r7, #1
  404b10:	9306      	str	r3, [sp, #24]
  404b12:	f100 8154 	bmi.w	404dbe <_dtoa_r+0x406>
  404b16:	2300      	movs	r3, #0
  404b18:	9308      	str	r3, [sp, #32]
  404b1a:	9b02      	ldr	r3, [sp, #8]
  404b1c:	2b00      	cmp	r3, #0
  404b1e:	f2c0 8145 	blt.w	404dac <_dtoa_r+0x3f4>
  404b22:	9a06      	ldr	r2, [sp, #24]
  404b24:	930d      	str	r3, [sp, #52]	; 0x34
  404b26:	4611      	mov	r1, r2
  404b28:	4419      	add	r1, r3
  404b2a:	2300      	movs	r3, #0
  404b2c:	9106      	str	r1, [sp, #24]
  404b2e:	930c      	str	r3, [sp, #48]	; 0x30
  404b30:	9b24      	ldr	r3, [sp, #144]	; 0x90
  404b32:	2b09      	cmp	r3, #9
  404b34:	d82a      	bhi.n	404b8c <_dtoa_r+0x1d4>
  404b36:	2b05      	cmp	r3, #5
  404b38:	f340 865b 	ble.w	4057f2 <_dtoa_r+0xe3a>
  404b3c:	3b04      	subs	r3, #4
  404b3e:	9324      	str	r3, [sp, #144]	; 0x90
  404b40:	2500      	movs	r5, #0
  404b42:	9b24      	ldr	r3, [sp, #144]	; 0x90
  404b44:	3b02      	subs	r3, #2
  404b46:	2b03      	cmp	r3, #3
  404b48:	f200 8642 	bhi.w	4057d0 <_dtoa_r+0xe18>
  404b4c:	e8df f013 	tbh	[pc, r3, lsl #1]
  404b50:	02c903d4 	.word	0x02c903d4
  404b54:	046103df 	.word	0x046103df
  404b58:	9f18      	ldr	r7, [sp, #96]	; 0x60
  404b5a:	9e19      	ldr	r6, [sp, #100]	; 0x64
  404b5c:	443e      	add	r6, r7
  404b5e:	f206 4332 	addw	r3, r6, #1074	; 0x432
  404b62:	2b20      	cmp	r3, #32
  404b64:	f340 818e 	ble.w	404e84 <_dtoa_r+0x4cc>
  404b68:	f1c3 0340 	rsb	r3, r3, #64	; 0x40
  404b6c:	f206 4012 	addw	r0, r6, #1042	; 0x412
  404b70:	409d      	lsls	r5, r3
  404b72:	fa2a f000 	lsr.w	r0, sl, r0
  404b76:	4328      	orrs	r0, r5
  404b78:	f002 fb66 	bl	407248 <__aeabi_ui2d>
  404b7c:	2301      	movs	r3, #1
  404b7e:	3e01      	subs	r6, #1
  404b80:	f1a1 71f8 	sub.w	r1, r1, #32505856	; 0x1f00000
  404b84:	9314      	str	r3, [sp, #80]	; 0x50
  404b86:	e781      	b.n	404a8c <_dtoa_r+0xd4>
  404b88:	483b      	ldr	r0, [pc, #236]	; (404c78 <_dtoa_r+0x2c0>)
  404b8a:	e743      	b.n	404a14 <_dtoa_r+0x5c>
  404b8c:	2100      	movs	r1, #0
  404b8e:	6461      	str	r1, [r4, #68]	; 0x44
  404b90:	4620      	mov	r0, r4
  404b92:	9125      	str	r1, [sp, #148]	; 0x94
  404b94:	f001 fa12 	bl	405fbc <_Balloc>
  404b98:	f04f 33ff 	mov.w	r3, #4294967295
  404b9c:	930a      	str	r3, [sp, #40]	; 0x28
  404b9e:	9a25      	ldr	r2, [sp, #148]	; 0x94
  404ba0:	930f      	str	r3, [sp, #60]	; 0x3c
  404ba2:	2301      	movs	r3, #1
  404ba4:	9004      	str	r0, [sp, #16]
  404ba6:	6420      	str	r0, [r4, #64]	; 0x40
  404ba8:	9224      	str	r2, [sp, #144]	; 0x90
  404baa:	930b      	str	r3, [sp, #44]	; 0x2c
  404bac:	9b19      	ldr	r3, [sp, #100]	; 0x64
  404bae:	2b00      	cmp	r3, #0
  404bb0:	f2c0 80d9 	blt.w	404d66 <_dtoa_r+0x3ae>
  404bb4:	9a02      	ldr	r2, [sp, #8]
  404bb6:	2a0e      	cmp	r2, #14
  404bb8:	f300 80d5 	bgt.w	404d66 <_dtoa_r+0x3ae>
  404bbc:	4b2d      	ldr	r3, [pc, #180]	; (404c74 <_dtoa_r+0x2bc>)
  404bbe:	eb03 03c2 	add.w	r3, r3, r2, lsl #3
  404bc2:	e9d3 2300 	ldrd	r2, r3, [r3]
  404bc6:	e9cd 2308 	strd	r2, r3, [sp, #32]
  404bca:	9b25      	ldr	r3, [sp, #148]	; 0x94
  404bcc:	2b00      	cmp	r3, #0
  404bce:	f2c0 83ba 	blt.w	405346 <_dtoa_r+0x98e>
  404bd2:	e9dd 5608 	ldrd	r5, r6, [sp, #32]
  404bd6:	4650      	mov	r0, sl
  404bd8:	462a      	mov	r2, r5
  404bda:	4633      	mov	r3, r6
  404bdc:	4659      	mov	r1, fp
  404bde:	f002 fcd3 	bl	407588 <__aeabi_ddiv>
  404be2:	f002 fe57 	bl	407894 <__aeabi_d2iz>
  404be6:	4680      	mov	r8, r0
  404be8:	f002 fb3e 	bl	407268 <__aeabi_i2d>
  404bec:	462a      	mov	r2, r5
  404bee:	4633      	mov	r3, r6
  404bf0:	f002 fba0 	bl	407334 <__aeabi_dmul>
  404bf4:	460b      	mov	r3, r1
  404bf6:	4602      	mov	r2, r0
  404bf8:	4659      	mov	r1, fp
  404bfa:	4650      	mov	r0, sl
  404bfc:	f002 f9e6 	bl	406fcc <__aeabi_dsub>
  404c00:	9d04      	ldr	r5, [sp, #16]
  404c02:	f108 0330 	add.w	r3, r8, #48	; 0x30
  404c06:	702b      	strb	r3, [r5, #0]
  404c08:	9b0a      	ldr	r3, [sp, #40]	; 0x28
  404c0a:	2b01      	cmp	r3, #1
  404c0c:	4606      	mov	r6, r0
  404c0e:	460f      	mov	r7, r1
  404c10:	f105 0501 	add.w	r5, r5, #1
  404c14:	d068      	beq.n	404ce8 <_dtoa_r+0x330>
  404c16:	2200      	movs	r2, #0
  404c18:	4b18      	ldr	r3, [pc, #96]	; (404c7c <_dtoa_r+0x2c4>)
  404c1a:	f002 fb8b 	bl	407334 <__aeabi_dmul>
  404c1e:	2200      	movs	r2, #0
  404c20:	2300      	movs	r3, #0
  404c22:	4606      	mov	r6, r0
  404c24:	460f      	mov	r7, r1
  404c26:	f002 fded 	bl	407804 <__aeabi_dcmpeq>
  404c2a:	2800      	cmp	r0, #0
  404c2c:	f040 8088 	bne.w	404d40 <_dtoa_r+0x388>
  404c30:	f8cd 902c 	str.w	r9, [sp, #44]	; 0x2c
  404c34:	f04f 0a00 	mov.w	sl, #0
  404c38:	f8df b040 	ldr.w	fp, [pc, #64]	; 404c7c <_dtoa_r+0x2c4>
  404c3c:	940c      	str	r4, [sp, #48]	; 0x30
  404c3e:	e9dd 8908 	ldrd	r8, r9, [sp, #32]
  404c42:	e028      	b.n	404c96 <_dtoa_r+0x2de>
  404c44:	f3af 8000 	nop.w
  404c48:	636f4361 	.word	0x636f4361
  404c4c:	3fd287a7 	.word	0x3fd287a7
  404c50:	8b60c8b3 	.word	0x8b60c8b3
  404c54:	3fc68a28 	.word	0x3fc68a28
  404c58:	509f79fb 	.word	0x509f79fb
  404c5c:	3fd34413 	.word	0x3fd34413
  404c60:	7ff00000 	.word	0x7ff00000
  404c64:	0040837d 	.word	0x0040837d
  404c68:	004083a0 	.word	0x004083a0
  404c6c:	004083ac 	.word	0x004083ac
  404c70:	3ff80000 	.word	0x3ff80000
  404c74:	004083d8 	.word	0x004083d8
  404c78:	0040837c 	.word	0x0040837c
  404c7c:	40240000 	.word	0x40240000
  404c80:	f002 fb58 	bl	407334 <__aeabi_dmul>
  404c84:	2200      	movs	r2, #0
  404c86:	2300      	movs	r3, #0
  404c88:	4606      	mov	r6, r0
  404c8a:	460f      	mov	r7, r1
  404c8c:	f002 fdba 	bl	407804 <__aeabi_dcmpeq>
  404c90:	2800      	cmp	r0, #0
  404c92:	f040 83c1 	bne.w	405418 <_dtoa_r+0xa60>
  404c96:	4642      	mov	r2, r8
  404c98:	464b      	mov	r3, r9
  404c9a:	4630      	mov	r0, r6
  404c9c:	4639      	mov	r1, r7
  404c9e:	f002 fc73 	bl	407588 <__aeabi_ddiv>
  404ca2:	f002 fdf7 	bl	407894 <__aeabi_d2iz>
  404ca6:	4604      	mov	r4, r0
  404ca8:	f002 fade 	bl	407268 <__aeabi_i2d>
  404cac:	4642      	mov	r2, r8
  404cae:	464b      	mov	r3, r9
  404cb0:	f002 fb40 	bl	407334 <__aeabi_dmul>
  404cb4:	4602      	mov	r2, r0
  404cb6:	460b      	mov	r3, r1
  404cb8:	4630      	mov	r0, r6
  404cba:	4639      	mov	r1, r7
  404cbc:	f002 f986 	bl	406fcc <__aeabi_dsub>
  404cc0:	f104 0e30 	add.w	lr, r4, #48	; 0x30
  404cc4:	9e04      	ldr	r6, [sp, #16]
  404cc6:	f805 eb01 	strb.w	lr, [r5], #1
  404cca:	eba5 0e06 	sub.w	lr, r5, r6
  404cce:	9e0a      	ldr	r6, [sp, #40]	; 0x28
  404cd0:	45b6      	cmp	lr, r6
  404cd2:	e9cd 0106 	strd	r0, r1, [sp, #24]
  404cd6:	4652      	mov	r2, sl
  404cd8:	465b      	mov	r3, fp
  404cda:	d1d1      	bne.n	404c80 <_dtoa_r+0x2c8>
  404cdc:	46a0      	mov	r8, r4
  404cde:	f8dd 902c 	ldr.w	r9, [sp, #44]	; 0x2c
  404ce2:	9c0c      	ldr	r4, [sp, #48]	; 0x30
  404ce4:	4606      	mov	r6, r0
  404ce6:	460f      	mov	r7, r1
  404ce8:	4632      	mov	r2, r6
  404cea:	463b      	mov	r3, r7
  404cec:	4630      	mov	r0, r6
  404cee:	4639      	mov	r1, r7
  404cf0:	f002 f96e 	bl	406fd0 <__adddf3>
  404cf4:	4606      	mov	r6, r0
  404cf6:	460f      	mov	r7, r1
  404cf8:	4602      	mov	r2, r0
  404cfa:	460b      	mov	r3, r1
  404cfc:	e9dd 0108 	ldrd	r0, r1, [sp, #32]
  404d00:	f002 fd8a 	bl	407818 <__aeabi_dcmplt>
  404d04:	b948      	cbnz	r0, 404d1a <_dtoa_r+0x362>
  404d06:	4632      	mov	r2, r6
  404d08:	463b      	mov	r3, r7
  404d0a:	e9dd 0108 	ldrd	r0, r1, [sp, #32]
  404d0e:	f002 fd79 	bl	407804 <__aeabi_dcmpeq>
  404d12:	b1a8      	cbz	r0, 404d40 <_dtoa_r+0x388>
  404d14:	f018 0f01 	tst.w	r8, #1
  404d18:	d012      	beq.n	404d40 <_dtoa_r+0x388>
  404d1a:	f815 8c01 	ldrb.w	r8, [r5, #-1]
  404d1e:	9a04      	ldr	r2, [sp, #16]
  404d20:	1e6b      	subs	r3, r5, #1
  404d22:	e004      	b.n	404d2e <_dtoa_r+0x376>
  404d24:	429a      	cmp	r2, r3
  404d26:	f000 8401 	beq.w	40552c <_dtoa_r+0xb74>
  404d2a:	f813 8d01 	ldrb.w	r8, [r3, #-1]!
  404d2e:	f1b8 0f39 	cmp.w	r8, #57	; 0x39
  404d32:	f103 0501 	add.w	r5, r3, #1
  404d36:	d0f5      	beq.n	404d24 <_dtoa_r+0x36c>
  404d38:	f108 0801 	add.w	r8, r8, #1
  404d3c:	f883 8000 	strb.w	r8, [r3]
  404d40:	4649      	mov	r1, r9
  404d42:	4620      	mov	r0, r4
  404d44:	f001 f960 	bl	406008 <_Bfree>
  404d48:	2200      	movs	r2, #0
  404d4a:	9b02      	ldr	r3, [sp, #8]
  404d4c:	702a      	strb	r2, [r5, #0]
  404d4e:	9a26      	ldr	r2, [sp, #152]	; 0x98
  404d50:	3301      	adds	r3, #1
  404d52:	6013      	str	r3, [r2, #0]
  404d54:	9b28      	ldr	r3, [sp, #160]	; 0xa0
  404d56:	2b00      	cmp	r3, #0
  404d58:	f000 839e 	beq.w	405498 <_dtoa_r+0xae0>
  404d5c:	9804      	ldr	r0, [sp, #16]
  404d5e:	601d      	str	r5, [r3, #0]
  404d60:	b01b      	add	sp, #108	; 0x6c
  404d62:	e8bd 8ff0 	ldmia.w	sp!, {r4, r5, r6, r7, r8, r9, sl, fp, pc}
  404d66:	9a0b      	ldr	r2, [sp, #44]	; 0x2c
  404d68:	2a00      	cmp	r2, #0
  404d6a:	d03e      	beq.n	404dea <_dtoa_r+0x432>
  404d6c:	9a24      	ldr	r2, [sp, #144]	; 0x90
  404d6e:	2a01      	cmp	r2, #1
  404d70:	f340 8311 	ble.w	405396 <_dtoa_r+0x9de>
  404d74:	9b0a      	ldr	r3, [sp, #40]	; 0x28
  404d76:	9a0c      	ldr	r2, [sp, #48]	; 0x30
  404d78:	1e5f      	subs	r7, r3, #1
  404d7a:	42ba      	cmp	r2, r7
  404d7c:	f2c0 838f 	blt.w	40549e <_dtoa_r+0xae6>
  404d80:	1bd7      	subs	r7, r2, r7
  404d82:	9b0a      	ldr	r3, [sp, #40]	; 0x28
  404d84:	2b00      	cmp	r3, #0
  404d86:	f2c0 848b 	blt.w	4056a0 <_dtoa_r+0xce8>
  404d8a:	9d08      	ldr	r5, [sp, #32]
  404d8c:	9b0a      	ldr	r3, [sp, #40]	; 0x28
  404d8e:	9a08      	ldr	r2, [sp, #32]
  404d90:	441a      	add	r2, r3
  404d92:	9208      	str	r2, [sp, #32]
  404d94:	9a06      	ldr	r2, [sp, #24]
  404d96:	2101      	movs	r1, #1
  404d98:	441a      	add	r2, r3
  404d9a:	4620      	mov	r0, r4
  404d9c:	9206      	str	r2, [sp, #24]
  404d9e:	f001 f9cd 	bl	40613c <__i2b>
  404da2:	4606      	mov	r6, r0
  404da4:	e024      	b.n	404df0 <_dtoa_r+0x438>
  404da6:	2301      	movs	r3, #1
  404da8:	930e      	str	r3, [sp, #56]	; 0x38
  404daa:	e6af      	b.n	404b0c <_dtoa_r+0x154>
  404dac:	9a08      	ldr	r2, [sp, #32]
  404dae:	9b02      	ldr	r3, [sp, #8]
  404db0:	1ad2      	subs	r2, r2, r3
  404db2:	425b      	negs	r3, r3
  404db4:	930c      	str	r3, [sp, #48]	; 0x30
  404db6:	2300      	movs	r3, #0
  404db8:	9208      	str	r2, [sp, #32]
  404dba:	930d      	str	r3, [sp, #52]	; 0x34
  404dbc:	e6b8      	b.n	404b30 <_dtoa_r+0x178>
  404dbe:	f1c7 0301 	rsb	r3, r7, #1
  404dc2:	9308      	str	r3, [sp, #32]
  404dc4:	2300      	movs	r3, #0
  404dc6:	9306      	str	r3, [sp, #24]
  404dc8:	e6a7      	b.n	404b1a <_dtoa_r+0x162>
  404dca:	9d02      	ldr	r5, [sp, #8]
  404dcc:	4628      	mov	r0, r5
  404dce:	f002 fa4b 	bl	407268 <__aeabi_i2d>
  404dd2:	4602      	mov	r2, r0
  404dd4:	460b      	mov	r3, r1
  404dd6:	e9dd 0104 	ldrd	r0, r1, [sp, #16]
  404dda:	f002 fd13 	bl	407804 <__aeabi_dcmpeq>
  404dde:	2800      	cmp	r0, #0
  404de0:	f47f ae80 	bne.w	404ae4 <_dtoa_r+0x12c>
  404de4:	1e6b      	subs	r3, r5, #1
  404de6:	9302      	str	r3, [sp, #8]
  404de8:	e67c      	b.n	404ae4 <_dtoa_r+0x12c>
  404dea:	9f0c      	ldr	r7, [sp, #48]	; 0x30
  404dec:	9d08      	ldr	r5, [sp, #32]
  404dee:	9e0b      	ldr	r6, [sp, #44]	; 0x2c
  404df0:	2d00      	cmp	r5, #0
  404df2:	dd0c      	ble.n	404e0e <_dtoa_r+0x456>
  404df4:	9906      	ldr	r1, [sp, #24]
  404df6:	2900      	cmp	r1, #0
  404df8:	460b      	mov	r3, r1
  404dfa:	dd08      	ble.n	404e0e <_dtoa_r+0x456>
  404dfc:	42a9      	cmp	r1, r5
  404dfe:	9a08      	ldr	r2, [sp, #32]
  404e00:	bfa8      	it	ge
  404e02:	462b      	movge	r3, r5
  404e04:	1ad2      	subs	r2, r2, r3
  404e06:	1aed      	subs	r5, r5, r3
  404e08:	1acb      	subs	r3, r1, r3
  404e0a:	9208      	str	r2, [sp, #32]
  404e0c:	9306      	str	r3, [sp, #24]
  404e0e:	9b0c      	ldr	r3, [sp, #48]	; 0x30
  404e10:	b1d3      	cbz	r3, 404e48 <_dtoa_r+0x490>
  404e12:	9b0b      	ldr	r3, [sp, #44]	; 0x2c
  404e14:	2b00      	cmp	r3, #0
  404e16:	f000 82b7 	beq.w	405388 <_dtoa_r+0x9d0>
  404e1a:	2f00      	cmp	r7, #0
  404e1c:	dd10      	ble.n	404e40 <_dtoa_r+0x488>
  404e1e:	4631      	mov	r1, r6
  404e20:	463a      	mov	r2, r7
  404e22:	4620      	mov	r0, r4
  404e24:	f001 fa26 	bl	406274 <__pow5mult>
  404e28:	464a      	mov	r2, r9
  404e2a:	4601      	mov	r1, r0
  404e2c:	4606      	mov	r6, r0
  404e2e:	4620      	mov	r0, r4
  404e30:	f001 f98e 	bl	406150 <__multiply>
  404e34:	4649      	mov	r1, r9
  404e36:	4680      	mov	r8, r0
  404e38:	4620      	mov	r0, r4
  404e3a:	f001 f8e5 	bl	406008 <_Bfree>
  404e3e:	46c1      	mov	r9, r8
  404e40:	9b0c      	ldr	r3, [sp, #48]	; 0x30
  404e42:	1bda      	subs	r2, r3, r7
  404e44:	f040 82a1 	bne.w	40538a <_dtoa_r+0x9d2>
  404e48:	2101      	movs	r1, #1
  404e4a:	4620      	mov	r0, r4
  404e4c:	f001 f976 	bl	40613c <__i2b>
  404e50:	9b0d      	ldr	r3, [sp, #52]	; 0x34
  404e52:	2b00      	cmp	r3, #0
  404e54:	4680      	mov	r8, r0
  404e56:	dd1c      	ble.n	404e92 <_dtoa_r+0x4da>
  404e58:	4601      	mov	r1, r0
  404e5a:	461a      	mov	r2, r3
  404e5c:	4620      	mov	r0, r4
  404e5e:	f001 fa09 	bl	406274 <__pow5mult>
  404e62:	9b24      	ldr	r3, [sp, #144]	; 0x90
  404e64:	2b01      	cmp	r3, #1
  404e66:	4680      	mov	r8, r0
  404e68:	f340 8254 	ble.w	405314 <_dtoa_r+0x95c>
  404e6c:	2300      	movs	r3, #0
  404e6e:	930c      	str	r3, [sp, #48]	; 0x30
  404e70:	f8d8 3010 	ldr.w	r3, [r8, #16]
  404e74:	eb08 0383 	add.w	r3, r8, r3, lsl #2
  404e78:	6918      	ldr	r0, [r3, #16]
  404e7a:	f001 f90f 	bl	40609c <__hi0bits>
  404e7e:	f1c0 0020 	rsb	r0, r0, #32
  404e82:	e010      	b.n	404ea6 <_dtoa_r+0x4ee>
  404e84:	f1c3 0520 	rsb	r5, r3, #32
  404e88:	fa0a f005 	lsl.w	r0, sl, r5
  404e8c:	e674      	b.n	404b78 <_dtoa_r+0x1c0>
  404e8e:	900e      	str	r0, [sp, #56]	; 0x38
  404e90:	e63c      	b.n	404b0c <_dtoa_r+0x154>
  404e92:	9b24      	ldr	r3, [sp, #144]	; 0x90
  404e94:	2b01      	cmp	r3, #1
  404e96:	f340 8287 	ble.w	4053a8 <_dtoa_r+0x9f0>
  404e9a:	2300      	movs	r3, #0
  404e9c:	930c      	str	r3, [sp, #48]	; 0x30
  404e9e:	9b0d      	ldr	r3, [sp, #52]	; 0x34
  404ea0:	2001      	movs	r0, #1
  404ea2:	2b00      	cmp	r3, #0
  404ea4:	d1e4      	bne.n	404e70 <_dtoa_r+0x4b8>
  404ea6:	9a06      	ldr	r2, [sp, #24]
  404ea8:	4410      	add	r0, r2
  404eaa:	f010 001f 	ands.w	r0, r0, #31
  404eae:	f000 80a1 	beq.w	404ff4 <_dtoa_r+0x63c>
  404eb2:	f1c0 0320 	rsb	r3, r0, #32
  404eb6:	2b04      	cmp	r3, #4
  404eb8:	f340 849e 	ble.w	4057f8 <_dtoa_r+0xe40>
  404ebc:	9b08      	ldr	r3, [sp, #32]
  404ebe:	f1c0 001c 	rsb	r0, r0, #28
  404ec2:	4403      	add	r3, r0
  404ec4:	9308      	str	r3, [sp, #32]
  404ec6:	4613      	mov	r3, r2
  404ec8:	4403      	add	r3, r0
  404eca:	4405      	add	r5, r0
  404ecc:	9306      	str	r3, [sp, #24]
  404ece:	9b08      	ldr	r3, [sp, #32]
  404ed0:	2b00      	cmp	r3, #0
  404ed2:	dd05      	ble.n	404ee0 <_dtoa_r+0x528>
  404ed4:	4649      	mov	r1, r9
  404ed6:	461a      	mov	r2, r3
  404ed8:	4620      	mov	r0, r4
  404eda:	f001 fa1b 	bl	406314 <__lshift>
  404ede:	4681      	mov	r9, r0
  404ee0:	9b06      	ldr	r3, [sp, #24]
  404ee2:	2b00      	cmp	r3, #0
  404ee4:	dd05      	ble.n	404ef2 <_dtoa_r+0x53a>
  404ee6:	4641      	mov	r1, r8
  404ee8:	461a      	mov	r2, r3
  404eea:	4620      	mov	r0, r4
  404eec:	f001 fa12 	bl	406314 <__lshift>
  404ef0:	4680      	mov	r8, r0
  404ef2:	9b0e      	ldr	r3, [sp, #56]	; 0x38
  404ef4:	2b00      	cmp	r3, #0
  404ef6:	f040 8086 	bne.w	405006 <_dtoa_r+0x64e>
  404efa:	9b0a      	ldr	r3, [sp, #40]	; 0x28
  404efc:	2b00      	cmp	r3, #0
  404efe:	f340 8266 	ble.w	4053ce <_dtoa_r+0xa16>
  404f02:	9b0b      	ldr	r3, [sp, #44]	; 0x2c
  404f04:	2b00      	cmp	r3, #0
  404f06:	f000 8098 	beq.w	40503a <_dtoa_r+0x682>
  404f0a:	2d00      	cmp	r5, #0
  404f0c:	dd05      	ble.n	404f1a <_dtoa_r+0x562>
  404f0e:	4631      	mov	r1, r6
  404f10:	462a      	mov	r2, r5
  404f12:	4620      	mov	r0, r4
  404f14:	f001 f9fe 	bl	406314 <__lshift>
  404f18:	4606      	mov	r6, r0
  404f1a:	9b0c      	ldr	r3, [sp, #48]	; 0x30
  404f1c:	2b00      	cmp	r3, #0
  404f1e:	f040 8337 	bne.w	405590 <_dtoa_r+0xbd8>
  404f22:	9606      	str	r6, [sp, #24]
  404f24:	9b0a      	ldr	r3, [sp, #40]	; 0x28
  404f26:	9a04      	ldr	r2, [sp, #16]
  404f28:	f8dd b018 	ldr.w	fp, [sp, #24]
  404f2c:	3b01      	subs	r3, #1
  404f2e:	18d3      	adds	r3, r2, r3
  404f30:	930b      	str	r3, [sp, #44]	; 0x2c
  404f32:	f00a 0301 	and.w	r3, sl, #1
  404f36:	930c      	str	r3, [sp, #48]	; 0x30
  404f38:	4617      	mov	r7, r2
  404f3a:	46c2      	mov	sl, r8
  404f3c:	4651      	mov	r1, sl
  404f3e:	4648      	mov	r0, r9
  404f40:	f7ff fca4 	bl	40488c <quorem>
  404f44:	4631      	mov	r1, r6
  404f46:	4605      	mov	r5, r0
  404f48:	4648      	mov	r0, r9
  404f4a:	f001 fa35 	bl	4063b8 <__mcmp>
  404f4e:	465a      	mov	r2, fp
  404f50:	900a      	str	r0, [sp, #40]	; 0x28
  404f52:	4651      	mov	r1, sl
  404f54:	4620      	mov	r0, r4
  404f56:	f001 fa4b 	bl	4063f0 <__mdiff>
  404f5a:	68c2      	ldr	r2, [r0, #12]
  404f5c:	4680      	mov	r8, r0
  404f5e:	f105 0330 	add.w	r3, r5, #48	; 0x30
  404f62:	2a00      	cmp	r2, #0
  404f64:	f040 822b 	bne.w	4053be <_dtoa_r+0xa06>
  404f68:	4601      	mov	r1, r0
  404f6a:	4648      	mov	r0, r9
  404f6c:	9308      	str	r3, [sp, #32]
  404f6e:	f001 fa23 	bl	4063b8 <__mcmp>
  404f72:	4641      	mov	r1, r8
  404f74:	9006      	str	r0, [sp, #24]
  404f76:	4620      	mov	r0, r4
  404f78:	f001 f846 	bl	406008 <_Bfree>
  404f7c:	9a06      	ldr	r2, [sp, #24]
  404f7e:	9b08      	ldr	r3, [sp, #32]
  404f80:	b932      	cbnz	r2, 404f90 <_dtoa_r+0x5d8>
  404f82:	9924      	ldr	r1, [sp, #144]	; 0x90
  404f84:	b921      	cbnz	r1, 404f90 <_dtoa_r+0x5d8>
  404f86:	9a0c      	ldr	r2, [sp, #48]	; 0x30
  404f88:	2a00      	cmp	r2, #0
  404f8a:	f000 83ef 	beq.w	40576c <_dtoa_r+0xdb4>
  404f8e:	9a24      	ldr	r2, [sp, #144]	; 0x90
  404f90:	990a      	ldr	r1, [sp, #40]	; 0x28
  404f92:	2900      	cmp	r1, #0
  404f94:	f2c0 829f 	blt.w	4054d6 <_dtoa_r+0xb1e>
  404f98:	d105      	bne.n	404fa6 <_dtoa_r+0x5ee>
  404f9a:	9924      	ldr	r1, [sp, #144]	; 0x90
  404f9c:	b919      	cbnz	r1, 404fa6 <_dtoa_r+0x5ee>
  404f9e:	990c      	ldr	r1, [sp, #48]	; 0x30
  404fa0:	2900      	cmp	r1, #0
  404fa2:	f000 8298 	beq.w	4054d6 <_dtoa_r+0xb1e>
  404fa6:	2a00      	cmp	r2, #0
  404fa8:	f300 8306 	bgt.w	4055b8 <_dtoa_r+0xc00>
  404fac:	9a0b      	ldr	r2, [sp, #44]	; 0x2c
  404fae:	703b      	strb	r3, [r7, #0]
  404fb0:	f107 0801 	add.w	r8, r7, #1
  404fb4:	4297      	cmp	r7, r2
  404fb6:	4645      	mov	r5, r8
  404fb8:	f000 830c 	beq.w	4055d4 <_dtoa_r+0xc1c>
  404fbc:	4649      	mov	r1, r9
  404fbe:	2300      	movs	r3, #0
  404fc0:	220a      	movs	r2, #10
  404fc2:	4620      	mov	r0, r4
  404fc4:	f001 f82a 	bl	40601c <__multadd>
  404fc8:	455e      	cmp	r6, fp
  404fca:	4681      	mov	r9, r0
  404fcc:	4631      	mov	r1, r6
  404fce:	f04f 0300 	mov.w	r3, #0
  404fd2:	f04f 020a 	mov.w	r2, #10
  404fd6:	4620      	mov	r0, r4
  404fd8:	f000 81eb 	beq.w	4053b2 <_dtoa_r+0x9fa>
  404fdc:	f001 f81e 	bl	40601c <__multadd>
  404fe0:	4659      	mov	r1, fp
  404fe2:	4606      	mov	r6, r0
  404fe4:	2300      	movs	r3, #0
  404fe6:	220a      	movs	r2, #10
  404fe8:	4620      	mov	r0, r4
  404fea:	f001 f817 	bl	40601c <__multadd>
  404fee:	4647      	mov	r7, r8
  404ff0:	4683      	mov	fp, r0
  404ff2:	e7a3      	b.n	404f3c <_dtoa_r+0x584>
  404ff4:	201c      	movs	r0, #28
  404ff6:	9b08      	ldr	r3, [sp, #32]
  404ff8:	4403      	add	r3, r0
  404ffa:	9308      	str	r3, [sp, #32]
  404ffc:	9b06      	ldr	r3, [sp, #24]
  404ffe:	4403      	add	r3, r0
  405000:	4405      	add	r5, r0
  405002:	9306      	str	r3, [sp, #24]
  405004:	e763      	b.n	404ece <_dtoa_r+0x516>
  405006:	4641      	mov	r1, r8
  405008:	4648      	mov	r0, r9
  40500a:	f001 f9d5 	bl	4063b8 <__mcmp>
  40500e:	2800      	cmp	r0, #0
  405010:	f6bf af73 	bge.w	404efa <_dtoa_r+0x542>
  405014:	9f02      	ldr	r7, [sp, #8]
  405016:	4649      	mov	r1, r9
  405018:	2300      	movs	r3, #0
  40501a:	220a      	movs	r2, #10
  40501c:	4620      	mov	r0, r4
  40501e:	3f01      	subs	r7, #1
  405020:	9702      	str	r7, [sp, #8]
  405022:	f000 fffb 	bl	40601c <__multadd>
  405026:	9b0b      	ldr	r3, [sp, #44]	; 0x2c
  405028:	4681      	mov	r9, r0
  40502a:	2b00      	cmp	r3, #0
  40502c:	f040 83b6 	bne.w	40579c <_dtoa_r+0xde4>
  405030:	9b0f      	ldr	r3, [sp, #60]	; 0x3c
  405032:	2b00      	cmp	r3, #0
  405034:	f340 83bf 	ble.w	4057b6 <_dtoa_r+0xdfe>
  405038:	930a      	str	r3, [sp, #40]	; 0x28
  40503a:	f8dd b010 	ldr.w	fp, [sp, #16]
  40503e:	9f0a      	ldr	r7, [sp, #40]	; 0x28
  405040:	465d      	mov	r5, fp
  405042:	e002      	b.n	40504a <_dtoa_r+0x692>
  405044:	f000 ffea 	bl	40601c <__multadd>
  405048:	4681      	mov	r9, r0
  40504a:	4641      	mov	r1, r8
  40504c:	4648      	mov	r0, r9
  40504e:	f7ff fc1d 	bl	40488c <quorem>
  405052:	f100 0a30 	add.w	sl, r0, #48	; 0x30
  405056:	f805 ab01 	strb.w	sl, [r5], #1
  40505a:	eba5 030b 	sub.w	r3, r5, fp
  40505e:	42bb      	cmp	r3, r7
  405060:	f04f 020a 	mov.w	r2, #10
  405064:	f04f 0300 	mov.w	r3, #0
  405068:	4649      	mov	r1, r9
  40506a:	4620      	mov	r0, r4
  40506c:	dbea      	blt.n	405044 <_dtoa_r+0x68c>
  40506e:	9b04      	ldr	r3, [sp, #16]
  405070:	9a0a      	ldr	r2, [sp, #40]	; 0x28
  405072:	2a01      	cmp	r2, #1
  405074:	bfac      	ite	ge
  405076:	189b      	addge	r3, r3, r2
  405078:	3301      	addlt	r3, #1
  40507a:	461d      	mov	r5, r3
  40507c:	f04f 0b00 	mov.w	fp, #0
  405080:	4649      	mov	r1, r9
  405082:	2201      	movs	r2, #1
  405084:	4620      	mov	r0, r4
  405086:	f001 f945 	bl	406314 <__lshift>
  40508a:	4641      	mov	r1, r8
  40508c:	4681      	mov	r9, r0
  40508e:	f001 f993 	bl	4063b8 <__mcmp>
  405092:	2800      	cmp	r0, #0
  405094:	f340 823d 	ble.w	405512 <_dtoa_r+0xb5a>
  405098:	f815 2c01 	ldrb.w	r2, [r5, #-1]
  40509c:	9904      	ldr	r1, [sp, #16]
  40509e:	1e6b      	subs	r3, r5, #1
  4050a0:	e004      	b.n	4050ac <_dtoa_r+0x6f4>
  4050a2:	428b      	cmp	r3, r1
  4050a4:	f000 81ae 	beq.w	405404 <_dtoa_r+0xa4c>
  4050a8:	f813 2d01 	ldrb.w	r2, [r3, #-1]!
  4050ac:	2a39      	cmp	r2, #57	; 0x39
  4050ae:	f103 0501 	add.w	r5, r3, #1
  4050b2:	d0f6      	beq.n	4050a2 <_dtoa_r+0x6ea>
  4050b4:	3201      	adds	r2, #1
  4050b6:	701a      	strb	r2, [r3, #0]
  4050b8:	4641      	mov	r1, r8
  4050ba:	4620      	mov	r0, r4
  4050bc:	f000 ffa4 	bl	406008 <_Bfree>
  4050c0:	2e00      	cmp	r6, #0
  4050c2:	f43f ae3d 	beq.w	404d40 <_dtoa_r+0x388>
  4050c6:	f1bb 0f00 	cmp.w	fp, #0
  4050ca:	d005      	beq.n	4050d8 <_dtoa_r+0x720>
  4050cc:	45b3      	cmp	fp, r6
  4050ce:	d003      	beq.n	4050d8 <_dtoa_r+0x720>
  4050d0:	4659      	mov	r1, fp
  4050d2:	4620      	mov	r0, r4
  4050d4:	f000 ff98 	bl	406008 <_Bfree>
  4050d8:	4631      	mov	r1, r6
  4050da:	4620      	mov	r0, r4
  4050dc:	f000 ff94 	bl	406008 <_Bfree>
  4050e0:	e62e      	b.n	404d40 <_dtoa_r+0x388>
  4050e2:	2300      	movs	r3, #0
  4050e4:	930b      	str	r3, [sp, #44]	; 0x2c
  4050e6:	9b02      	ldr	r3, [sp, #8]
  4050e8:	9a25      	ldr	r2, [sp, #148]	; 0x94
  4050ea:	4413      	add	r3, r2
  4050ec:	930f      	str	r3, [sp, #60]	; 0x3c
  4050ee:	3301      	adds	r3, #1
  4050f0:	2b01      	cmp	r3, #1
  4050f2:	461f      	mov	r7, r3
  4050f4:	461e      	mov	r6, r3
  4050f6:	930a      	str	r3, [sp, #40]	; 0x28
  4050f8:	bfb8      	it	lt
  4050fa:	2701      	movlt	r7, #1
  4050fc:	2100      	movs	r1, #0
  4050fe:	2f17      	cmp	r7, #23
  405100:	6461      	str	r1, [r4, #68]	; 0x44
  405102:	d90a      	bls.n	40511a <_dtoa_r+0x762>
  405104:	2201      	movs	r2, #1
  405106:	2304      	movs	r3, #4
  405108:	005b      	lsls	r3, r3, #1
  40510a:	f103 0014 	add.w	r0, r3, #20
  40510e:	4287      	cmp	r7, r0
  405110:	4611      	mov	r1, r2
  405112:	f102 0201 	add.w	r2, r2, #1
  405116:	d2f7      	bcs.n	405108 <_dtoa_r+0x750>
  405118:	6461      	str	r1, [r4, #68]	; 0x44
  40511a:	4620      	mov	r0, r4
  40511c:	f000 ff4e 	bl	405fbc <_Balloc>
  405120:	2e0e      	cmp	r6, #14
  405122:	9004      	str	r0, [sp, #16]
  405124:	6420      	str	r0, [r4, #64]	; 0x40
  405126:	f63f ad41 	bhi.w	404bac <_dtoa_r+0x1f4>
  40512a:	2d00      	cmp	r5, #0
  40512c:	f43f ad3e 	beq.w	404bac <_dtoa_r+0x1f4>
  405130:	9902      	ldr	r1, [sp, #8]
  405132:	2900      	cmp	r1, #0
  405134:	e9cd ab10 	strd	sl, fp, [sp, #64]	; 0x40
  405138:	f340 8202 	ble.w	405540 <_dtoa_r+0xb88>
  40513c:	4bb8      	ldr	r3, [pc, #736]	; (405420 <_dtoa_r+0xa68>)
  40513e:	f001 020f 	and.w	r2, r1, #15
  405142:	110d      	asrs	r5, r1, #4
  405144:	eb03 03c2 	add.w	r3, r3, r2, lsl #3
  405148:	06e9      	lsls	r1, r5, #27
  40514a:	e9d3 6700 	ldrd	r6, r7, [r3]
  40514e:	f140 81ae 	bpl.w	4054ae <_dtoa_r+0xaf6>
  405152:	4bb4      	ldr	r3, [pc, #720]	; (405424 <_dtoa_r+0xa6c>)
  405154:	4650      	mov	r0, sl
  405156:	4659      	mov	r1, fp
  405158:	e9d3 2308 	ldrd	r2, r3, [r3, #32]
  40515c:	f002 fa14 	bl	407588 <__aeabi_ddiv>
  405160:	e9cd 0112 	strd	r0, r1, [sp, #72]	; 0x48
  405164:	f005 050f 	and.w	r5, r5, #15
  405168:	f04f 0a03 	mov.w	sl, #3
  40516c:	b18d      	cbz	r5, 405192 <_dtoa_r+0x7da>
  40516e:	f8df 82b4 	ldr.w	r8, [pc, #692]	; 405424 <_dtoa_r+0xa6c>
  405172:	07ea      	lsls	r2, r5, #31
  405174:	d509      	bpl.n	40518a <_dtoa_r+0x7d2>
  405176:	4630      	mov	r0, r6
  405178:	4639      	mov	r1, r7
  40517a:	e9d8 2300 	ldrd	r2, r3, [r8]
  40517e:	f002 f8d9 	bl	407334 <__aeabi_dmul>
  405182:	f10a 0a01 	add.w	sl, sl, #1
  405186:	4606      	mov	r6, r0
  405188:	460f      	mov	r7, r1
  40518a:	106d      	asrs	r5, r5, #1
  40518c:	f108 0808 	add.w	r8, r8, #8
  405190:	d1ef      	bne.n	405172 <_dtoa_r+0x7ba>
  405192:	463b      	mov	r3, r7
  405194:	4632      	mov	r2, r6
  405196:	e9dd 0112 	ldrd	r0, r1, [sp, #72]	; 0x48
  40519a:	f002 f9f5 	bl	407588 <__aeabi_ddiv>
  40519e:	4607      	mov	r7, r0
  4051a0:	4688      	mov	r8, r1
  4051a2:	9b0e      	ldr	r3, [sp, #56]	; 0x38
  4051a4:	b143      	cbz	r3, 4051b8 <_dtoa_r+0x800>
  4051a6:	2200      	movs	r2, #0
  4051a8:	4b9f      	ldr	r3, [pc, #636]	; (405428 <_dtoa_r+0xa70>)
  4051aa:	4638      	mov	r0, r7
  4051ac:	4641      	mov	r1, r8
  4051ae:	f002 fb33 	bl	407818 <__aeabi_dcmplt>
  4051b2:	2800      	cmp	r0, #0
  4051b4:	f040 8286 	bne.w	4056c4 <_dtoa_r+0xd0c>
  4051b8:	4650      	mov	r0, sl
  4051ba:	f002 f855 	bl	407268 <__aeabi_i2d>
  4051be:	463a      	mov	r2, r7
  4051c0:	4643      	mov	r3, r8
  4051c2:	f002 f8b7 	bl	407334 <__aeabi_dmul>
  4051c6:	4b99      	ldr	r3, [pc, #612]	; (40542c <_dtoa_r+0xa74>)
  4051c8:	2200      	movs	r2, #0
  4051ca:	f001 ff01 	bl	406fd0 <__adddf3>
  4051ce:	9b0a      	ldr	r3, [sp, #40]	; 0x28
  4051d0:	4605      	mov	r5, r0
  4051d2:	f1a1 7650 	sub.w	r6, r1, #54525952	; 0x3400000
  4051d6:	2b00      	cmp	r3, #0
  4051d8:	f000 813e 	beq.w	405458 <_dtoa_r+0xaa0>
  4051dc:	9b02      	ldr	r3, [sp, #8]
  4051de:	9315      	str	r3, [sp, #84]	; 0x54
  4051e0:	9b0a      	ldr	r3, [sp, #40]	; 0x28
  4051e2:	9312      	str	r3, [sp, #72]	; 0x48
  4051e4:	9b0b      	ldr	r3, [sp, #44]	; 0x2c
  4051e6:	2b00      	cmp	r3, #0
  4051e8:	f000 81fa 	beq.w	4055e0 <_dtoa_r+0xc28>
  4051ec:	9a12      	ldr	r2, [sp, #72]	; 0x48
  4051ee:	4b8c      	ldr	r3, [pc, #560]	; (405420 <_dtoa_r+0xa68>)
  4051f0:	498f      	ldr	r1, [pc, #572]	; (405430 <_dtoa_r+0xa78>)
  4051f2:	eb03 03c2 	add.w	r3, r3, r2, lsl #3
  4051f6:	e953 2302 	ldrd	r2, r3, [r3, #-8]
  4051fa:	2000      	movs	r0, #0
  4051fc:	f002 f9c4 	bl	407588 <__aeabi_ddiv>
  405200:	462a      	mov	r2, r5
  405202:	4633      	mov	r3, r6
  405204:	f001 fee2 	bl	406fcc <__aeabi_dsub>
  405208:	4682      	mov	sl, r0
  40520a:	468b      	mov	fp, r1
  40520c:	4638      	mov	r0, r7
  40520e:	4641      	mov	r1, r8
  405210:	f002 fb40 	bl	407894 <__aeabi_d2iz>
  405214:	4605      	mov	r5, r0
  405216:	f002 f827 	bl	407268 <__aeabi_i2d>
  40521a:	4602      	mov	r2, r0
  40521c:	460b      	mov	r3, r1
  40521e:	4638      	mov	r0, r7
  405220:	4641      	mov	r1, r8
  405222:	f001 fed3 	bl	406fcc <__aeabi_dsub>
  405226:	3530      	adds	r5, #48	; 0x30
  405228:	fa5f f885 	uxtb.w	r8, r5
  40522c:	9d04      	ldr	r5, [sp, #16]
  40522e:	4606      	mov	r6, r0
  405230:	460f      	mov	r7, r1
  405232:	f885 8000 	strb.w	r8, [r5]
  405236:	4602      	mov	r2, r0
  405238:	460b      	mov	r3, r1
  40523a:	4650      	mov	r0, sl
  40523c:	4659      	mov	r1, fp
  40523e:	3501      	adds	r5, #1
  405240:	f002 fb08 	bl	407854 <__aeabi_dcmpgt>
  405244:	2800      	cmp	r0, #0
  405246:	d154      	bne.n	4052f2 <_dtoa_r+0x93a>
  405248:	4632      	mov	r2, r6
  40524a:	463b      	mov	r3, r7
  40524c:	2000      	movs	r0, #0
  40524e:	4976      	ldr	r1, [pc, #472]	; (405428 <_dtoa_r+0xa70>)
  405250:	f001 febc 	bl	406fcc <__aeabi_dsub>
  405254:	4602      	mov	r2, r0
  405256:	460b      	mov	r3, r1
  405258:	4650      	mov	r0, sl
  40525a:	4659      	mov	r1, fp
  40525c:	f002 fafa 	bl	407854 <__aeabi_dcmpgt>
  405260:	2800      	cmp	r0, #0
  405262:	f040 8270 	bne.w	405746 <_dtoa_r+0xd8e>
  405266:	9a12      	ldr	r2, [sp, #72]	; 0x48
  405268:	2a01      	cmp	r2, #1
  40526a:	f000 8111 	beq.w	405490 <_dtoa_r+0xad8>
  40526e:	9b12      	ldr	r3, [sp, #72]	; 0x48
  405270:	9a04      	ldr	r2, [sp, #16]
  405272:	f8cd 9048 	str.w	r9, [sp, #72]	; 0x48
  405276:	4413      	add	r3, r2
  405278:	4699      	mov	r9, r3
  40527a:	e00d      	b.n	405298 <_dtoa_r+0x8e0>
  40527c:	2000      	movs	r0, #0
  40527e:	496a      	ldr	r1, [pc, #424]	; (405428 <_dtoa_r+0xa70>)
  405280:	f001 fea4 	bl	406fcc <__aeabi_dsub>
  405284:	4652      	mov	r2, sl
  405286:	465b      	mov	r3, fp
  405288:	f002 fac6 	bl	407818 <__aeabi_dcmplt>
  40528c:	2800      	cmp	r0, #0
  40528e:	f040 8258 	bne.w	405742 <_dtoa_r+0xd8a>
  405292:	454d      	cmp	r5, r9
  405294:	f000 80fa 	beq.w	40548c <_dtoa_r+0xad4>
  405298:	4650      	mov	r0, sl
  40529a:	4659      	mov	r1, fp
  40529c:	2200      	movs	r2, #0
  40529e:	4b65      	ldr	r3, [pc, #404]	; (405434 <_dtoa_r+0xa7c>)
  4052a0:	f002 f848 	bl	407334 <__aeabi_dmul>
  4052a4:	2200      	movs	r2, #0
  4052a6:	4b63      	ldr	r3, [pc, #396]	; (405434 <_dtoa_r+0xa7c>)
  4052a8:	4682      	mov	sl, r0
  4052aa:	468b      	mov	fp, r1
  4052ac:	4630      	mov	r0, r6
  4052ae:	4639      	mov	r1, r7
  4052b0:	f002 f840 	bl	407334 <__aeabi_dmul>
  4052b4:	460f      	mov	r7, r1
  4052b6:	4606      	mov	r6, r0
  4052b8:	f002 faec 	bl	407894 <__aeabi_d2iz>
  4052bc:	4680      	mov	r8, r0
  4052be:	f001 ffd3 	bl	407268 <__aeabi_i2d>
  4052c2:	4602      	mov	r2, r0
  4052c4:	460b      	mov	r3, r1
  4052c6:	4630      	mov	r0, r6
  4052c8:	4639      	mov	r1, r7
  4052ca:	f001 fe7f 	bl	406fcc <__aeabi_dsub>
  4052ce:	f108 0830 	add.w	r8, r8, #48	; 0x30
  4052d2:	fa5f f888 	uxtb.w	r8, r8
  4052d6:	4652      	mov	r2, sl
  4052d8:	465b      	mov	r3, fp
  4052da:	f805 8b01 	strb.w	r8, [r5], #1
  4052de:	4606      	mov	r6, r0
  4052e0:	460f      	mov	r7, r1
  4052e2:	f002 fa99 	bl	407818 <__aeabi_dcmplt>
  4052e6:	4632      	mov	r2, r6
  4052e8:	463b      	mov	r3, r7
  4052ea:	2800      	cmp	r0, #0
  4052ec:	d0c6      	beq.n	40527c <_dtoa_r+0x8c4>
  4052ee:	f8dd 9048 	ldr.w	r9, [sp, #72]	; 0x48
  4052f2:	9b15      	ldr	r3, [sp, #84]	; 0x54
  4052f4:	9302      	str	r3, [sp, #8]
  4052f6:	e523      	b.n	404d40 <_dtoa_r+0x388>
  4052f8:	2300      	movs	r3, #0
  4052fa:	930b      	str	r3, [sp, #44]	; 0x2c
  4052fc:	9b25      	ldr	r3, [sp, #148]	; 0x94
  4052fe:	2b00      	cmp	r3, #0
  405300:	f340 80dc 	ble.w	4054bc <_dtoa_r+0xb04>
  405304:	461f      	mov	r7, r3
  405306:	461e      	mov	r6, r3
  405308:	930f      	str	r3, [sp, #60]	; 0x3c
  40530a:	930a      	str	r3, [sp, #40]	; 0x28
  40530c:	e6f6      	b.n	4050fc <_dtoa_r+0x744>
  40530e:	2301      	movs	r3, #1
  405310:	930b      	str	r3, [sp, #44]	; 0x2c
  405312:	e7f3      	b.n	4052fc <_dtoa_r+0x944>
  405314:	f1ba 0f00 	cmp.w	sl, #0
  405318:	f47f ada8 	bne.w	404e6c <_dtoa_r+0x4b4>
  40531c:	f3cb 0313 	ubfx	r3, fp, #0, #20
  405320:	2b00      	cmp	r3, #0
  405322:	f47f adba 	bne.w	404e9a <_dtoa_r+0x4e2>
  405326:	f02b 4700 	bic.w	r7, fp, #2147483648	; 0x80000000
  40532a:	0d3f      	lsrs	r7, r7, #20
  40532c:	053f      	lsls	r7, r7, #20
  40532e:	2f00      	cmp	r7, #0
  405330:	f000 820d 	beq.w	40574e <_dtoa_r+0xd96>
  405334:	9b08      	ldr	r3, [sp, #32]
  405336:	3301      	adds	r3, #1
  405338:	9308      	str	r3, [sp, #32]
  40533a:	9b06      	ldr	r3, [sp, #24]
  40533c:	3301      	adds	r3, #1
  40533e:	9306      	str	r3, [sp, #24]
  405340:	2301      	movs	r3, #1
  405342:	930c      	str	r3, [sp, #48]	; 0x30
  405344:	e5ab      	b.n	404e9e <_dtoa_r+0x4e6>
  405346:	9b0a      	ldr	r3, [sp, #40]	; 0x28
  405348:	2b00      	cmp	r3, #0
  40534a:	f73f ac42 	bgt.w	404bd2 <_dtoa_r+0x21a>
  40534e:	f040 8221 	bne.w	405794 <_dtoa_r+0xddc>
  405352:	2200      	movs	r2, #0
  405354:	4b38      	ldr	r3, [pc, #224]	; (405438 <_dtoa_r+0xa80>)
  405356:	e9dd 0108 	ldrd	r0, r1, [sp, #32]
  40535a:	f001 ffeb 	bl	407334 <__aeabi_dmul>
  40535e:	4652      	mov	r2, sl
  405360:	465b      	mov	r3, fp
  405362:	f002 fa6d 	bl	407840 <__aeabi_dcmpge>
  405366:	f8dd 8028 	ldr.w	r8, [sp, #40]	; 0x28
  40536a:	4646      	mov	r6, r8
  40536c:	2800      	cmp	r0, #0
  40536e:	d041      	beq.n	4053f4 <_dtoa_r+0xa3c>
  405370:	9b25      	ldr	r3, [sp, #148]	; 0x94
  405372:	9d04      	ldr	r5, [sp, #16]
  405374:	43db      	mvns	r3, r3
  405376:	9302      	str	r3, [sp, #8]
  405378:	4641      	mov	r1, r8
  40537a:	4620      	mov	r0, r4
  40537c:	f000 fe44 	bl	406008 <_Bfree>
  405380:	2e00      	cmp	r6, #0
  405382:	f43f acdd 	beq.w	404d40 <_dtoa_r+0x388>
  405386:	e6a7      	b.n	4050d8 <_dtoa_r+0x720>
  405388:	9a0c      	ldr	r2, [sp, #48]	; 0x30
  40538a:	4649      	mov	r1, r9
  40538c:	4620      	mov	r0, r4
  40538e:	f000 ff71 	bl	406274 <__pow5mult>
  405392:	4681      	mov	r9, r0
  405394:	e558      	b.n	404e48 <_dtoa_r+0x490>
  405396:	9a14      	ldr	r2, [sp, #80]	; 0x50
  405398:	2a00      	cmp	r2, #0
  40539a:	f000 8187 	beq.w	4056ac <_dtoa_r+0xcf4>
  40539e:	f203 4333 	addw	r3, r3, #1075	; 0x433
  4053a2:	9f0c      	ldr	r7, [sp, #48]	; 0x30
  4053a4:	9d08      	ldr	r5, [sp, #32]
  4053a6:	e4f2      	b.n	404d8e <_dtoa_r+0x3d6>
  4053a8:	f1ba 0f00 	cmp.w	sl, #0
  4053ac:	f47f ad75 	bne.w	404e9a <_dtoa_r+0x4e2>
  4053b0:	e7b4      	b.n	40531c <_dtoa_r+0x964>
  4053b2:	f000 fe33 	bl	40601c <__multadd>
  4053b6:	4647      	mov	r7, r8
  4053b8:	4606      	mov	r6, r0
  4053ba:	4683      	mov	fp, r0
  4053bc:	e5be      	b.n	404f3c <_dtoa_r+0x584>
  4053be:	4601      	mov	r1, r0
  4053c0:	4620      	mov	r0, r4
  4053c2:	9306      	str	r3, [sp, #24]
  4053c4:	f000 fe20 	bl	406008 <_Bfree>
  4053c8:	2201      	movs	r2, #1
  4053ca:	9b06      	ldr	r3, [sp, #24]
  4053cc:	e5e0      	b.n	404f90 <_dtoa_r+0x5d8>
  4053ce:	9b24      	ldr	r3, [sp, #144]	; 0x90
  4053d0:	2b02      	cmp	r3, #2
  4053d2:	f77f ad96 	ble.w	404f02 <_dtoa_r+0x54a>
  4053d6:	9b0a      	ldr	r3, [sp, #40]	; 0x28
  4053d8:	2b00      	cmp	r3, #0
  4053da:	d1c9      	bne.n	405370 <_dtoa_r+0x9b8>
  4053dc:	4641      	mov	r1, r8
  4053de:	2205      	movs	r2, #5
  4053e0:	4620      	mov	r0, r4
  4053e2:	f000 fe1b 	bl	40601c <__multadd>
  4053e6:	4601      	mov	r1, r0
  4053e8:	4680      	mov	r8, r0
  4053ea:	4648      	mov	r0, r9
  4053ec:	f000 ffe4 	bl	4063b8 <__mcmp>
  4053f0:	2800      	cmp	r0, #0
  4053f2:	ddbd      	ble.n	405370 <_dtoa_r+0x9b8>
  4053f4:	9a02      	ldr	r2, [sp, #8]
  4053f6:	9904      	ldr	r1, [sp, #16]
  4053f8:	2331      	movs	r3, #49	; 0x31
  4053fa:	3201      	adds	r2, #1
  4053fc:	9202      	str	r2, [sp, #8]
  4053fe:	700b      	strb	r3, [r1, #0]
  405400:	1c4d      	adds	r5, r1, #1
  405402:	e7b9      	b.n	405378 <_dtoa_r+0x9c0>
  405404:	9a02      	ldr	r2, [sp, #8]
  405406:	3201      	adds	r2, #1
  405408:	9202      	str	r2, [sp, #8]
  40540a:	9a04      	ldr	r2, [sp, #16]
  40540c:	2331      	movs	r3, #49	; 0x31
  40540e:	7013      	strb	r3, [r2, #0]
  405410:	e652      	b.n	4050b8 <_dtoa_r+0x700>
  405412:	2301      	movs	r3, #1
  405414:	930b      	str	r3, [sp, #44]	; 0x2c
  405416:	e666      	b.n	4050e6 <_dtoa_r+0x72e>
  405418:	f8dd 902c 	ldr.w	r9, [sp, #44]	; 0x2c
  40541c:	9c0c      	ldr	r4, [sp, #48]	; 0x30
  40541e:	e48f      	b.n	404d40 <_dtoa_r+0x388>
  405420:	004083d8 	.word	0x004083d8
  405424:	004083b0 	.word	0x004083b0
  405428:	3ff00000 	.word	0x3ff00000
  40542c:	401c0000 	.word	0x401c0000
  405430:	3fe00000 	.word	0x3fe00000
  405434:	40240000 	.word	0x40240000
  405438:	40140000 	.word	0x40140000
  40543c:	4650      	mov	r0, sl
  40543e:	f001 ff13 	bl	407268 <__aeabi_i2d>
  405442:	463a      	mov	r2, r7
  405444:	4643      	mov	r3, r8
  405446:	f001 ff75 	bl	407334 <__aeabi_dmul>
  40544a:	2200      	movs	r2, #0
  40544c:	4bc1      	ldr	r3, [pc, #772]	; (405754 <_dtoa_r+0xd9c>)
  40544e:	f001 fdbf 	bl	406fd0 <__adddf3>
  405452:	4605      	mov	r5, r0
  405454:	f1a1 7650 	sub.w	r6, r1, #54525952	; 0x3400000
  405458:	4641      	mov	r1, r8
  40545a:	2200      	movs	r2, #0
  40545c:	4bbe      	ldr	r3, [pc, #760]	; (405758 <_dtoa_r+0xda0>)
  40545e:	4638      	mov	r0, r7
  405460:	f001 fdb4 	bl	406fcc <__aeabi_dsub>
  405464:	462a      	mov	r2, r5
  405466:	4633      	mov	r3, r6
  405468:	4682      	mov	sl, r0
  40546a:	468b      	mov	fp, r1
  40546c:	f002 f9f2 	bl	407854 <__aeabi_dcmpgt>
  405470:	4680      	mov	r8, r0
  405472:	2800      	cmp	r0, #0
  405474:	f040 8110 	bne.w	405698 <_dtoa_r+0xce0>
  405478:	462a      	mov	r2, r5
  40547a:	f106 4300 	add.w	r3, r6, #2147483648	; 0x80000000
  40547e:	4650      	mov	r0, sl
  405480:	4659      	mov	r1, fp
  405482:	f002 f9c9 	bl	407818 <__aeabi_dcmplt>
  405486:	b118      	cbz	r0, 405490 <_dtoa_r+0xad8>
  405488:	4646      	mov	r6, r8
  40548a:	e771      	b.n	405370 <_dtoa_r+0x9b8>
  40548c:	f8dd 9048 	ldr.w	r9, [sp, #72]	; 0x48
  405490:	e9dd ab10 	ldrd	sl, fp, [sp, #64]	; 0x40
  405494:	f7ff bb8a 	b.w	404bac <_dtoa_r+0x1f4>
  405498:	9804      	ldr	r0, [sp, #16]
  40549a:	f7ff babb 	b.w	404a14 <_dtoa_r+0x5c>
  40549e:	9b0c      	ldr	r3, [sp, #48]	; 0x30
  4054a0:	9a0d      	ldr	r2, [sp, #52]	; 0x34
  4054a2:	970c      	str	r7, [sp, #48]	; 0x30
  4054a4:	1afb      	subs	r3, r7, r3
  4054a6:	441a      	add	r2, r3
  4054a8:	920d      	str	r2, [sp, #52]	; 0x34
  4054aa:	2700      	movs	r7, #0
  4054ac:	e469      	b.n	404d82 <_dtoa_r+0x3ca>
  4054ae:	e9dd 2310 	ldrd	r2, r3, [sp, #64]	; 0x40
  4054b2:	f04f 0a02 	mov.w	sl, #2
  4054b6:	e9cd 2312 	strd	r2, r3, [sp, #72]	; 0x48
  4054ba:	e657      	b.n	40516c <_dtoa_r+0x7b4>
  4054bc:	2100      	movs	r1, #0
  4054be:	2301      	movs	r3, #1
  4054c0:	6461      	str	r1, [r4, #68]	; 0x44
  4054c2:	4620      	mov	r0, r4
  4054c4:	9325      	str	r3, [sp, #148]	; 0x94
  4054c6:	f000 fd79 	bl	405fbc <_Balloc>
  4054ca:	9b25      	ldr	r3, [sp, #148]	; 0x94
  4054cc:	9004      	str	r0, [sp, #16]
  4054ce:	6420      	str	r0, [r4, #64]	; 0x40
  4054d0:	930a      	str	r3, [sp, #40]	; 0x28
  4054d2:	930f      	str	r3, [sp, #60]	; 0x3c
  4054d4:	e629      	b.n	40512a <_dtoa_r+0x772>
  4054d6:	2a00      	cmp	r2, #0
  4054d8:	46d0      	mov	r8, sl
  4054da:	f8cd b018 	str.w	fp, [sp, #24]
  4054de:	469a      	mov	sl, r3
  4054e0:	dd11      	ble.n	405506 <_dtoa_r+0xb4e>
  4054e2:	4649      	mov	r1, r9
  4054e4:	2201      	movs	r2, #1
  4054e6:	4620      	mov	r0, r4
  4054e8:	f000 ff14 	bl	406314 <__lshift>
  4054ec:	4641      	mov	r1, r8
  4054ee:	4681      	mov	r9, r0
  4054f0:	f000 ff62 	bl	4063b8 <__mcmp>
  4054f4:	2800      	cmp	r0, #0
  4054f6:	f340 8146 	ble.w	405786 <_dtoa_r+0xdce>
  4054fa:	f1ba 0f39 	cmp.w	sl, #57	; 0x39
  4054fe:	f000 8106 	beq.w	40570e <_dtoa_r+0xd56>
  405502:	f105 0a31 	add.w	sl, r5, #49	; 0x31
  405506:	46b3      	mov	fp, r6
  405508:	f887 a000 	strb.w	sl, [r7]
  40550c:	1c7d      	adds	r5, r7, #1
  40550e:	9e06      	ldr	r6, [sp, #24]
  405510:	e5d2      	b.n	4050b8 <_dtoa_r+0x700>
  405512:	d104      	bne.n	40551e <_dtoa_r+0xb66>
  405514:	f01a 0f01 	tst.w	sl, #1
  405518:	d001      	beq.n	40551e <_dtoa_r+0xb66>
  40551a:	e5bd      	b.n	405098 <_dtoa_r+0x6e0>
  40551c:	4615      	mov	r5, r2
  40551e:	f815 3c01 	ldrb.w	r3, [r5, #-1]
  405522:	2b30      	cmp	r3, #48	; 0x30
  405524:	f105 32ff 	add.w	r2, r5, #4294967295
  405528:	d0f8      	beq.n	40551c <_dtoa_r+0xb64>
  40552a:	e5c5      	b.n	4050b8 <_dtoa_r+0x700>
  40552c:	9904      	ldr	r1, [sp, #16]
  40552e:	2230      	movs	r2, #48	; 0x30
  405530:	700a      	strb	r2, [r1, #0]
  405532:	9a02      	ldr	r2, [sp, #8]
  405534:	f815 8c01 	ldrb.w	r8, [r5, #-1]
  405538:	3201      	adds	r2, #1
  40553a:	9202      	str	r2, [sp, #8]
  40553c:	f7ff bbfc 	b.w	404d38 <_dtoa_r+0x380>
  405540:	f000 80bb 	beq.w	4056ba <_dtoa_r+0xd02>
  405544:	9b02      	ldr	r3, [sp, #8]
  405546:	425d      	negs	r5, r3
  405548:	4b84      	ldr	r3, [pc, #528]	; (40575c <_dtoa_r+0xda4>)
  40554a:	f005 020f 	and.w	r2, r5, #15
  40554e:	eb03 03c2 	add.w	r3, r3, r2, lsl #3
  405552:	e9d3 2300 	ldrd	r2, r3, [r3]
  405556:	e9dd 0110 	ldrd	r0, r1, [sp, #64]	; 0x40
  40555a:	f001 feeb 	bl	407334 <__aeabi_dmul>
  40555e:	112d      	asrs	r5, r5, #4
  405560:	4607      	mov	r7, r0
  405562:	4688      	mov	r8, r1
  405564:	f000 812c 	beq.w	4057c0 <_dtoa_r+0xe08>
  405568:	4e7d      	ldr	r6, [pc, #500]	; (405760 <_dtoa_r+0xda8>)
  40556a:	f04f 0a02 	mov.w	sl, #2
  40556e:	07eb      	lsls	r3, r5, #31
  405570:	d509      	bpl.n	405586 <_dtoa_r+0xbce>
  405572:	4638      	mov	r0, r7
  405574:	4641      	mov	r1, r8
  405576:	e9d6 2300 	ldrd	r2, r3, [r6]
  40557a:	f001 fedb 	bl	407334 <__aeabi_dmul>
  40557e:	f10a 0a01 	add.w	sl, sl, #1
  405582:	4607      	mov	r7, r0
  405584:	4688      	mov	r8, r1
  405586:	106d      	asrs	r5, r5, #1
  405588:	f106 0608 	add.w	r6, r6, #8
  40558c:	d1ef      	bne.n	40556e <_dtoa_r+0xbb6>
  40558e:	e608      	b.n	4051a2 <_dtoa_r+0x7ea>
  405590:	6871      	ldr	r1, [r6, #4]
  405592:	4620      	mov	r0, r4
  405594:	f000 fd12 	bl	405fbc <_Balloc>
  405598:	6933      	ldr	r3, [r6, #16]
  40559a:	3302      	adds	r3, #2
  40559c:	009a      	lsls	r2, r3, #2
  40559e:	4605      	mov	r5, r0
  4055a0:	f106 010c 	add.w	r1, r6, #12
  4055a4:	300c      	adds	r0, #12
  4055a6:	f000 fc63 	bl	405e70 <memcpy>
  4055aa:	4629      	mov	r1, r5
  4055ac:	2201      	movs	r2, #1
  4055ae:	4620      	mov	r0, r4
  4055b0:	f000 feb0 	bl	406314 <__lshift>
  4055b4:	9006      	str	r0, [sp, #24]
  4055b6:	e4b5      	b.n	404f24 <_dtoa_r+0x56c>
  4055b8:	2b39      	cmp	r3, #57	; 0x39
  4055ba:	f8cd b018 	str.w	fp, [sp, #24]
  4055be:	46d0      	mov	r8, sl
  4055c0:	f000 80a5 	beq.w	40570e <_dtoa_r+0xd56>
  4055c4:	f103 0a01 	add.w	sl, r3, #1
  4055c8:	46b3      	mov	fp, r6
  4055ca:	f887 a000 	strb.w	sl, [r7]
  4055ce:	1c7d      	adds	r5, r7, #1
  4055d0:	9e06      	ldr	r6, [sp, #24]
  4055d2:	e571      	b.n	4050b8 <_dtoa_r+0x700>
  4055d4:	465a      	mov	r2, fp
  4055d6:	46d0      	mov	r8, sl
  4055d8:	46b3      	mov	fp, r6
  4055da:	469a      	mov	sl, r3
  4055dc:	4616      	mov	r6, r2
  4055de:	e54f      	b.n	405080 <_dtoa_r+0x6c8>
  4055e0:	9b12      	ldr	r3, [sp, #72]	; 0x48
  4055e2:	495e      	ldr	r1, [pc, #376]	; (40575c <_dtoa_r+0xda4>)
  4055e4:	eb01 01c3 	add.w	r1, r1, r3, lsl #3
  4055e8:	462a      	mov	r2, r5
  4055ea:	4633      	mov	r3, r6
  4055ec:	e951 0102 	ldrd	r0, r1, [r1, #-8]
  4055f0:	f001 fea0 	bl	407334 <__aeabi_dmul>
  4055f4:	e9cd 0116 	strd	r0, r1, [sp, #88]	; 0x58
  4055f8:	4638      	mov	r0, r7
  4055fa:	4641      	mov	r1, r8
  4055fc:	f002 f94a 	bl	407894 <__aeabi_d2iz>
  405600:	4605      	mov	r5, r0
  405602:	f001 fe31 	bl	407268 <__aeabi_i2d>
  405606:	460b      	mov	r3, r1
  405608:	4602      	mov	r2, r0
  40560a:	4641      	mov	r1, r8
  40560c:	4638      	mov	r0, r7
  40560e:	f001 fcdd 	bl	406fcc <__aeabi_dsub>
  405612:	9b12      	ldr	r3, [sp, #72]	; 0x48
  405614:	460f      	mov	r7, r1
  405616:	9904      	ldr	r1, [sp, #16]
  405618:	3530      	adds	r5, #48	; 0x30
  40561a:	2b01      	cmp	r3, #1
  40561c:	700d      	strb	r5, [r1, #0]
  40561e:	4606      	mov	r6, r0
  405620:	f101 0501 	add.w	r5, r1, #1
  405624:	d026      	beq.n	405674 <_dtoa_r+0xcbc>
  405626:	9b12      	ldr	r3, [sp, #72]	; 0x48
  405628:	9a04      	ldr	r2, [sp, #16]
  40562a:	f8df b13c 	ldr.w	fp, [pc, #316]	; 405768 <_dtoa_r+0xdb0>
  40562e:	f8cd 9048 	str.w	r9, [sp, #72]	; 0x48
  405632:	4413      	add	r3, r2
  405634:	f04f 0a00 	mov.w	sl, #0
  405638:	4699      	mov	r9, r3
  40563a:	4652      	mov	r2, sl
  40563c:	465b      	mov	r3, fp
  40563e:	4630      	mov	r0, r6
  405640:	4639      	mov	r1, r7
  405642:	f001 fe77 	bl	407334 <__aeabi_dmul>
  405646:	460f      	mov	r7, r1
  405648:	4606      	mov	r6, r0
  40564a:	f002 f923 	bl	407894 <__aeabi_d2iz>
  40564e:	4680      	mov	r8, r0
  405650:	f001 fe0a 	bl	407268 <__aeabi_i2d>
  405654:	f108 0830 	add.w	r8, r8, #48	; 0x30
  405658:	4602      	mov	r2, r0
  40565a:	460b      	mov	r3, r1
  40565c:	4630      	mov	r0, r6
  40565e:	4639      	mov	r1, r7
  405660:	f001 fcb4 	bl	406fcc <__aeabi_dsub>
  405664:	f805 8b01 	strb.w	r8, [r5], #1
  405668:	454d      	cmp	r5, r9
  40566a:	4606      	mov	r6, r0
  40566c:	460f      	mov	r7, r1
  40566e:	d1e4      	bne.n	40563a <_dtoa_r+0xc82>
  405670:	f8dd 9048 	ldr.w	r9, [sp, #72]	; 0x48
  405674:	4b3b      	ldr	r3, [pc, #236]	; (405764 <_dtoa_r+0xdac>)
  405676:	2200      	movs	r2, #0
  405678:	e9dd 0116 	ldrd	r0, r1, [sp, #88]	; 0x58
  40567c:	f001 fca8 	bl	406fd0 <__adddf3>
  405680:	4632      	mov	r2, r6
  405682:	463b      	mov	r3, r7
  405684:	f002 f8c8 	bl	407818 <__aeabi_dcmplt>
  405688:	2800      	cmp	r0, #0
  40568a:	d046      	beq.n	40571a <_dtoa_r+0xd62>
  40568c:	9b15      	ldr	r3, [sp, #84]	; 0x54
  40568e:	9302      	str	r3, [sp, #8]
  405690:	f815 8c01 	ldrb.w	r8, [r5, #-1]
  405694:	f7ff bb43 	b.w	404d1e <_dtoa_r+0x366>
  405698:	f04f 0800 	mov.w	r8, #0
  40569c:	4646      	mov	r6, r8
  40569e:	e6a9      	b.n	4053f4 <_dtoa_r+0xa3c>
  4056a0:	9b08      	ldr	r3, [sp, #32]
  4056a2:	9a0a      	ldr	r2, [sp, #40]	; 0x28
  4056a4:	1a9d      	subs	r5, r3, r2
  4056a6:	2300      	movs	r3, #0
  4056a8:	f7ff bb71 	b.w	404d8e <_dtoa_r+0x3d6>
  4056ac:	9b18      	ldr	r3, [sp, #96]	; 0x60
  4056ae:	9f0c      	ldr	r7, [sp, #48]	; 0x30
  4056b0:	9d08      	ldr	r5, [sp, #32]
  4056b2:	f1c3 0336 	rsb	r3, r3, #54	; 0x36
  4056b6:	f7ff bb6a 	b.w	404d8e <_dtoa_r+0x3d6>
  4056ba:	e9dd 7810 	ldrd	r7, r8, [sp, #64]	; 0x40
  4056be:	f04f 0a02 	mov.w	sl, #2
  4056c2:	e56e      	b.n	4051a2 <_dtoa_r+0x7ea>
  4056c4:	9b0a      	ldr	r3, [sp, #40]	; 0x28
  4056c6:	2b00      	cmp	r3, #0
  4056c8:	f43f aeb8 	beq.w	40543c <_dtoa_r+0xa84>
  4056cc:	9b0f      	ldr	r3, [sp, #60]	; 0x3c
  4056ce:	2b00      	cmp	r3, #0
  4056d0:	f77f aede 	ble.w	405490 <_dtoa_r+0xad8>
  4056d4:	2200      	movs	r2, #0
  4056d6:	4b24      	ldr	r3, [pc, #144]	; (405768 <_dtoa_r+0xdb0>)
  4056d8:	4638      	mov	r0, r7
  4056da:	4641      	mov	r1, r8
  4056dc:	f001 fe2a 	bl	407334 <__aeabi_dmul>
  4056e0:	4607      	mov	r7, r0
  4056e2:	4688      	mov	r8, r1
  4056e4:	f10a 0001 	add.w	r0, sl, #1
  4056e8:	f001 fdbe 	bl	407268 <__aeabi_i2d>
  4056ec:	463a      	mov	r2, r7
  4056ee:	4643      	mov	r3, r8
  4056f0:	f001 fe20 	bl	407334 <__aeabi_dmul>
  4056f4:	2200      	movs	r2, #0
  4056f6:	4b17      	ldr	r3, [pc, #92]	; (405754 <_dtoa_r+0xd9c>)
  4056f8:	f001 fc6a 	bl	406fd0 <__adddf3>
  4056fc:	9a02      	ldr	r2, [sp, #8]
  4056fe:	9b0f      	ldr	r3, [sp, #60]	; 0x3c
  405700:	9312      	str	r3, [sp, #72]	; 0x48
  405702:	3a01      	subs	r2, #1
  405704:	4605      	mov	r5, r0
  405706:	f1a1 7650 	sub.w	r6, r1, #54525952	; 0x3400000
  40570a:	9215      	str	r2, [sp, #84]	; 0x54
  40570c:	e56a      	b.n	4051e4 <_dtoa_r+0x82c>
  40570e:	2239      	movs	r2, #57	; 0x39
  405710:	46b3      	mov	fp, r6
  405712:	703a      	strb	r2, [r7, #0]
  405714:	9e06      	ldr	r6, [sp, #24]
  405716:	1c7d      	adds	r5, r7, #1
  405718:	e4c0      	b.n	40509c <_dtoa_r+0x6e4>
  40571a:	e9dd 2316 	ldrd	r2, r3, [sp, #88]	; 0x58
  40571e:	2000      	movs	r0, #0
  405720:	4910      	ldr	r1, [pc, #64]	; (405764 <_dtoa_r+0xdac>)
  405722:	f001 fc53 	bl	406fcc <__aeabi_dsub>
  405726:	4632      	mov	r2, r6
  405728:	463b      	mov	r3, r7
  40572a:	f002 f893 	bl	407854 <__aeabi_dcmpgt>
  40572e:	b908      	cbnz	r0, 405734 <_dtoa_r+0xd7c>
  405730:	e6ae      	b.n	405490 <_dtoa_r+0xad8>
  405732:	4615      	mov	r5, r2
  405734:	f815 3c01 	ldrb.w	r3, [r5, #-1]
  405738:	2b30      	cmp	r3, #48	; 0x30
  40573a:	f105 32ff 	add.w	r2, r5, #4294967295
  40573e:	d0f8      	beq.n	405732 <_dtoa_r+0xd7a>
  405740:	e5d7      	b.n	4052f2 <_dtoa_r+0x93a>
  405742:	f8dd 9048 	ldr.w	r9, [sp, #72]	; 0x48
  405746:	9b15      	ldr	r3, [sp, #84]	; 0x54
  405748:	9302      	str	r3, [sp, #8]
  40574a:	f7ff bae8 	b.w	404d1e <_dtoa_r+0x366>
  40574e:	970c      	str	r7, [sp, #48]	; 0x30
  405750:	f7ff bba5 	b.w	404e9e <_dtoa_r+0x4e6>
  405754:	401c0000 	.word	0x401c0000
  405758:	40140000 	.word	0x40140000
  40575c:	004083d8 	.word	0x004083d8
  405760:	004083b0 	.word	0x004083b0
  405764:	3fe00000 	.word	0x3fe00000
  405768:	40240000 	.word	0x40240000
  40576c:	2b39      	cmp	r3, #57	; 0x39
  40576e:	f8cd b018 	str.w	fp, [sp, #24]
  405772:	46d0      	mov	r8, sl
  405774:	f8dd b028 	ldr.w	fp, [sp, #40]	; 0x28
  405778:	469a      	mov	sl, r3
  40577a:	d0c8      	beq.n	40570e <_dtoa_r+0xd56>
  40577c:	f1bb 0f00 	cmp.w	fp, #0
  405780:	f73f aebf 	bgt.w	405502 <_dtoa_r+0xb4a>
  405784:	e6bf      	b.n	405506 <_dtoa_r+0xb4e>
  405786:	f47f aebe 	bne.w	405506 <_dtoa_r+0xb4e>
  40578a:	f01a 0f01 	tst.w	sl, #1
  40578e:	f43f aeba 	beq.w	405506 <_dtoa_r+0xb4e>
  405792:	e6b2      	b.n	4054fa <_dtoa_r+0xb42>
  405794:	f04f 0800 	mov.w	r8, #0
  405798:	4646      	mov	r6, r8
  40579a:	e5e9      	b.n	405370 <_dtoa_r+0x9b8>
  40579c:	4631      	mov	r1, r6
  40579e:	2300      	movs	r3, #0
  4057a0:	220a      	movs	r2, #10
  4057a2:	4620      	mov	r0, r4
  4057a4:	f000 fc3a 	bl	40601c <__multadd>
  4057a8:	9b0f      	ldr	r3, [sp, #60]	; 0x3c
  4057aa:	2b00      	cmp	r3, #0
  4057ac:	4606      	mov	r6, r0
  4057ae:	dd0a      	ble.n	4057c6 <_dtoa_r+0xe0e>
  4057b0:	930a      	str	r3, [sp, #40]	; 0x28
  4057b2:	f7ff bbaa 	b.w	404f0a <_dtoa_r+0x552>
  4057b6:	9b24      	ldr	r3, [sp, #144]	; 0x90
  4057b8:	2b02      	cmp	r3, #2
  4057ba:	dc23      	bgt.n	405804 <_dtoa_r+0xe4c>
  4057bc:	9b0f      	ldr	r3, [sp, #60]	; 0x3c
  4057be:	e43b      	b.n	405038 <_dtoa_r+0x680>
  4057c0:	f04f 0a02 	mov.w	sl, #2
  4057c4:	e4ed      	b.n	4051a2 <_dtoa_r+0x7ea>
  4057c6:	9b24      	ldr	r3, [sp, #144]	; 0x90
  4057c8:	2b02      	cmp	r3, #2
  4057ca:	dc1b      	bgt.n	405804 <_dtoa_r+0xe4c>
  4057cc:	9b0f      	ldr	r3, [sp, #60]	; 0x3c
  4057ce:	e7ef      	b.n	4057b0 <_dtoa_r+0xdf8>
  4057d0:	2500      	movs	r5, #0
  4057d2:	6465      	str	r5, [r4, #68]	; 0x44
  4057d4:	4629      	mov	r1, r5
  4057d6:	4620      	mov	r0, r4
  4057d8:	f000 fbf0 	bl	405fbc <_Balloc>
  4057dc:	f04f 33ff 	mov.w	r3, #4294967295
  4057e0:	930a      	str	r3, [sp, #40]	; 0x28
  4057e2:	930f      	str	r3, [sp, #60]	; 0x3c
  4057e4:	2301      	movs	r3, #1
  4057e6:	9004      	str	r0, [sp, #16]
  4057e8:	9525      	str	r5, [sp, #148]	; 0x94
  4057ea:	6420      	str	r0, [r4, #64]	; 0x40
  4057ec:	930b      	str	r3, [sp, #44]	; 0x2c
  4057ee:	f7ff b9dd 	b.w	404bac <_dtoa_r+0x1f4>
  4057f2:	2501      	movs	r5, #1
  4057f4:	f7ff b9a5 	b.w	404b42 <_dtoa_r+0x18a>
  4057f8:	f43f ab69 	beq.w	404ece <_dtoa_r+0x516>
  4057fc:	f1c0 003c 	rsb	r0, r0, #60	; 0x3c
  405800:	f7ff bbf9 	b.w	404ff6 <_dtoa_r+0x63e>
  405804:	9b0f      	ldr	r3, [sp, #60]	; 0x3c
  405806:	930a      	str	r3, [sp, #40]	; 0x28
  405808:	e5e5      	b.n	4053d6 <_dtoa_r+0xa1e>
  40580a:	bf00      	nop

0040580c <__libc_fini_array>:
  40580c:	b538      	push	{r3, r4, r5, lr}
  40580e:	4c0a      	ldr	r4, [pc, #40]	; (405838 <__libc_fini_array+0x2c>)
  405810:	4d0a      	ldr	r5, [pc, #40]	; (40583c <__libc_fini_array+0x30>)
  405812:	1b64      	subs	r4, r4, r5
  405814:	10a4      	asrs	r4, r4, #2
  405816:	d00a      	beq.n	40582e <__libc_fini_array+0x22>
  405818:	f104 4380 	add.w	r3, r4, #1073741824	; 0x40000000
  40581c:	3b01      	subs	r3, #1
  40581e:	eb05 0583 	add.w	r5, r5, r3, lsl #2
  405822:	3c01      	subs	r4, #1
  405824:	f855 3904 	ldr.w	r3, [r5], #-4
  405828:	4798      	blx	r3
  40582a:	2c00      	cmp	r4, #0
  40582c:	d1f9      	bne.n	405822 <__libc_fini_array+0x16>
  40582e:	e8bd 4038 	ldmia.w	sp!, {r3, r4, r5, lr}
  405832:	f002 becf 	b.w	4085d4 <_fini>
  405836:	bf00      	nop
  405838:	004085e4 	.word	0x004085e4
  40583c:	004085e0 	.word	0x004085e0

00405840 <_localeconv_r>:
  405840:	4a04      	ldr	r2, [pc, #16]	; (405854 <_localeconv_r+0x14>)
  405842:	4b05      	ldr	r3, [pc, #20]	; (405858 <_localeconv_r+0x18>)
  405844:	6812      	ldr	r2, [r2, #0]
  405846:	6b50      	ldr	r0, [r2, #52]	; 0x34
  405848:	2800      	cmp	r0, #0
  40584a:	bf08      	it	eq
  40584c:	4618      	moveq	r0, r3
  40584e:	30f0      	adds	r0, #240	; 0xf0
  405850:	4770      	bx	lr
  405852:	bf00      	nop
  405854:	20400020 	.word	0x20400020
  405858:	20400864 	.word	0x20400864

0040585c <__retarget_lock_acquire_recursive>:
  40585c:	4770      	bx	lr
  40585e:	bf00      	nop

00405860 <__retarget_lock_release_recursive>:
  405860:	4770      	bx	lr
  405862:	bf00      	nop

00405864 <_malloc_r>:
  405864:	e92d 4ff0 	stmdb	sp!, {r4, r5, r6, r7, r8, r9, sl, fp, lr}
  405868:	f101 060b 	add.w	r6, r1, #11
  40586c:	2e16      	cmp	r6, #22
  40586e:	b083      	sub	sp, #12
  405870:	4605      	mov	r5, r0
  405872:	f240 809e 	bls.w	4059b2 <_malloc_r+0x14e>
  405876:	f036 0607 	bics.w	r6, r6, #7
  40587a:	f100 80bd 	bmi.w	4059f8 <_malloc_r+0x194>
  40587e:	42b1      	cmp	r1, r6
  405880:	f200 80ba 	bhi.w	4059f8 <_malloc_r+0x194>
  405884:	f000 fb8e 	bl	405fa4 <__malloc_lock>
  405888:	f5b6 7ffc 	cmp.w	r6, #504	; 0x1f8
  40588c:	f0c0 8293 	bcc.w	405db6 <_malloc_r+0x552>
  405890:	0a73      	lsrs	r3, r6, #9
  405892:	f000 80b8 	beq.w	405a06 <_malloc_r+0x1a2>
  405896:	2b04      	cmp	r3, #4
  405898:	f200 8179 	bhi.w	405b8e <_malloc_r+0x32a>
  40589c:	09b3      	lsrs	r3, r6, #6
  40589e:	f103 0039 	add.w	r0, r3, #57	; 0x39
  4058a2:	f103 0e38 	add.w	lr, r3, #56	; 0x38
  4058a6:	00c3      	lsls	r3, r0, #3
  4058a8:	4fbf      	ldr	r7, [pc, #764]	; (405ba8 <_malloc_r+0x344>)
  4058aa:	443b      	add	r3, r7
  4058ac:	f1a3 0108 	sub.w	r1, r3, #8
  4058b0:	685c      	ldr	r4, [r3, #4]
  4058b2:	42a1      	cmp	r1, r4
  4058b4:	d106      	bne.n	4058c4 <_malloc_r+0x60>
  4058b6:	e00c      	b.n	4058d2 <_malloc_r+0x6e>
  4058b8:	2a00      	cmp	r2, #0
  4058ba:	f280 80aa 	bge.w	405a12 <_malloc_r+0x1ae>
  4058be:	68e4      	ldr	r4, [r4, #12]
  4058c0:	42a1      	cmp	r1, r4
  4058c2:	d006      	beq.n	4058d2 <_malloc_r+0x6e>
  4058c4:	6863      	ldr	r3, [r4, #4]
  4058c6:	f023 0303 	bic.w	r3, r3, #3
  4058ca:	1b9a      	subs	r2, r3, r6
  4058cc:	2a0f      	cmp	r2, #15
  4058ce:	ddf3      	ble.n	4058b8 <_malloc_r+0x54>
  4058d0:	4670      	mov	r0, lr
  4058d2:	693c      	ldr	r4, [r7, #16]
  4058d4:	f8df e2e4 	ldr.w	lr, [pc, #740]	; 405bbc <_malloc_r+0x358>
  4058d8:	4574      	cmp	r4, lr
  4058da:	f000 81ab 	beq.w	405c34 <_malloc_r+0x3d0>
  4058de:	6863      	ldr	r3, [r4, #4]
  4058e0:	f023 0303 	bic.w	r3, r3, #3
  4058e4:	1b9a      	subs	r2, r3, r6
  4058e6:	2a0f      	cmp	r2, #15
  4058e8:	f300 8190 	bgt.w	405c0c <_malloc_r+0x3a8>
  4058ec:	2a00      	cmp	r2, #0
  4058ee:	f8c7 e014 	str.w	lr, [r7, #20]
  4058f2:	f8c7 e010 	str.w	lr, [r7, #16]
  4058f6:	f280 809d 	bge.w	405a34 <_malloc_r+0x1d0>
  4058fa:	f5b3 7f00 	cmp.w	r3, #512	; 0x200
  4058fe:	f080 8161 	bcs.w	405bc4 <_malloc_r+0x360>
  405902:	08db      	lsrs	r3, r3, #3
  405904:	f103 0c01 	add.w	ip, r3, #1
  405908:	1099      	asrs	r1, r3, #2
  40590a:	687a      	ldr	r2, [r7, #4]
  40590c:	f857 803c 	ldr.w	r8, [r7, ip, lsl #3]
  405910:	f8c4 8008 	str.w	r8, [r4, #8]
  405914:	2301      	movs	r3, #1
  405916:	408b      	lsls	r3, r1
  405918:	eb07 01cc 	add.w	r1, r7, ip, lsl #3
  40591c:	4313      	orrs	r3, r2
  40591e:	3908      	subs	r1, #8
  405920:	60e1      	str	r1, [r4, #12]
  405922:	607b      	str	r3, [r7, #4]
  405924:	f847 403c 	str.w	r4, [r7, ip, lsl #3]
  405928:	f8c8 400c 	str.w	r4, [r8, #12]
  40592c:	1082      	asrs	r2, r0, #2
  40592e:	2401      	movs	r4, #1
  405930:	4094      	lsls	r4, r2
  405932:	429c      	cmp	r4, r3
  405934:	f200 808b 	bhi.w	405a4e <_malloc_r+0x1ea>
  405938:	421c      	tst	r4, r3
  40593a:	d106      	bne.n	40594a <_malloc_r+0xe6>
  40593c:	f020 0003 	bic.w	r0, r0, #3
  405940:	0064      	lsls	r4, r4, #1
  405942:	421c      	tst	r4, r3
  405944:	f100 0004 	add.w	r0, r0, #4
  405948:	d0fa      	beq.n	405940 <_malloc_r+0xdc>
  40594a:	eb07 09c0 	add.w	r9, r7, r0, lsl #3
  40594e:	46cc      	mov	ip, r9
  405950:	4680      	mov	r8, r0
  405952:	f8dc 300c 	ldr.w	r3, [ip, #12]
  405956:	459c      	cmp	ip, r3
  405958:	d107      	bne.n	40596a <_malloc_r+0x106>
  40595a:	e16d      	b.n	405c38 <_malloc_r+0x3d4>
  40595c:	2a00      	cmp	r2, #0
  40595e:	f280 817b 	bge.w	405c58 <_malloc_r+0x3f4>
  405962:	68db      	ldr	r3, [r3, #12]
  405964:	459c      	cmp	ip, r3
  405966:	f000 8167 	beq.w	405c38 <_malloc_r+0x3d4>
  40596a:	6859      	ldr	r1, [r3, #4]
  40596c:	f021 0103 	bic.w	r1, r1, #3
  405970:	1b8a      	subs	r2, r1, r6
  405972:	2a0f      	cmp	r2, #15
  405974:	ddf2      	ble.n	40595c <_malloc_r+0xf8>
  405976:	f8d3 c00c 	ldr.w	ip, [r3, #12]
  40597a:	f8d3 8008 	ldr.w	r8, [r3, #8]
  40597e:	9300      	str	r3, [sp, #0]
  405980:	199c      	adds	r4, r3, r6
  405982:	4628      	mov	r0, r5
  405984:	f046 0601 	orr.w	r6, r6, #1
  405988:	f042 0501 	orr.w	r5, r2, #1
  40598c:	605e      	str	r6, [r3, #4]
  40598e:	f8c8 c00c 	str.w	ip, [r8, #12]
  405992:	f8cc 8008 	str.w	r8, [ip, #8]
  405996:	617c      	str	r4, [r7, #20]
  405998:	613c      	str	r4, [r7, #16]
  40599a:	f8c4 e00c 	str.w	lr, [r4, #12]
  40599e:	f8c4 e008 	str.w	lr, [r4, #8]
  4059a2:	6065      	str	r5, [r4, #4]
  4059a4:	505a      	str	r2, [r3, r1]
  4059a6:	f000 fb03 	bl	405fb0 <__malloc_unlock>
  4059aa:	9b00      	ldr	r3, [sp, #0]
  4059ac:	f103 0408 	add.w	r4, r3, #8
  4059b0:	e01e      	b.n	4059f0 <_malloc_r+0x18c>
  4059b2:	2910      	cmp	r1, #16
  4059b4:	d820      	bhi.n	4059f8 <_malloc_r+0x194>
  4059b6:	f000 faf5 	bl	405fa4 <__malloc_lock>
  4059ba:	2610      	movs	r6, #16
  4059bc:	2318      	movs	r3, #24
  4059be:	2002      	movs	r0, #2
  4059c0:	4f79      	ldr	r7, [pc, #484]	; (405ba8 <_malloc_r+0x344>)
  4059c2:	443b      	add	r3, r7
  4059c4:	f1a3 0208 	sub.w	r2, r3, #8
  4059c8:	685c      	ldr	r4, [r3, #4]
  4059ca:	4294      	cmp	r4, r2
  4059cc:	f000 813d 	beq.w	405c4a <_malloc_r+0x3e6>
  4059d0:	6863      	ldr	r3, [r4, #4]
  4059d2:	68e1      	ldr	r1, [r4, #12]
  4059d4:	68a6      	ldr	r6, [r4, #8]
  4059d6:	f023 0303 	bic.w	r3, r3, #3
  4059da:	4423      	add	r3, r4
  4059dc:	4628      	mov	r0, r5
  4059de:	685a      	ldr	r2, [r3, #4]
  4059e0:	60f1      	str	r1, [r6, #12]
  4059e2:	f042 0201 	orr.w	r2, r2, #1
  4059e6:	608e      	str	r6, [r1, #8]
  4059e8:	605a      	str	r2, [r3, #4]
  4059ea:	f000 fae1 	bl	405fb0 <__malloc_unlock>
  4059ee:	3408      	adds	r4, #8
  4059f0:	4620      	mov	r0, r4
  4059f2:	b003      	add	sp, #12
  4059f4:	e8bd 8ff0 	ldmia.w	sp!, {r4, r5, r6, r7, r8, r9, sl, fp, pc}
  4059f8:	2400      	movs	r4, #0
  4059fa:	230c      	movs	r3, #12
  4059fc:	4620      	mov	r0, r4
  4059fe:	602b      	str	r3, [r5, #0]
  405a00:	b003      	add	sp, #12
  405a02:	e8bd 8ff0 	ldmia.w	sp!, {r4, r5, r6, r7, r8, r9, sl, fp, pc}
  405a06:	2040      	movs	r0, #64	; 0x40
  405a08:	f44f 7300 	mov.w	r3, #512	; 0x200
  405a0c:	f04f 0e3f 	mov.w	lr, #63	; 0x3f
  405a10:	e74a      	b.n	4058a8 <_malloc_r+0x44>
  405a12:	4423      	add	r3, r4
  405a14:	68e1      	ldr	r1, [r4, #12]
  405a16:	685a      	ldr	r2, [r3, #4]
  405a18:	68a6      	ldr	r6, [r4, #8]
  405a1a:	f042 0201 	orr.w	r2, r2, #1
  405a1e:	60f1      	str	r1, [r6, #12]
  405a20:	4628      	mov	r0, r5
  405a22:	608e      	str	r6, [r1, #8]
  405a24:	605a      	str	r2, [r3, #4]
  405a26:	f000 fac3 	bl	405fb0 <__malloc_unlock>
  405a2a:	3408      	adds	r4, #8
  405a2c:	4620      	mov	r0, r4
  405a2e:	b003      	add	sp, #12
  405a30:	e8bd 8ff0 	ldmia.w	sp!, {r4, r5, r6, r7, r8, r9, sl, fp, pc}
  405a34:	4423      	add	r3, r4
  405a36:	4628      	mov	r0, r5
  405a38:	685a      	ldr	r2, [r3, #4]
  405a3a:	f042 0201 	orr.w	r2, r2, #1
  405a3e:	605a      	str	r2, [r3, #4]
  405a40:	f000 fab6 	bl	405fb0 <__malloc_unlock>
  405a44:	3408      	adds	r4, #8
  405a46:	4620      	mov	r0, r4
  405a48:	b003      	add	sp, #12
  405a4a:	e8bd 8ff0 	ldmia.w	sp!, {r4, r5, r6, r7, r8, r9, sl, fp, pc}
  405a4e:	68bc      	ldr	r4, [r7, #8]
  405a50:	6863      	ldr	r3, [r4, #4]
  405a52:	f023 0803 	bic.w	r8, r3, #3
  405a56:	45b0      	cmp	r8, r6
  405a58:	d304      	bcc.n	405a64 <_malloc_r+0x200>
  405a5a:	eba8 0306 	sub.w	r3, r8, r6
  405a5e:	2b0f      	cmp	r3, #15
  405a60:	f300 8085 	bgt.w	405b6e <_malloc_r+0x30a>
  405a64:	f8df 9158 	ldr.w	r9, [pc, #344]	; 405bc0 <_malloc_r+0x35c>
  405a68:	4b50      	ldr	r3, [pc, #320]	; (405bac <_malloc_r+0x348>)
  405a6a:	f8d9 2000 	ldr.w	r2, [r9]
  405a6e:	681b      	ldr	r3, [r3, #0]
  405a70:	3201      	adds	r2, #1
  405a72:	4433      	add	r3, r6
  405a74:	eb04 0a08 	add.w	sl, r4, r8
  405a78:	f000 8155 	beq.w	405d26 <_malloc_r+0x4c2>
  405a7c:	f503 5380 	add.w	r3, r3, #4096	; 0x1000
  405a80:	330f      	adds	r3, #15
  405a82:	f423 6b7f 	bic.w	fp, r3, #4080	; 0xff0
  405a86:	f02b 0b0f 	bic.w	fp, fp, #15
  405a8a:	4659      	mov	r1, fp
  405a8c:	4628      	mov	r0, r5
  405a8e:	f000 fd8f 	bl	4065b0 <_sbrk_r>
  405a92:	1c41      	adds	r1, r0, #1
  405a94:	4602      	mov	r2, r0
  405a96:	f000 80fc 	beq.w	405c92 <_malloc_r+0x42e>
  405a9a:	4582      	cmp	sl, r0
  405a9c:	f200 80f7 	bhi.w	405c8e <_malloc_r+0x42a>
  405aa0:	4b43      	ldr	r3, [pc, #268]	; (405bb0 <_malloc_r+0x34c>)
  405aa2:	6819      	ldr	r1, [r3, #0]
  405aa4:	4459      	add	r1, fp
  405aa6:	6019      	str	r1, [r3, #0]
  405aa8:	f000 814d 	beq.w	405d46 <_malloc_r+0x4e2>
  405aac:	f8d9 0000 	ldr.w	r0, [r9]
  405ab0:	3001      	adds	r0, #1
  405ab2:	bf1b      	ittet	ne
  405ab4:	eba2 0a0a 	subne.w	sl, r2, sl
  405ab8:	4451      	addne	r1, sl
  405aba:	f8c9 2000 	streq.w	r2, [r9]
  405abe:	6019      	strne	r1, [r3, #0]
  405ac0:	f012 0107 	ands.w	r1, r2, #7
  405ac4:	f000 8115 	beq.w	405cf2 <_malloc_r+0x48e>
  405ac8:	f1c1 0008 	rsb	r0, r1, #8
  405acc:	f5c1 5180 	rsb	r1, r1, #4096	; 0x1000
  405ad0:	4402      	add	r2, r0
  405ad2:	3108      	adds	r1, #8
  405ad4:	eb02 090b 	add.w	r9, r2, fp
  405ad8:	f3c9 090b 	ubfx	r9, r9, #0, #12
  405adc:	eba1 0909 	sub.w	r9, r1, r9
  405ae0:	4649      	mov	r1, r9
  405ae2:	4628      	mov	r0, r5
  405ae4:	9301      	str	r3, [sp, #4]
  405ae6:	9200      	str	r2, [sp, #0]
  405ae8:	f000 fd62 	bl	4065b0 <_sbrk_r>
  405aec:	1c43      	adds	r3, r0, #1
  405aee:	e89d 000c 	ldmia.w	sp, {r2, r3}
  405af2:	f000 8143 	beq.w	405d7c <_malloc_r+0x518>
  405af6:	1a80      	subs	r0, r0, r2
  405af8:	4448      	add	r0, r9
  405afa:	f040 0001 	orr.w	r0, r0, #1
  405afe:	6819      	ldr	r1, [r3, #0]
  405b00:	60ba      	str	r2, [r7, #8]
  405b02:	4449      	add	r1, r9
  405b04:	42bc      	cmp	r4, r7
  405b06:	6050      	str	r0, [r2, #4]
  405b08:	6019      	str	r1, [r3, #0]
  405b0a:	d017      	beq.n	405b3c <_malloc_r+0x2d8>
  405b0c:	f1b8 0f0f 	cmp.w	r8, #15
  405b10:	f240 80fb 	bls.w	405d0a <_malloc_r+0x4a6>
  405b14:	6860      	ldr	r0, [r4, #4]
  405b16:	f1a8 020c 	sub.w	r2, r8, #12
  405b1a:	f022 0207 	bic.w	r2, r2, #7
  405b1e:	eb04 0e02 	add.w	lr, r4, r2
  405b22:	f000 0001 	and.w	r0, r0, #1
  405b26:	f04f 0c05 	mov.w	ip, #5
  405b2a:	4310      	orrs	r0, r2
  405b2c:	2a0f      	cmp	r2, #15
  405b2e:	6060      	str	r0, [r4, #4]
  405b30:	f8ce c004 	str.w	ip, [lr, #4]
  405b34:	f8ce c008 	str.w	ip, [lr, #8]
  405b38:	f200 8117 	bhi.w	405d6a <_malloc_r+0x506>
  405b3c:	4b1d      	ldr	r3, [pc, #116]	; (405bb4 <_malloc_r+0x350>)
  405b3e:	68bc      	ldr	r4, [r7, #8]
  405b40:	681a      	ldr	r2, [r3, #0]
  405b42:	4291      	cmp	r1, r2
  405b44:	bf88      	it	hi
  405b46:	6019      	strhi	r1, [r3, #0]
  405b48:	4b1b      	ldr	r3, [pc, #108]	; (405bb8 <_malloc_r+0x354>)
  405b4a:	681a      	ldr	r2, [r3, #0]
  405b4c:	4291      	cmp	r1, r2
  405b4e:	6862      	ldr	r2, [r4, #4]
  405b50:	bf88      	it	hi
  405b52:	6019      	strhi	r1, [r3, #0]
  405b54:	f022 0203 	bic.w	r2, r2, #3
  405b58:	4296      	cmp	r6, r2
  405b5a:	eba2 0306 	sub.w	r3, r2, r6
  405b5e:	d801      	bhi.n	405b64 <_malloc_r+0x300>
  405b60:	2b0f      	cmp	r3, #15
  405b62:	dc04      	bgt.n	405b6e <_malloc_r+0x30a>
  405b64:	4628      	mov	r0, r5
  405b66:	f000 fa23 	bl	405fb0 <__malloc_unlock>
  405b6a:	2400      	movs	r4, #0
  405b6c:	e740      	b.n	4059f0 <_malloc_r+0x18c>
  405b6e:	19a2      	adds	r2, r4, r6
  405b70:	f043 0301 	orr.w	r3, r3, #1
  405b74:	f046 0601 	orr.w	r6, r6, #1
  405b78:	6066      	str	r6, [r4, #4]
  405b7a:	4628      	mov	r0, r5
  405b7c:	60ba      	str	r2, [r7, #8]
  405b7e:	6053      	str	r3, [r2, #4]
  405b80:	f000 fa16 	bl	405fb0 <__malloc_unlock>
  405b84:	3408      	adds	r4, #8
  405b86:	4620      	mov	r0, r4
  405b88:	b003      	add	sp, #12
  405b8a:	e8bd 8ff0 	ldmia.w	sp!, {r4, r5, r6, r7, r8, r9, sl, fp, pc}
  405b8e:	2b14      	cmp	r3, #20
  405b90:	d971      	bls.n	405c76 <_malloc_r+0x412>
  405b92:	2b54      	cmp	r3, #84	; 0x54
  405b94:	f200 80a3 	bhi.w	405cde <_malloc_r+0x47a>
  405b98:	0b33      	lsrs	r3, r6, #12
  405b9a:	f103 006f 	add.w	r0, r3, #111	; 0x6f
  405b9e:	f103 0e6e 	add.w	lr, r3, #110	; 0x6e
  405ba2:	00c3      	lsls	r3, r0, #3
  405ba4:	e680      	b.n	4058a8 <_malloc_r+0x44>
  405ba6:	bf00      	nop
  405ba8:	20400454 	.word	0x20400454
  405bac:	20400cac 	.word	0x20400cac
  405bb0:	20400c7c 	.word	0x20400c7c
  405bb4:	20400ca4 	.word	0x20400ca4
  405bb8:	20400ca8 	.word	0x20400ca8
  405bbc:	2040045c 	.word	0x2040045c
  405bc0:	2040085c 	.word	0x2040085c
  405bc4:	0a5a      	lsrs	r2, r3, #9
  405bc6:	2a04      	cmp	r2, #4
  405bc8:	d95b      	bls.n	405c82 <_malloc_r+0x41e>
  405bca:	2a14      	cmp	r2, #20
  405bcc:	f200 80ae 	bhi.w	405d2c <_malloc_r+0x4c8>
  405bd0:	f102 015c 	add.w	r1, r2, #92	; 0x5c
  405bd4:	00c9      	lsls	r1, r1, #3
  405bd6:	325b      	adds	r2, #91	; 0x5b
  405bd8:	eb07 0c01 	add.w	ip, r7, r1
  405bdc:	5879      	ldr	r1, [r7, r1]
  405bde:	f1ac 0c08 	sub.w	ip, ip, #8
  405be2:	458c      	cmp	ip, r1
  405be4:	f000 8088 	beq.w	405cf8 <_malloc_r+0x494>
  405be8:	684a      	ldr	r2, [r1, #4]
  405bea:	f022 0203 	bic.w	r2, r2, #3
  405bee:	4293      	cmp	r3, r2
  405bf0:	d273      	bcs.n	405cda <_malloc_r+0x476>
  405bf2:	6889      	ldr	r1, [r1, #8]
  405bf4:	458c      	cmp	ip, r1
  405bf6:	d1f7      	bne.n	405be8 <_malloc_r+0x384>
  405bf8:	f8dc 200c 	ldr.w	r2, [ip, #12]
  405bfc:	687b      	ldr	r3, [r7, #4]
  405bfe:	60e2      	str	r2, [r4, #12]
  405c00:	f8c4 c008 	str.w	ip, [r4, #8]
  405c04:	6094      	str	r4, [r2, #8]
  405c06:	f8cc 400c 	str.w	r4, [ip, #12]
  405c0a:	e68f      	b.n	40592c <_malloc_r+0xc8>
  405c0c:	19a1      	adds	r1, r4, r6
  405c0e:	f046 0c01 	orr.w	ip, r6, #1
  405c12:	f042 0601 	orr.w	r6, r2, #1
  405c16:	f8c4 c004 	str.w	ip, [r4, #4]
  405c1a:	4628      	mov	r0, r5
  405c1c:	6179      	str	r1, [r7, #20]
  405c1e:	6139      	str	r1, [r7, #16]
  405c20:	f8c1 e00c 	str.w	lr, [r1, #12]
  405c24:	f8c1 e008 	str.w	lr, [r1, #8]
  405c28:	604e      	str	r6, [r1, #4]
  405c2a:	50e2      	str	r2, [r4, r3]
  405c2c:	f000 f9c0 	bl	405fb0 <__malloc_unlock>
  405c30:	3408      	adds	r4, #8
  405c32:	e6dd      	b.n	4059f0 <_malloc_r+0x18c>
  405c34:	687b      	ldr	r3, [r7, #4]
  405c36:	e679      	b.n	40592c <_malloc_r+0xc8>
  405c38:	f108 0801 	add.w	r8, r8, #1
  405c3c:	f018 0f03 	tst.w	r8, #3
  405c40:	f10c 0c08 	add.w	ip, ip, #8
  405c44:	f47f ae85 	bne.w	405952 <_malloc_r+0xee>
  405c48:	e02d      	b.n	405ca6 <_malloc_r+0x442>
  405c4a:	68dc      	ldr	r4, [r3, #12]
  405c4c:	42a3      	cmp	r3, r4
  405c4e:	bf08      	it	eq
  405c50:	3002      	addeq	r0, #2
  405c52:	f43f ae3e 	beq.w	4058d2 <_malloc_r+0x6e>
  405c56:	e6bb      	b.n	4059d0 <_malloc_r+0x16c>
  405c58:	4419      	add	r1, r3
  405c5a:	461c      	mov	r4, r3
  405c5c:	684a      	ldr	r2, [r1, #4]
  405c5e:	68db      	ldr	r3, [r3, #12]
  405c60:	f854 6f08 	ldr.w	r6, [r4, #8]!
  405c64:	f042 0201 	orr.w	r2, r2, #1
  405c68:	604a      	str	r2, [r1, #4]
  405c6a:	4628      	mov	r0, r5
  405c6c:	60f3      	str	r3, [r6, #12]
  405c6e:	609e      	str	r6, [r3, #8]
  405c70:	f000 f99e 	bl	405fb0 <__malloc_unlock>
  405c74:	e6bc      	b.n	4059f0 <_malloc_r+0x18c>
  405c76:	f103 005c 	add.w	r0, r3, #92	; 0x5c
  405c7a:	f103 0e5b 	add.w	lr, r3, #91	; 0x5b
  405c7e:	00c3      	lsls	r3, r0, #3
  405c80:	e612      	b.n	4058a8 <_malloc_r+0x44>
  405c82:	099a      	lsrs	r2, r3, #6
  405c84:	f102 0139 	add.w	r1, r2, #57	; 0x39
  405c88:	00c9      	lsls	r1, r1, #3
  405c8a:	3238      	adds	r2, #56	; 0x38
  405c8c:	e7a4      	b.n	405bd8 <_malloc_r+0x374>
  405c8e:	42bc      	cmp	r4, r7
  405c90:	d054      	beq.n	405d3c <_malloc_r+0x4d8>
  405c92:	68bc      	ldr	r4, [r7, #8]
  405c94:	6862      	ldr	r2, [r4, #4]
  405c96:	f022 0203 	bic.w	r2, r2, #3
  405c9a:	e75d      	b.n	405b58 <_malloc_r+0x2f4>
  405c9c:	f859 3908 	ldr.w	r3, [r9], #-8
  405ca0:	4599      	cmp	r9, r3
  405ca2:	f040 8086 	bne.w	405db2 <_malloc_r+0x54e>
  405ca6:	f010 0f03 	tst.w	r0, #3
  405caa:	f100 30ff 	add.w	r0, r0, #4294967295
  405cae:	d1f5      	bne.n	405c9c <_malloc_r+0x438>
  405cb0:	687b      	ldr	r3, [r7, #4]
  405cb2:	ea23 0304 	bic.w	r3, r3, r4
  405cb6:	607b      	str	r3, [r7, #4]
  405cb8:	0064      	lsls	r4, r4, #1
  405cba:	429c      	cmp	r4, r3
  405cbc:	f63f aec7 	bhi.w	405a4e <_malloc_r+0x1ea>
  405cc0:	2c00      	cmp	r4, #0
  405cc2:	f43f aec4 	beq.w	405a4e <_malloc_r+0x1ea>
  405cc6:	421c      	tst	r4, r3
  405cc8:	4640      	mov	r0, r8
  405cca:	f47f ae3e 	bne.w	40594a <_malloc_r+0xe6>
  405cce:	0064      	lsls	r4, r4, #1
  405cd0:	421c      	tst	r4, r3
  405cd2:	f100 0004 	add.w	r0, r0, #4
  405cd6:	d0fa      	beq.n	405cce <_malloc_r+0x46a>
  405cd8:	e637      	b.n	40594a <_malloc_r+0xe6>
  405cda:	468c      	mov	ip, r1
  405cdc:	e78c      	b.n	405bf8 <_malloc_r+0x394>
  405cde:	f5b3 7faa 	cmp.w	r3, #340	; 0x154
  405ce2:	d815      	bhi.n	405d10 <_malloc_r+0x4ac>
  405ce4:	0bf3      	lsrs	r3, r6, #15
  405ce6:	f103 0078 	add.w	r0, r3, #120	; 0x78
  405cea:	f103 0e77 	add.w	lr, r3, #119	; 0x77
  405cee:	00c3      	lsls	r3, r0, #3
  405cf0:	e5da      	b.n	4058a8 <_malloc_r+0x44>
  405cf2:	f44f 5180 	mov.w	r1, #4096	; 0x1000
  405cf6:	e6ed      	b.n	405ad4 <_malloc_r+0x270>
  405cf8:	687b      	ldr	r3, [r7, #4]
  405cfa:	1092      	asrs	r2, r2, #2
  405cfc:	2101      	movs	r1, #1
  405cfe:	fa01 f202 	lsl.w	r2, r1, r2
  405d02:	4313      	orrs	r3, r2
  405d04:	607b      	str	r3, [r7, #4]
  405d06:	4662      	mov	r2, ip
  405d08:	e779      	b.n	405bfe <_malloc_r+0x39a>
  405d0a:	2301      	movs	r3, #1
  405d0c:	6053      	str	r3, [r2, #4]
  405d0e:	e729      	b.n	405b64 <_malloc_r+0x300>
  405d10:	f240 5254 	movw	r2, #1364	; 0x554
  405d14:	4293      	cmp	r3, r2
  405d16:	d822      	bhi.n	405d5e <_malloc_r+0x4fa>
  405d18:	0cb3      	lsrs	r3, r6, #18
  405d1a:	f103 007d 	add.w	r0, r3, #125	; 0x7d
  405d1e:	f103 0e7c 	add.w	lr, r3, #124	; 0x7c
  405d22:	00c3      	lsls	r3, r0, #3
  405d24:	e5c0      	b.n	4058a8 <_malloc_r+0x44>
  405d26:	f103 0b10 	add.w	fp, r3, #16
  405d2a:	e6ae      	b.n	405a8a <_malloc_r+0x226>
  405d2c:	2a54      	cmp	r2, #84	; 0x54
  405d2e:	d829      	bhi.n	405d84 <_malloc_r+0x520>
  405d30:	0b1a      	lsrs	r2, r3, #12
  405d32:	f102 016f 	add.w	r1, r2, #111	; 0x6f
  405d36:	00c9      	lsls	r1, r1, #3
  405d38:	326e      	adds	r2, #110	; 0x6e
  405d3a:	e74d      	b.n	405bd8 <_malloc_r+0x374>
  405d3c:	4b20      	ldr	r3, [pc, #128]	; (405dc0 <_malloc_r+0x55c>)
  405d3e:	6819      	ldr	r1, [r3, #0]
  405d40:	4459      	add	r1, fp
  405d42:	6019      	str	r1, [r3, #0]
  405d44:	e6b2      	b.n	405aac <_malloc_r+0x248>
  405d46:	f3ca 000b 	ubfx	r0, sl, #0, #12
  405d4a:	2800      	cmp	r0, #0
  405d4c:	f47f aeae 	bne.w	405aac <_malloc_r+0x248>
  405d50:	eb08 030b 	add.w	r3, r8, fp
  405d54:	68ba      	ldr	r2, [r7, #8]
  405d56:	f043 0301 	orr.w	r3, r3, #1
  405d5a:	6053      	str	r3, [r2, #4]
  405d5c:	e6ee      	b.n	405b3c <_malloc_r+0x2d8>
  405d5e:	207f      	movs	r0, #127	; 0x7f
  405d60:	f44f 737e 	mov.w	r3, #1016	; 0x3f8
  405d64:	f04f 0e7e 	mov.w	lr, #126	; 0x7e
  405d68:	e59e      	b.n	4058a8 <_malloc_r+0x44>
  405d6a:	f104 0108 	add.w	r1, r4, #8
  405d6e:	4628      	mov	r0, r5
  405d70:	9300      	str	r3, [sp, #0]
  405d72:	f000 fe13 	bl	40699c <_free_r>
  405d76:	9b00      	ldr	r3, [sp, #0]
  405d78:	6819      	ldr	r1, [r3, #0]
  405d7a:	e6df      	b.n	405b3c <_malloc_r+0x2d8>
  405d7c:	2001      	movs	r0, #1
  405d7e:	f04f 0900 	mov.w	r9, #0
  405d82:	e6bc      	b.n	405afe <_malloc_r+0x29a>
  405d84:	f5b2 7faa 	cmp.w	r2, #340	; 0x154
  405d88:	d805      	bhi.n	405d96 <_malloc_r+0x532>
  405d8a:	0bda      	lsrs	r2, r3, #15
  405d8c:	f102 0178 	add.w	r1, r2, #120	; 0x78
  405d90:	00c9      	lsls	r1, r1, #3
  405d92:	3277      	adds	r2, #119	; 0x77
  405d94:	e720      	b.n	405bd8 <_malloc_r+0x374>
  405d96:	f240 5154 	movw	r1, #1364	; 0x554
  405d9a:	428a      	cmp	r2, r1
  405d9c:	d805      	bhi.n	405daa <_malloc_r+0x546>
  405d9e:	0c9a      	lsrs	r2, r3, #18
  405da0:	f102 017d 	add.w	r1, r2, #125	; 0x7d
  405da4:	00c9      	lsls	r1, r1, #3
  405da6:	327c      	adds	r2, #124	; 0x7c
  405da8:	e716      	b.n	405bd8 <_malloc_r+0x374>
  405daa:	f44f 717e 	mov.w	r1, #1016	; 0x3f8
  405dae:	227e      	movs	r2, #126	; 0x7e
  405db0:	e712      	b.n	405bd8 <_malloc_r+0x374>
  405db2:	687b      	ldr	r3, [r7, #4]
  405db4:	e780      	b.n	405cb8 <_malloc_r+0x454>
  405db6:	08f0      	lsrs	r0, r6, #3
  405db8:	f106 0308 	add.w	r3, r6, #8
  405dbc:	e600      	b.n	4059c0 <_malloc_r+0x15c>
  405dbe:	bf00      	nop
  405dc0:	20400c7c 	.word	0x20400c7c
	...

00405dd0 <memchr>:
  405dd0:	f001 01ff 	and.w	r1, r1, #255	; 0xff
  405dd4:	2a10      	cmp	r2, #16
  405dd6:	db2b      	blt.n	405e30 <memchr+0x60>
  405dd8:	f010 0f07 	tst.w	r0, #7
  405ddc:	d008      	beq.n	405df0 <memchr+0x20>
  405dde:	f810 3b01 	ldrb.w	r3, [r0], #1
  405de2:	3a01      	subs	r2, #1
  405de4:	428b      	cmp	r3, r1
  405de6:	d02d      	beq.n	405e44 <memchr+0x74>
  405de8:	f010 0f07 	tst.w	r0, #7
  405dec:	b342      	cbz	r2, 405e40 <memchr+0x70>
  405dee:	d1f6      	bne.n	405dde <memchr+0xe>
  405df0:	b4f0      	push	{r4, r5, r6, r7}
  405df2:	ea41 2101 	orr.w	r1, r1, r1, lsl #8
  405df6:	ea41 4101 	orr.w	r1, r1, r1, lsl #16
  405dfa:	f022 0407 	bic.w	r4, r2, #7
  405dfe:	f07f 0700 	mvns.w	r7, #0
  405e02:	2300      	movs	r3, #0
  405e04:	e8f0 5602 	ldrd	r5, r6, [r0], #8
  405e08:	3c08      	subs	r4, #8
  405e0a:	ea85 0501 	eor.w	r5, r5, r1
  405e0e:	ea86 0601 	eor.w	r6, r6, r1
  405e12:	fa85 f547 	uadd8	r5, r5, r7
  405e16:	faa3 f587 	sel	r5, r3, r7
  405e1a:	fa86 f647 	uadd8	r6, r6, r7
  405e1e:	faa5 f687 	sel	r6, r5, r7
  405e22:	b98e      	cbnz	r6, 405e48 <memchr+0x78>
  405e24:	d1ee      	bne.n	405e04 <memchr+0x34>
  405e26:	bcf0      	pop	{r4, r5, r6, r7}
  405e28:	f001 01ff 	and.w	r1, r1, #255	; 0xff
  405e2c:	f002 0207 	and.w	r2, r2, #7
  405e30:	b132      	cbz	r2, 405e40 <memchr+0x70>
  405e32:	f810 3b01 	ldrb.w	r3, [r0], #1
  405e36:	3a01      	subs	r2, #1
  405e38:	ea83 0301 	eor.w	r3, r3, r1
  405e3c:	b113      	cbz	r3, 405e44 <memchr+0x74>
  405e3e:	d1f8      	bne.n	405e32 <memchr+0x62>
  405e40:	2000      	movs	r0, #0
  405e42:	4770      	bx	lr
  405e44:	3801      	subs	r0, #1
  405e46:	4770      	bx	lr
  405e48:	2d00      	cmp	r5, #0
  405e4a:	bf06      	itte	eq
  405e4c:	4635      	moveq	r5, r6
  405e4e:	3803      	subeq	r0, #3
  405e50:	3807      	subne	r0, #7
  405e52:	f015 0f01 	tst.w	r5, #1
  405e56:	d107      	bne.n	405e68 <memchr+0x98>
  405e58:	3001      	adds	r0, #1
  405e5a:	f415 7f80 	tst.w	r5, #256	; 0x100
  405e5e:	bf02      	ittt	eq
  405e60:	3001      	addeq	r0, #1
  405e62:	f415 3fc0 	tsteq.w	r5, #98304	; 0x18000
  405e66:	3001      	addeq	r0, #1
  405e68:	bcf0      	pop	{r4, r5, r6, r7}
  405e6a:	3801      	subs	r0, #1
  405e6c:	4770      	bx	lr
  405e6e:	bf00      	nop

00405e70 <memcpy>:
  405e70:	4684      	mov	ip, r0
  405e72:	ea41 0300 	orr.w	r3, r1, r0
  405e76:	f013 0303 	ands.w	r3, r3, #3
  405e7a:	d16d      	bne.n	405f58 <memcpy+0xe8>
  405e7c:	3a40      	subs	r2, #64	; 0x40
  405e7e:	d341      	bcc.n	405f04 <memcpy+0x94>
  405e80:	f851 3b04 	ldr.w	r3, [r1], #4
  405e84:	f840 3b04 	str.w	r3, [r0], #4
  405e88:	f851 3b04 	ldr.w	r3, [r1], #4
  405e8c:	f840 3b04 	str.w	r3, [r0], #4
  405e90:	f851 3b04 	ldr.w	r3, [r1], #4
  405e94:	f840 3b04 	str.w	r3, [r0], #4
  405e98:	f851 3b04 	ldr.w	r3, [r1], #4
  405e9c:	f840 3b04 	str.w	r3, [r0], #4
  405ea0:	f851 3b04 	ldr.w	r3, [r1], #4
  405ea4:	f840 3b04 	str.w	r3, [r0], #4
  405ea8:	f851 3b04 	ldr.w	r3, [r1], #4
  405eac:	f840 3b04 	str.w	r3, [r0], #4
  405eb0:	f851 3b04 	ldr.w	r3, [r1], #4
  405eb4:	f840 3b04 	str.w	r3, [r0], #4
  405eb8:	f851 3b04 	ldr.w	r3, [r1], #4
  405ebc:	f840 3b04 	str.w	r3, [r0], #4
  405ec0:	f851 3b04 	ldr.w	r3, [r1], #4
  405ec4:	f840 3b04 	str.w	r3, [r0], #4
  405ec8:	f851 3b04 	ldr.w	r3, [r1], #4
  405ecc:	f840 3b04 	str.w	r3, [r0], #4
  405ed0:	f851 3b04 	ldr.w	r3, [r1], #4
  405ed4:	f840 3b04 	str.w	r3, [r0], #4
  405ed8:	f851 3b04 	ldr.w	r3, [r1], #4
  405edc:	f840 3b04 	str.w	r3, [r0], #4
  405ee0:	f851 3b04 	ldr.w	r3, [r1], #4
  405ee4:	f840 3b04 	str.w	r3, [r0], #4
  405ee8:	f851 3b04 	ldr.w	r3, [r1], #4
  405eec:	f840 3b04 	str.w	r3, [r0], #4
  405ef0:	f851 3b04 	ldr.w	r3, [r1], #4
  405ef4:	f840 3b04 	str.w	r3, [r0], #4
  405ef8:	f851 3b04 	ldr.w	r3, [r1], #4
  405efc:	f840 3b04 	str.w	r3, [r0], #4
  405f00:	3a40      	subs	r2, #64	; 0x40
  405f02:	d2bd      	bcs.n	405e80 <memcpy+0x10>
  405f04:	3230      	adds	r2, #48	; 0x30
  405f06:	d311      	bcc.n	405f2c <memcpy+0xbc>
  405f08:	f851 3b04 	ldr.w	r3, [r1], #4
  405f0c:	f840 3b04 	str.w	r3, [r0], #4
  405f10:	f851 3b04 	ldr.w	r3, [r1], #4
  405f14:	f840 3b04 	str.w	r3, [r0], #4
  405f18:	f851 3b04 	ldr.w	r3, [r1], #4
  405f1c:	f840 3b04 	str.w	r3, [r0], #4
  405f20:	f851 3b04 	ldr.w	r3, [r1], #4
  405f24:	f840 3b04 	str.w	r3, [r0], #4
  405f28:	3a10      	subs	r2, #16
  405f2a:	d2ed      	bcs.n	405f08 <memcpy+0x98>
  405f2c:	320c      	adds	r2, #12
  405f2e:	d305      	bcc.n	405f3c <memcpy+0xcc>
  405f30:	f851 3b04 	ldr.w	r3, [r1], #4
  405f34:	f840 3b04 	str.w	r3, [r0], #4
  405f38:	3a04      	subs	r2, #4
  405f3a:	d2f9      	bcs.n	405f30 <memcpy+0xc0>
  405f3c:	3204      	adds	r2, #4
  405f3e:	d008      	beq.n	405f52 <memcpy+0xe2>
  405f40:	07d2      	lsls	r2, r2, #31
  405f42:	bf1c      	itt	ne
  405f44:	f811 3b01 	ldrbne.w	r3, [r1], #1
  405f48:	f800 3b01 	strbne.w	r3, [r0], #1
  405f4c:	d301      	bcc.n	405f52 <memcpy+0xe2>
  405f4e:	880b      	ldrh	r3, [r1, #0]
  405f50:	8003      	strh	r3, [r0, #0]
  405f52:	4660      	mov	r0, ip
  405f54:	4770      	bx	lr
  405f56:	bf00      	nop
  405f58:	2a08      	cmp	r2, #8
  405f5a:	d313      	bcc.n	405f84 <memcpy+0x114>
  405f5c:	078b      	lsls	r3, r1, #30
  405f5e:	d08d      	beq.n	405e7c <memcpy+0xc>
  405f60:	f010 0303 	ands.w	r3, r0, #3
  405f64:	d08a      	beq.n	405e7c <memcpy+0xc>
  405f66:	f1c3 0304 	rsb	r3, r3, #4
  405f6a:	1ad2      	subs	r2, r2, r3
  405f6c:	07db      	lsls	r3, r3, #31
  405f6e:	bf1c      	itt	ne
  405f70:	f811 3b01 	ldrbne.w	r3, [r1], #1
  405f74:	f800 3b01 	strbne.w	r3, [r0], #1
  405f78:	d380      	bcc.n	405e7c <memcpy+0xc>
  405f7a:	f831 3b02 	ldrh.w	r3, [r1], #2
  405f7e:	f820 3b02 	strh.w	r3, [r0], #2
  405f82:	e77b      	b.n	405e7c <memcpy+0xc>
  405f84:	3a04      	subs	r2, #4
  405f86:	d3d9      	bcc.n	405f3c <memcpy+0xcc>
  405f88:	3a01      	subs	r2, #1
  405f8a:	f811 3b01 	ldrb.w	r3, [r1], #1
  405f8e:	f800 3b01 	strb.w	r3, [r0], #1
  405f92:	d2f9      	bcs.n	405f88 <memcpy+0x118>
  405f94:	780b      	ldrb	r3, [r1, #0]
  405f96:	7003      	strb	r3, [r0, #0]
  405f98:	784b      	ldrb	r3, [r1, #1]
  405f9a:	7043      	strb	r3, [r0, #1]
  405f9c:	788b      	ldrb	r3, [r1, #2]
  405f9e:	7083      	strb	r3, [r0, #2]
  405fa0:	4660      	mov	r0, ip
  405fa2:	4770      	bx	lr

00405fa4 <__malloc_lock>:
  405fa4:	4801      	ldr	r0, [pc, #4]	; (405fac <__malloc_lock+0x8>)
  405fa6:	f7ff bc59 	b.w	40585c <__retarget_lock_acquire_recursive>
  405faa:	bf00      	nop
  405fac:	20400ce0 	.word	0x20400ce0

00405fb0 <__malloc_unlock>:
  405fb0:	4801      	ldr	r0, [pc, #4]	; (405fb8 <__malloc_unlock+0x8>)
  405fb2:	f7ff bc55 	b.w	405860 <__retarget_lock_release_recursive>
  405fb6:	bf00      	nop
  405fb8:	20400ce0 	.word	0x20400ce0

00405fbc <_Balloc>:
  405fbc:	6cc3      	ldr	r3, [r0, #76]	; 0x4c
  405fbe:	b570      	push	{r4, r5, r6, lr}
  405fc0:	4605      	mov	r5, r0
  405fc2:	460c      	mov	r4, r1
  405fc4:	b14b      	cbz	r3, 405fda <_Balloc+0x1e>
  405fc6:	f853 0024 	ldr.w	r0, [r3, r4, lsl #2]
  405fca:	b180      	cbz	r0, 405fee <_Balloc+0x32>
  405fcc:	6802      	ldr	r2, [r0, #0]
  405fce:	f843 2024 	str.w	r2, [r3, r4, lsl #2]
  405fd2:	2300      	movs	r3, #0
  405fd4:	6103      	str	r3, [r0, #16]
  405fd6:	60c3      	str	r3, [r0, #12]
  405fd8:	bd70      	pop	{r4, r5, r6, pc}
  405fda:	2221      	movs	r2, #33	; 0x21
  405fdc:	2104      	movs	r1, #4
  405fde:	f000 fc5d 	bl	40689c <_calloc_r>
  405fe2:	64e8      	str	r0, [r5, #76]	; 0x4c
  405fe4:	4603      	mov	r3, r0
  405fe6:	2800      	cmp	r0, #0
  405fe8:	d1ed      	bne.n	405fc6 <_Balloc+0xa>
  405fea:	2000      	movs	r0, #0
  405fec:	bd70      	pop	{r4, r5, r6, pc}
  405fee:	2101      	movs	r1, #1
  405ff0:	fa01 f604 	lsl.w	r6, r1, r4
  405ff4:	1d72      	adds	r2, r6, #5
  405ff6:	4628      	mov	r0, r5
  405ff8:	0092      	lsls	r2, r2, #2
  405ffa:	f000 fc4f 	bl	40689c <_calloc_r>
  405ffe:	2800      	cmp	r0, #0
  406000:	d0f3      	beq.n	405fea <_Balloc+0x2e>
  406002:	6044      	str	r4, [r0, #4]
  406004:	6086      	str	r6, [r0, #8]
  406006:	e7e4      	b.n	405fd2 <_Balloc+0x16>

00406008 <_Bfree>:
  406008:	b131      	cbz	r1, 406018 <_Bfree+0x10>
  40600a:	6cc3      	ldr	r3, [r0, #76]	; 0x4c
  40600c:	684a      	ldr	r2, [r1, #4]
  40600e:	f853 0022 	ldr.w	r0, [r3, r2, lsl #2]
  406012:	6008      	str	r0, [r1, #0]
  406014:	f843 1022 	str.w	r1, [r3, r2, lsl #2]
  406018:	4770      	bx	lr
  40601a:	bf00      	nop

0040601c <__multadd>:
  40601c:	b5f0      	push	{r4, r5, r6, r7, lr}
  40601e:	690c      	ldr	r4, [r1, #16]
  406020:	b083      	sub	sp, #12
  406022:	460d      	mov	r5, r1
  406024:	4606      	mov	r6, r0
  406026:	f101 0e14 	add.w	lr, r1, #20
  40602a:	2700      	movs	r7, #0
  40602c:	f8de 0000 	ldr.w	r0, [lr]
  406030:	b281      	uxth	r1, r0
  406032:	fb02 3301 	mla	r3, r2, r1, r3
  406036:	0c01      	lsrs	r1, r0, #16
  406038:	0c18      	lsrs	r0, r3, #16
  40603a:	fb02 0101 	mla	r1, r2, r1, r0
  40603e:	b29b      	uxth	r3, r3
  406040:	3701      	adds	r7, #1
  406042:	eb03 4301 	add.w	r3, r3, r1, lsl #16
  406046:	42bc      	cmp	r4, r7
  406048:	f84e 3b04 	str.w	r3, [lr], #4
  40604c:	ea4f 4311 	mov.w	r3, r1, lsr #16
  406050:	dcec      	bgt.n	40602c <__multadd+0x10>
  406052:	b13b      	cbz	r3, 406064 <__multadd+0x48>
  406054:	68aa      	ldr	r2, [r5, #8]
  406056:	4294      	cmp	r4, r2
  406058:	da07      	bge.n	40606a <__multadd+0x4e>
  40605a:	eb05 0284 	add.w	r2, r5, r4, lsl #2
  40605e:	3401      	adds	r4, #1
  406060:	6153      	str	r3, [r2, #20]
  406062:	612c      	str	r4, [r5, #16]
  406064:	4628      	mov	r0, r5
  406066:	b003      	add	sp, #12
  406068:	bdf0      	pop	{r4, r5, r6, r7, pc}
  40606a:	6869      	ldr	r1, [r5, #4]
  40606c:	9301      	str	r3, [sp, #4]
  40606e:	3101      	adds	r1, #1
  406070:	4630      	mov	r0, r6
  406072:	f7ff ffa3 	bl	405fbc <_Balloc>
  406076:	692a      	ldr	r2, [r5, #16]
  406078:	3202      	adds	r2, #2
  40607a:	f105 010c 	add.w	r1, r5, #12
  40607e:	4607      	mov	r7, r0
  406080:	0092      	lsls	r2, r2, #2
  406082:	300c      	adds	r0, #12
  406084:	f7ff fef4 	bl	405e70 <memcpy>
  406088:	6cf2      	ldr	r2, [r6, #76]	; 0x4c
  40608a:	6869      	ldr	r1, [r5, #4]
  40608c:	9b01      	ldr	r3, [sp, #4]
  40608e:	f852 0021 	ldr.w	r0, [r2, r1, lsl #2]
  406092:	6028      	str	r0, [r5, #0]
  406094:	f842 5021 	str.w	r5, [r2, r1, lsl #2]
  406098:	463d      	mov	r5, r7
  40609a:	e7de      	b.n	40605a <__multadd+0x3e>

0040609c <__hi0bits>:
  40609c:	0c02      	lsrs	r2, r0, #16
  40609e:	0412      	lsls	r2, r2, #16
  4060a0:	4603      	mov	r3, r0
  4060a2:	b9b2      	cbnz	r2, 4060d2 <__hi0bits+0x36>
  4060a4:	0403      	lsls	r3, r0, #16
  4060a6:	2010      	movs	r0, #16
  4060a8:	f013 4f7f 	tst.w	r3, #4278190080	; 0xff000000
  4060ac:	bf04      	itt	eq
  4060ae:	021b      	lsleq	r3, r3, #8
  4060b0:	3008      	addeq	r0, #8
  4060b2:	f013 4f70 	tst.w	r3, #4026531840	; 0xf0000000
  4060b6:	bf04      	itt	eq
  4060b8:	011b      	lsleq	r3, r3, #4
  4060ba:	3004      	addeq	r0, #4
  4060bc:	f013 4f40 	tst.w	r3, #3221225472	; 0xc0000000
  4060c0:	bf04      	itt	eq
  4060c2:	009b      	lsleq	r3, r3, #2
  4060c4:	3002      	addeq	r0, #2
  4060c6:	2b00      	cmp	r3, #0
  4060c8:	db02      	blt.n	4060d0 <__hi0bits+0x34>
  4060ca:	005b      	lsls	r3, r3, #1
  4060cc:	d403      	bmi.n	4060d6 <__hi0bits+0x3a>
  4060ce:	2020      	movs	r0, #32
  4060d0:	4770      	bx	lr
  4060d2:	2000      	movs	r0, #0
  4060d4:	e7e8      	b.n	4060a8 <__hi0bits+0xc>
  4060d6:	3001      	adds	r0, #1
  4060d8:	4770      	bx	lr
  4060da:	bf00      	nop

004060dc <__lo0bits>:
  4060dc:	6803      	ldr	r3, [r0, #0]
  4060de:	f013 0207 	ands.w	r2, r3, #7
  4060e2:	4601      	mov	r1, r0
  4060e4:	d007      	beq.n	4060f6 <__lo0bits+0x1a>
  4060e6:	07da      	lsls	r2, r3, #31
  4060e8:	d421      	bmi.n	40612e <__lo0bits+0x52>
  4060ea:	0798      	lsls	r0, r3, #30
  4060ec:	d421      	bmi.n	406132 <__lo0bits+0x56>
  4060ee:	089b      	lsrs	r3, r3, #2
  4060f0:	600b      	str	r3, [r1, #0]
  4060f2:	2002      	movs	r0, #2
  4060f4:	4770      	bx	lr
  4060f6:	b298      	uxth	r0, r3
  4060f8:	b198      	cbz	r0, 406122 <__lo0bits+0x46>
  4060fa:	4610      	mov	r0, r2
  4060fc:	f013 0fff 	tst.w	r3, #255	; 0xff
  406100:	bf04      	itt	eq
  406102:	0a1b      	lsreq	r3, r3, #8
  406104:	3008      	addeq	r0, #8
  406106:	071a      	lsls	r2, r3, #28
  406108:	bf04      	itt	eq
  40610a:	091b      	lsreq	r3, r3, #4
  40610c:	3004      	addeq	r0, #4
  40610e:	079a      	lsls	r2, r3, #30
  406110:	bf04      	itt	eq
  406112:	089b      	lsreq	r3, r3, #2
  406114:	3002      	addeq	r0, #2
  406116:	07da      	lsls	r2, r3, #31
  406118:	d407      	bmi.n	40612a <__lo0bits+0x4e>
  40611a:	085b      	lsrs	r3, r3, #1
  40611c:	d104      	bne.n	406128 <__lo0bits+0x4c>
  40611e:	2020      	movs	r0, #32
  406120:	4770      	bx	lr
  406122:	0c1b      	lsrs	r3, r3, #16
  406124:	2010      	movs	r0, #16
  406126:	e7e9      	b.n	4060fc <__lo0bits+0x20>
  406128:	3001      	adds	r0, #1
  40612a:	600b      	str	r3, [r1, #0]
  40612c:	4770      	bx	lr
  40612e:	2000      	movs	r0, #0
  406130:	4770      	bx	lr
  406132:	085b      	lsrs	r3, r3, #1
  406134:	600b      	str	r3, [r1, #0]
  406136:	2001      	movs	r0, #1
  406138:	4770      	bx	lr
  40613a:	bf00      	nop

0040613c <__i2b>:
  40613c:	b510      	push	{r4, lr}
  40613e:	460c      	mov	r4, r1
  406140:	2101      	movs	r1, #1
  406142:	f7ff ff3b 	bl	405fbc <_Balloc>
  406146:	2201      	movs	r2, #1
  406148:	6144      	str	r4, [r0, #20]
  40614a:	6102      	str	r2, [r0, #16]
  40614c:	bd10      	pop	{r4, pc}
  40614e:	bf00      	nop

00406150 <__multiply>:
  406150:	e92d 4ff0 	stmdb	sp!, {r4, r5, r6, r7, r8, r9, sl, fp, lr}
  406154:	690c      	ldr	r4, [r1, #16]
  406156:	6915      	ldr	r5, [r2, #16]
  406158:	42ac      	cmp	r4, r5
  40615a:	b083      	sub	sp, #12
  40615c:	468b      	mov	fp, r1
  40615e:	4616      	mov	r6, r2
  406160:	da04      	bge.n	40616c <__multiply+0x1c>
  406162:	4622      	mov	r2, r4
  406164:	46b3      	mov	fp, r6
  406166:	462c      	mov	r4, r5
  406168:	460e      	mov	r6, r1
  40616a:	4615      	mov	r5, r2
  40616c:	f8db 3008 	ldr.w	r3, [fp, #8]
  406170:	f8db 1004 	ldr.w	r1, [fp, #4]
  406174:	eb04 0805 	add.w	r8, r4, r5
  406178:	4598      	cmp	r8, r3
  40617a:	bfc8      	it	gt
  40617c:	3101      	addgt	r1, #1
  40617e:	f7ff ff1d 	bl	405fbc <_Balloc>
  406182:	f100 0914 	add.w	r9, r0, #20
  406186:	eb09 0a88 	add.w	sl, r9, r8, lsl #2
  40618a:	45d1      	cmp	r9, sl
  40618c:	9000      	str	r0, [sp, #0]
  40618e:	d205      	bcs.n	40619c <__multiply+0x4c>
  406190:	464b      	mov	r3, r9
  406192:	2100      	movs	r1, #0
  406194:	f843 1b04 	str.w	r1, [r3], #4
  406198:	459a      	cmp	sl, r3
  40619a:	d8fb      	bhi.n	406194 <__multiply+0x44>
  40619c:	f106 0c14 	add.w	ip, r6, #20
  4061a0:	eb0c 0385 	add.w	r3, ip, r5, lsl #2
  4061a4:	f10b 0b14 	add.w	fp, fp, #20
  4061a8:	459c      	cmp	ip, r3
  4061aa:	eb0b 0e84 	add.w	lr, fp, r4, lsl #2
  4061ae:	d24c      	bcs.n	40624a <__multiply+0xfa>
  4061b0:	f8cd a004 	str.w	sl, [sp, #4]
  4061b4:	469a      	mov	sl, r3
  4061b6:	f8dc 5000 	ldr.w	r5, [ip]
  4061ba:	b2af      	uxth	r7, r5
  4061bc:	b1ef      	cbz	r7, 4061fa <__multiply+0xaa>
  4061be:	2100      	movs	r1, #0
  4061c0:	464d      	mov	r5, r9
  4061c2:	465e      	mov	r6, fp
  4061c4:	460c      	mov	r4, r1
  4061c6:	f856 2b04 	ldr.w	r2, [r6], #4
  4061ca:	6828      	ldr	r0, [r5, #0]
  4061cc:	b293      	uxth	r3, r2
  4061ce:	b281      	uxth	r1, r0
  4061d0:	fb07 1303 	mla	r3, r7, r3, r1
  4061d4:	0c12      	lsrs	r2, r2, #16
  4061d6:	0c01      	lsrs	r1, r0, #16
  4061d8:	4423      	add	r3, r4
  4061da:	fb07 1102 	mla	r1, r7, r2, r1
  4061de:	eb01 4113 	add.w	r1, r1, r3, lsr #16
  4061e2:	b29b      	uxth	r3, r3
  4061e4:	ea43 4301 	orr.w	r3, r3, r1, lsl #16
  4061e8:	45b6      	cmp	lr, r6
  4061ea:	f845 3b04 	str.w	r3, [r5], #4
  4061ee:	ea4f 4411 	mov.w	r4, r1, lsr #16
  4061f2:	d8e8      	bhi.n	4061c6 <__multiply+0x76>
  4061f4:	602c      	str	r4, [r5, #0]
  4061f6:	f8dc 5000 	ldr.w	r5, [ip]
  4061fa:	0c2d      	lsrs	r5, r5, #16
  4061fc:	d01d      	beq.n	40623a <__multiply+0xea>
  4061fe:	f8d9 3000 	ldr.w	r3, [r9]
  406202:	4648      	mov	r0, r9
  406204:	461c      	mov	r4, r3
  406206:	4659      	mov	r1, fp
  406208:	2200      	movs	r2, #0
  40620a:	880e      	ldrh	r6, [r1, #0]
  40620c:	0c24      	lsrs	r4, r4, #16
  40620e:	fb05 4406 	mla	r4, r5, r6, r4
  406212:	4422      	add	r2, r4
  406214:	b29b      	uxth	r3, r3
  406216:	ea43 4302 	orr.w	r3, r3, r2, lsl #16
  40621a:	f840 3b04 	str.w	r3, [r0], #4
  40621e:	f851 3b04 	ldr.w	r3, [r1], #4
  406222:	6804      	ldr	r4, [r0, #0]
  406224:	0c1b      	lsrs	r3, r3, #16
  406226:	b2a6      	uxth	r6, r4
  406228:	fb05 6303 	mla	r3, r5, r3, r6
  40622c:	eb03 4312 	add.w	r3, r3, r2, lsr #16
  406230:	458e      	cmp	lr, r1
  406232:	ea4f 4213 	mov.w	r2, r3, lsr #16
  406236:	d8e8      	bhi.n	40620a <__multiply+0xba>
  406238:	6003      	str	r3, [r0, #0]
  40623a:	f10c 0c04 	add.w	ip, ip, #4
  40623e:	45e2      	cmp	sl, ip
  406240:	f109 0904 	add.w	r9, r9, #4
  406244:	d8b7      	bhi.n	4061b6 <__multiply+0x66>
  406246:	f8dd a004 	ldr.w	sl, [sp, #4]
  40624a:	f1b8 0f00 	cmp.w	r8, #0
  40624e:	dd0b      	ble.n	406268 <__multiply+0x118>
  406250:	f85a 3c04 	ldr.w	r3, [sl, #-4]
  406254:	f1aa 0a04 	sub.w	sl, sl, #4
  406258:	b11b      	cbz	r3, 406262 <__multiply+0x112>
  40625a:	e005      	b.n	406268 <__multiply+0x118>
  40625c:	f85a 3d04 	ldr.w	r3, [sl, #-4]!
  406260:	b913      	cbnz	r3, 406268 <__multiply+0x118>
  406262:	f1b8 0801 	subs.w	r8, r8, #1
  406266:	d1f9      	bne.n	40625c <__multiply+0x10c>
  406268:	9800      	ldr	r0, [sp, #0]
  40626a:	f8c0 8010 	str.w	r8, [r0, #16]
  40626e:	b003      	add	sp, #12
  406270:	e8bd 8ff0 	ldmia.w	sp!, {r4, r5, r6, r7, r8, r9, sl, fp, pc}

00406274 <__pow5mult>:
  406274:	f012 0303 	ands.w	r3, r2, #3
  406278:	e92d 41f0 	stmdb	sp!, {r4, r5, r6, r7, r8, lr}
  40627c:	4614      	mov	r4, r2
  40627e:	4607      	mov	r7, r0
  406280:	d12e      	bne.n	4062e0 <__pow5mult+0x6c>
  406282:	460d      	mov	r5, r1
  406284:	10a4      	asrs	r4, r4, #2
  406286:	d01c      	beq.n	4062c2 <__pow5mult+0x4e>
  406288:	6cbe      	ldr	r6, [r7, #72]	; 0x48
  40628a:	b396      	cbz	r6, 4062f2 <__pow5mult+0x7e>
  40628c:	07e3      	lsls	r3, r4, #31
  40628e:	f04f 0800 	mov.w	r8, #0
  406292:	d406      	bmi.n	4062a2 <__pow5mult+0x2e>
  406294:	1064      	asrs	r4, r4, #1
  406296:	d014      	beq.n	4062c2 <__pow5mult+0x4e>
  406298:	6830      	ldr	r0, [r6, #0]
  40629a:	b1a8      	cbz	r0, 4062c8 <__pow5mult+0x54>
  40629c:	4606      	mov	r6, r0
  40629e:	07e3      	lsls	r3, r4, #31
  4062a0:	d5f8      	bpl.n	406294 <__pow5mult+0x20>
  4062a2:	4632      	mov	r2, r6
  4062a4:	4629      	mov	r1, r5
  4062a6:	4638      	mov	r0, r7
  4062a8:	f7ff ff52 	bl	406150 <__multiply>
  4062ac:	b1b5      	cbz	r5, 4062dc <__pow5mult+0x68>
  4062ae:	686a      	ldr	r2, [r5, #4]
  4062b0:	6cfb      	ldr	r3, [r7, #76]	; 0x4c
  4062b2:	1064      	asrs	r4, r4, #1
  4062b4:	f853 1022 	ldr.w	r1, [r3, r2, lsl #2]
  4062b8:	6029      	str	r1, [r5, #0]
  4062ba:	f843 5022 	str.w	r5, [r3, r2, lsl #2]
  4062be:	4605      	mov	r5, r0
  4062c0:	d1ea      	bne.n	406298 <__pow5mult+0x24>
  4062c2:	4628      	mov	r0, r5
  4062c4:	e8bd 81f0 	ldmia.w	sp!, {r4, r5, r6, r7, r8, pc}
  4062c8:	4632      	mov	r2, r6
  4062ca:	4631      	mov	r1, r6
  4062cc:	4638      	mov	r0, r7
  4062ce:	f7ff ff3f 	bl	406150 <__multiply>
  4062d2:	6030      	str	r0, [r6, #0]
  4062d4:	f8c0 8000 	str.w	r8, [r0]
  4062d8:	4606      	mov	r6, r0
  4062da:	e7e0      	b.n	40629e <__pow5mult+0x2a>
  4062dc:	4605      	mov	r5, r0
  4062de:	e7d9      	b.n	406294 <__pow5mult+0x20>
  4062e0:	1e5a      	subs	r2, r3, #1
  4062e2:	4d0b      	ldr	r5, [pc, #44]	; (406310 <__pow5mult+0x9c>)
  4062e4:	2300      	movs	r3, #0
  4062e6:	f855 2022 	ldr.w	r2, [r5, r2, lsl #2]
  4062ea:	f7ff fe97 	bl	40601c <__multadd>
  4062ee:	4605      	mov	r5, r0
  4062f0:	e7c8      	b.n	406284 <__pow5mult+0x10>
  4062f2:	2101      	movs	r1, #1
  4062f4:	4638      	mov	r0, r7
  4062f6:	f7ff fe61 	bl	405fbc <_Balloc>
  4062fa:	f240 2171 	movw	r1, #625	; 0x271
  4062fe:	2201      	movs	r2, #1
  406300:	2300      	movs	r3, #0
  406302:	6141      	str	r1, [r0, #20]
  406304:	6102      	str	r2, [r0, #16]
  406306:	4606      	mov	r6, r0
  406308:	64b8      	str	r0, [r7, #72]	; 0x48
  40630a:	6003      	str	r3, [r0, #0]
  40630c:	e7be      	b.n	40628c <__pow5mult+0x18>
  40630e:	bf00      	nop
  406310:	004084a0 	.word	0x004084a0

00406314 <__lshift>:
  406314:	e92d 43f8 	stmdb	sp!, {r3, r4, r5, r6, r7, r8, r9, lr}
  406318:	4691      	mov	r9, r2
  40631a:	690a      	ldr	r2, [r1, #16]
  40631c:	688b      	ldr	r3, [r1, #8]
  40631e:	ea4f 1469 	mov.w	r4, r9, asr #5
  406322:	eb04 0802 	add.w	r8, r4, r2
  406326:	f108 0501 	add.w	r5, r8, #1
  40632a:	429d      	cmp	r5, r3
  40632c:	460e      	mov	r6, r1
  40632e:	4607      	mov	r7, r0
  406330:	6849      	ldr	r1, [r1, #4]
  406332:	dd04      	ble.n	40633e <__lshift+0x2a>
  406334:	005b      	lsls	r3, r3, #1
  406336:	429d      	cmp	r5, r3
  406338:	f101 0101 	add.w	r1, r1, #1
  40633c:	dcfa      	bgt.n	406334 <__lshift+0x20>
  40633e:	4638      	mov	r0, r7
  406340:	f7ff fe3c 	bl	405fbc <_Balloc>
  406344:	2c00      	cmp	r4, #0
  406346:	f100 0314 	add.w	r3, r0, #20
  40634a:	dd06      	ble.n	40635a <__lshift+0x46>
  40634c:	eb03 0284 	add.w	r2, r3, r4, lsl #2
  406350:	2100      	movs	r1, #0
  406352:	f843 1b04 	str.w	r1, [r3], #4
  406356:	429a      	cmp	r2, r3
  406358:	d1fb      	bne.n	406352 <__lshift+0x3e>
  40635a:	6934      	ldr	r4, [r6, #16]
  40635c:	f106 0114 	add.w	r1, r6, #20
  406360:	f019 091f 	ands.w	r9, r9, #31
  406364:	eb01 0e84 	add.w	lr, r1, r4, lsl #2
  406368:	d01d      	beq.n	4063a6 <__lshift+0x92>
  40636a:	f1c9 0c20 	rsb	ip, r9, #32
  40636e:	2200      	movs	r2, #0
  406370:	680c      	ldr	r4, [r1, #0]
  406372:	fa04 f409 	lsl.w	r4, r4, r9
  406376:	4314      	orrs	r4, r2
  406378:	f843 4b04 	str.w	r4, [r3], #4
  40637c:	f851 2b04 	ldr.w	r2, [r1], #4
  406380:	458e      	cmp	lr, r1
  406382:	fa22 f20c 	lsr.w	r2, r2, ip
  406386:	d8f3      	bhi.n	406370 <__lshift+0x5c>
  406388:	601a      	str	r2, [r3, #0]
  40638a:	b10a      	cbz	r2, 406390 <__lshift+0x7c>
  40638c:	f108 0502 	add.w	r5, r8, #2
  406390:	6cfb      	ldr	r3, [r7, #76]	; 0x4c
  406392:	6872      	ldr	r2, [r6, #4]
  406394:	3d01      	subs	r5, #1
  406396:	f853 1022 	ldr.w	r1, [r3, r2, lsl #2]
  40639a:	6105      	str	r5, [r0, #16]
  40639c:	6031      	str	r1, [r6, #0]
  40639e:	f843 6022 	str.w	r6, [r3, r2, lsl #2]
  4063a2:	e8bd 83f8 	ldmia.w	sp!, {r3, r4, r5, r6, r7, r8, r9, pc}
  4063a6:	3b04      	subs	r3, #4
  4063a8:	f851 2b04 	ldr.w	r2, [r1], #4
  4063ac:	f843 2f04 	str.w	r2, [r3, #4]!
  4063b0:	458e      	cmp	lr, r1
  4063b2:	d8f9      	bhi.n	4063a8 <__lshift+0x94>
  4063b4:	e7ec      	b.n	406390 <__lshift+0x7c>
  4063b6:	bf00      	nop

004063b8 <__mcmp>:
  4063b8:	b430      	push	{r4, r5}
  4063ba:	690b      	ldr	r3, [r1, #16]
  4063bc:	4605      	mov	r5, r0
  4063be:	6900      	ldr	r0, [r0, #16]
  4063c0:	1ac0      	subs	r0, r0, r3
  4063c2:	d10f      	bne.n	4063e4 <__mcmp+0x2c>
  4063c4:	009b      	lsls	r3, r3, #2
  4063c6:	3514      	adds	r5, #20
  4063c8:	3114      	adds	r1, #20
  4063ca:	4419      	add	r1, r3
  4063cc:	442b      	add	r3, r5
  4063ce:	e001      	b.n	4063d4 <__mcmp+0x1c>
  4063d0:	429d      	cmp	r5, r3
  4063d2:	d207      	bcs.n	4063e4 <__mcmp+0x2c>
  4063d4:	f853 4d04 	ldr.w	r4, [r3, #-4]!
  4063d8:	f851 2d04 	ldr.w	r2, [r1, #-4]!
  4063dc:	4294      	cmp	r4, r2
  4063de:	d0f7      	beq.n	4063d0 <__mcmp+0x18>
  4063e0:	d302      	bcc.n	4063e8 <__mcmp+0x30>
  4063e2:	2001      	movs	r0, #1
  4063e4:	bc30      	pop	{r4, r5}
  4063e6:	4770      	bx	lr
  4063e8:	f04f 30ff 	mov.w	r0, #4294967295
  4063ec:	e7fa      	b.n	4063e4 <__mcmp+0x2c>
  4063ee:	bf00      	nop

004063f0 <__mdiff>:
  4063f0:	e92d 41f0 	stmdb	sp!, {r4, r5, r6, r7, r8, lr}
  4063f4:	690f      	ldr	r7, [r1, #16]
  4063f6:	460e      	mov	r6, r1
  4063f8:	6911      	ldr	r1, [r2, #16]
  4063fa:	1a7f      	subs	r7, r7, r1
  4063fc:	2f00      	cmp	r7, #0
  4063fe:	4690      	mov	r8, r2
  406400:	d117      	bne.n	406432 <__mdiff+0x42>
  406402:	0089      	lsls	r1, r1, #2
  406404:	f106 0514 	add.w	r5, r6, #20
  406408:	f102 0e14 	add.w	lr, r2, #20
  40640c:	186b      	adds	r3, r5, r1
  40640e:	4471      	add	r1, lr
  406410:	e001      	b.n	406416 <__mdiff+0x26>
  406412:	429d      	cmp	r5, r3
  406414:	d25c      	bcs.n	4064d0 <__mdiff+0xe0>
  406416:	f853 2d04 	ldr.w	r2, [r3, #-4]!
  40641a:	f851 4d04 	ldr.w	r4, [r1, #-4]!
  40641e:	42a2      	cmp	r2, r4
  406420:	d0f7      	beq.n	406412 <__mdiff+0x22>
  406422:	d25e      	bcs.n	4064e2 <__mdiff+0xf2>
  406424:	4633      	mov	r3, r6
  406426:	462c      	mov	r4, r5
  406428:	4646      	mov	r6, r8
  40642a:	4675      	mov	r5, lr
  40642c:	4698      	mov	r8, r3
  40642e:	2701      	movs	r7, #1
  406430:	e005      	b.n	40643e <__mdiff+0x4e>
  406432:	db58      	blt.n	4064e6 <__mdiff+0xf6>
  406434:	f106 0514 	add.w	r5, r6, #20
  406438:	f108 0414 	add.w	r4, r8, #20
  40643c:	2700      	movs	r7, #0
  40643e:	6871      	ldr	r1, [r6, #4]
  406440:	f7ff fdbc 	bl	405fbc <_Balloc>
  406444:	f8d8 3010 	ldr.w	r3, [r8, #16]
  406448:	6936      	ldr	r6, [r6, #16]
  40644a:	60c7      	str	r7, [r0, #12]
  40644c:	eb04 0c83 	add.w	ip, r4, r3, lsl #2
  406450:	46a6      	mov	lr, r4
  406452:	eb05 0786 	add.w	r7, r5, r6, lsl #2
  406456:	f100 0414 	add.w	r4, r0, #20
  40645a:	2300      	movs	r3, #0
  40645c:	f85e 1b04 	ldr.w	r1, [lr], #4
  406460:	f855 8b04 	ldr.w	r8, [r5], #4
  406464:	b28a      	uxth	r2, r1
  406466:	fa13 f388 	uxtah	r3, r3, r8
  40646a:	0c09      	lsrs	r1, r1, #16
  40646c:	1a9a      	subs	r2, r3, r2
  40646e:	ebc1 4318 	rsb	r3, r1, r8, lsr #16
  406472:	eb03 4322 	add.w	r3, r3, r2, asr #16
  406476:	b292      	uxth	r2, r2
  406478:	ea42 4203 	orr.w	r2, r2, r3, lsl #16
  40647c:	45f4      	cmp	ip, lr
  40647e:	f844 2b04 	str.w	r2, [r4], #4
  406482:	ea4f 4323 	mov.w	r3, r3, asr #16
  406486:	d8e9      	bhi.n	40645c <__mdiff+0x6c>
  406488:	42af      	cmp	r7, r5
  40648a:	d917      	bls.n	4064bc <__mdiff+0xcc>
  40648c:	46a4      	mov	ip, r4
  40648e:	46ae      	mov	lr, r5
  406490:	f85e 2b04 	ldr.w	r2, [lr], #4
  406494:	fa13 f382 	uxtah	r3, r3, r2
  406498:	1419      	asrs	r1, r3, #16
  40649a:	eb01 4112 	add.w	r1, r1, r2, lsr #16
  40649e:	b29b      	uxth	r3, r3
  4064a0:	ea43 4201 	orr.w	r2, r3, r1, lsl #16
  4064a4:	4577      	cmp	r7, lr
  4064a6:	f84c 2b04 	str.w	r2, [ip], #4
  4064aa:	ea4f 4321 	mov.w	r3, r1, asr #16
  4064ae:	d8ef      	bhi.n	406490 <__mdiff+0xa0>
  4064b0:	43ed      	mvns	r5, r5
  4064b2:	442f      	add	r7, r5
  4064b4:	f027 0703 	bic.w	r7, r7, #3
  4064b8:	3704      	adds	r7, #4
  4064ba:	443c      	add	r4, r7
  4064bc:	3c04      	subs	r4, #4
  4064be:	b922      	cbnz	r2, 4064ca <__mdiff+0xda>
  4064c0:	f854 3d04 	ldr.w	r3, [r4, #-4]!
  4064c4:	3e01      	subs	r6, #1
  4064c6:	2b00      	cmp	r3, #0
  4064c8:	d0fa      	beq.n	4064c0 <__mdiff+0xd0>
  4064ca:	6106      	str	r6, [r0, #16]
  4064cc:	e8bd 81f0 	ldmia.w	sp!, {r4, r5, r6, r7, r8, pc}
  4064d0:	2100      	movs	r1, #0
  4064d2:	f7ff fd73 	bl	405fbc <_Balloc>
  4064d6:	2201      	movs	r2, #1
  4064d8:	2300      	movs	r3, #0
  4064da:	6102      	str	r2, [r0, #16]
  4064dc:	6143      	str	r3, [r0, #20]
  4064de:	e8bd 81f0 	ldmia.w	sp!, {r4, r5, r6, r7, r8, pc}
  4064e2:	4674      	mov	r4, lr
  4064e4:	e7ab      	b.n	40643e <__mdiff+0x4e>
  4064e6:	4633      	mov	r3, r6
  4064e8:	f106 0414 	add.w	r4, r6, #20
  4064ec:	f102 0514 	add.w	r5, r2, #20
  4064f0:	4616      	mov	r6, r2
  4064f2:	2701      	movs	r7, #1
  4064f4:	4698      	mov	r8, r3
  4064f6:	e7a2      	b.n	40643e <__mdiff+0x4e>

004064f8 <__d2b>:
  4064f8:	e92d 41f0 	stmdb	sp!, {r4, r5, r6, r7, r8, lr}
  4064fc:	b082      	sub	sp, #8
  4064fe:	2101      	movs	r1, #1
  406500:	461c      	mov	r4, r3
  406502:	f3c3 570a 	ubfx	r7, r3, #20, #11
  406506:	4615      	mov	r5, r2
  406508:	9e08      	ldr	r6, [sp, #32]
  40650a:	f7ff fd57 	bl	405fbc <_Balloc>
  40650e:	f3c4 0413 	ubfx	r4, r4, #0, #20
  406512:	4680      	mov	r8, r0
  406514:	b10f      	cbz	r7, 40651a <__d2b+0x22>
  406516:	f444 1480 	orr.w	r4, r4, #1048576	; 0x100000
  40651a:	9401      	str	r4, [sp, #4]
  40651c:	b31d      	cbz	r5, 406566 <__d2b+0x6e>
  40651e:	a802      	add	r0, sp, #8
  406520:	f840 5d08 	str.w	r5, [r0, #-8]!
  406524:	f7ff fdda 	bl	4060dc <__lo0bits>
  406528:	2800      	cmp	r0, #0
  40652a:	d134      	bne.n	406596 <__d2b+0x9e>
  40652c:	e89d 000c 	ldmia.w	sp, {r2, r3}
  406530:	f8c8 2014 	str.w	r2, [r8, #20]
  406534:	2b00      	cmp	r3, #0
  406536:	bf0c      	ite	eq
  406538:	2101      	moveq	r1, #1
  40653a:	2102      	movne	r1, #2
  40653c:	f8c8 3018 	str.w	r3, [r8, #24]
  406540:	f8c8 1010 	str.w	r1, [r8, #16]
  406544:	b9df      	cbnz	r7, 40657e <__d2b+0x86>
  406546:	eb08 0381 	add.w	r3, r8, r1, lsl #2
  40654a:	f2a0 4032 	subw	r0, r0, #1074	; 0x432
  40654e:	6030      	str	r0, [r6, #0]
  406550:	6918      	ldr	r0, [r3, #16]
  406552:	f7ff fda3 	bl	40609c <__hi0bits>
  406556:	9b09      	ldr	r3, [sp, #36]	; 0x24
  406558:	ebc0 1041 	rsb	r0, r0, r1, lsl #5
  40655c:	6018      	str	r0, [r3, #0]
  40655e:	4640      	mov	r0, r8
  406560:	b002      	add	sp, #8
  406562:	e8bd 81f0 	ldmia.w	sp!, {r4, r5, r6, r7, r8, pc}
  406566:	a801      	add	r0, sp, #4
  406568:	f7ff fdb8 	bl	4060dc <__lo0bits>
  40656c:	9b01      	ldr	r3, [sp, #4]
  40656e:	f8c8 3014 	str.w	r3, [r8, #20]
  406572:	2101      	movs	r1, #1
  406574:	3020      	adds	r0, #32
  406576:	f8c8 1010 	str.w	r1, [r8, #16]
  40657a:	2f00      	cmp	r7, #0
  40657c:	d0e3      	beq.n	406546 <__d2b+0x4e>
  40657e:	9b09      	ldr	r3, [sp, #36]	; 0x24
  406580:	f2a7 4733 	subw	r7, r7, #1075	; 0x433
  406584:	4407      	add	r7, r0
  406586:	f1c0 0035 	rsb	r0, r0, #53	; 0x35
  40658a:	6037      	str	r7, [r6, #0]
  40658c:	6018      	str	r0, [r3, #0]
  40658e:	4640      	mov	r0, r8
  406590:	b002      	add	sp, #8
  406592:	e8bd 81f0 	ldmia.w	sp!, {r4, r5, r6, r7, r8, pc}
  406596:	e89d 000a 	ldmia.w	sp, {r1, r3}
  40659a:	f1c0 0220 	rsb	r2, r0, #32
  40659e:	fa03 f202 	lsl.w	r2, r3, r2
  4065a2:	430a      	orrs	r2, r1
  4065a4:	40c3      	lsrs	r3, r0
  4065a6:	9301      	str	r3, [sp, #4]
  4065a8:	f8c8 2014 	str.w	r2, [r8, #20]
  4065ac:	e7c2      	b.n	406534 <__d2b+0x3c>
  4065ae:	bf00      	nop

004065b0 <_sbrk_r>:
  4065b0:	b538      	push	{r3, r4, r5, lr}
  4065b2:	4c07      	ldr	r4, [pc, #28]	; (4065d0 <_sbrk_r+0x20>)
  4065b4:	2300      	movs	r3, #0
  4065b6:	4605      	mov	r5, r0
  4065b8:	4608      	mov	r0, r1
  4065ba:	6023      	str	r3, [r4, #0]
  4065bc:	f7fc f9ee 	bl	40299c <_sbrk>
  4065c0:	1c43      	adds	r3, r0, #1
  4065c2:	d000      	beq.n	4065c6 <_sbrk_r+0x16>
  4065c4:	bd38      	pop	{r3, r4, r5, pc}
  4065c6:	6823      	ldr	r3, [r4, #0]
  4065c8:	2b00      	cmp	r3, #0
  4065ca:	d0fb      	beq.n	4065c4 <_sbrk_r+0x14>
  4065cc:	602b      	str	r3, [r5, #0]
  4065ce:	bd38      	pop	{r3, r4, r5, pc}
  4065d0:	20400cf4 	.word	0x20400cf4
	...

00406600 <strlen>:
  406600:	f890 f000 	pld	[r0]
  406604:	e96d 4502 	strd	r4, r5, [sp, #-8]!
  406608:	f020 0107 	bic.w	r1, r0, #7
  40660c:	f06f 0c00 	mvn.w	ip, #0
  406610:	f010 0407 	ands.w	r4, r0, #7
  406614:	f891 f020 	pld	[r1, #32]
  406618:	f040 8049 	bne.w	4066ae <strlen+0xae>
  40661c:	f04f 0400 	mov.w	r4, #0
  406620:	f06f 0007 	mvn.w	r0, #7
  406624:	e9d1 2300 	ldrd	r2, r3, [r1]
  406628:	f891 f040 	pld	[r1, #64]	; 0x40
  40662c:	f100 0008 	add.w	r0, r0, #8
  406630:	fa82 f24c 	uadd8	r2, r2, ip
  406634:	faa4 f28c 	sel	r2, r4, ip
  406638:	fa83 f34c 	uadd8	r3, r3, ip
  40663c:	faa2 f38c 	sel	r3, r2, ip
  406640:	bb4b      	cbnz	r3, 406696 <strlen+0x96>
  406642:	e9d1 2302 	ldrd	r2, r3, [r1, #8]
  406646:	fa82 f24c 	uadd8	r2, r2, ip
  40664a:	f100 0008 	add.w	r0, r0, #8
  40664e:	faa4 f28c 	sel	r2, r4, ip
  406652:	fa83 f34c 	uadd8	r3, r3, ip
  406656:	faa2 f38c 	sel	r3, r2, ip
  40665a:	b9e3      	cbnz	r3, 406696 <strlen+0x96>
  40665c:	e9d1 2304 	ldrd	r2, r3, [r1, #16]
  406660:	fa82 f24c 	uadd8	r2, r2, ip
  406664:	f100 0008 	add.w	r0, r0, #8
  406668:	faa4 f28c 	sel	r2, r4, ip
  40666c:	fa83 f34c 	uadd8	r3, r3, ip
  406670:	faa2 f38c 	sel	r3, r2, ip
  406674:	b97b      	cbnz	r3, 406696 <strlen+0x96>
  406676:	e9d1 2306 	ldrd	r2, r3, [r1, #24]
  40667a:	f101 0120 	add.w	r1, r1, #32
  40667e:	fa82 f24c 	uadd8	r2, r2, ip
  406682:	f100 0008 	add.w	r0, r0, #8
  406686:	faa4 f28c 	sel	r2, r4, ip
  40668a:	fa83 f34c 	uadd8	r3, r3, ip
  40668e:	faa2 f38c 	sel	r3, r2, ip
  406692:	2b00      	cmp	r3, #0
  406694:	d0c6      	beq.n	406624 <strlen+0x24>
  406696:	2a00      	cmp	r2, #0
  406698:	bf04      	itt	eq
  40669a:	3004      	addeq	r0, #4
  40669c:	461a      	moveq	r2, r3
  40669e:	ba12      	rev	r2, r2
  4066a0:	fab2 f282 	clz	r2, r2
  4066a4:	e8fd 4502 	ldrd	r4, r5, [sp], #8
  4066a8:	eb00 00d2 	add.w	r0, r0, r2, lsr #3
  4066ac:	4770      	bx	lr
  4066ae:	e9d1 2300 	ldrd	r2, r3, [r1]
  4066b2:	f004 0503 	and.w	r5, r4, #3
  4066b6:	f1c4 0000 	rsb	r0, r4, #0
  4066ba:	ea4f 05c5 	mov.w	r5, r5, lsl #3
  4066be:	f014 0f04 	tst.w	r4, #4
  4066c2:	f891 f040 	pld	[r1, #64]	; 0x40
  4066c6:	fa0c f505 	lsl.w	r5, ip, r5
  4066ca:	ea62 0205 	orn	r2, r2, r5
  4066ce:	bf1c      	itt	ne
  4066d0:	ea63 0305 	ornne	r3, r3, r5
  4066d4:	4662      	movne	r2, ip
  4066d6:	f04f 0400 	mov.w	r4, #0
  4066da:	e7a9      	b.n	406630 <strlen+0x30>

004066dc <__ssprint_r>:
  4066dc:	e92d 4ff0 	stmdb	sp!, {r4, r5, r6, r7, r8, r9, sl, fp, lr}
  4066e0:	6893      	ldr	r3, [r2, #8]
  4066e2:	b083      	sub	sp, #12
  4066e4:	4690      	mov	r8, r2
  4066e6:	2b00      	cmp	r3, #0
  4066e8:	d070      	beq.n	4067cc <__ssprint_r+0xf0>
  4066ea:	4682      	mov	sl, r0
  4066ec:	460c      	mov	r4, r1
  4066ee:	6817      	ldr	r7, [r2, #0]
  4066f0:	688d      	ldr	r5, [r1, #8]
  4066f2:	6808      	ldr	r0, [r1, #0]
  4066f4:	e042      	b.n	40677c <__ssprint_r+0xa0>
  4066f6:	89a3      	ldrh	r3, [r4, #12]
  4066f8:	f413 6f90 	tst.w	r3, #1152	; 0x480
  4066fc:	d02e      	beq.n	40675c <__ssprint_r+0x80>
  4066fe:	6965      	ldr	r5, [r4, #20]
  406700:	6921      	ldr	r1, [r4, #16]
  406702:	eb05 0545 	add.w	r5, r5, r5, lsl #1
  406706:	eba0 0b01 	sub.w	fp, r0, r1
  40670a:	eb05 75d5 	add.w	r5, r5, r5, lsr #31
  40670e:	f10b 0001 	add.w	r0, fp, #1
  406712:	106d      	asrs	r5, r5, #1
  406714:	4430      	add	r0, r6
  406716:	42a8      	cmp	r0, r5
  406718:	462a      	mov	r2, r5
  40671a:	bf84      	itt	hi
  40671c:	4605      	movhi	r5, r0
  40671e:	462a      	movhi	r2, r5
  406720:	055b      	lsls	r3, r3, #21
  406722:	d538      	bpl.n	406796 <__ssprint_r+0xba>
  406724:	4611      	mov	r1, r2
  406726:	4650      	mov	r0, sl
  406728:	f7ff f89c 	bl	405864 <_malloc_r>
  40672c:	2800      	cmp	r0, #0
  40672e:	d03c      	beq.n	4067aa <__ssprint_r+0xce>
  406730:	465a      	mov	r2, fp
  406732:	6921      	ldr	r1, [r4, #16]
  406734:	9001      	str	r0, [sp, #4]
  406736:	f7ff fb9b 	bl	405e70 <memcpy>
  40673a:	89a2      	ldrh	r2, [r4, #12]
  40673c:	9b01      	ldr	r3, [sp, #4]
  40673e:	f422 6290 	bic.w	r2, r2, #1152	; 0x480
  406742:	f042 0280 	orr.w	r2, r2, #128	; 0x80
  406746:	81a2      	strh	r2, [r4, #12]
  406748:	eba5 020b 	sub.w	r2, r5, fp
  40674c:	eb03 000b 	add.w	r0, r3, fp
  406750:	6165      	str	r5, [r4, #20]
  406752:	6123      	str	r3, [r4, #16]
  406754:	6020      	str	r0, [r4, #0]
  406756:	60a2      	str	r2, [r4, #8]
  406758:	4635      	mov	r5, r6
  40675a:	46b3      	mov	fp, r6
  40675c:	465a      	mov	r2, fp
  40675e:	4649      	mov	r1, r9
  406760:	f000 fa18 	bl	406b94 <memmove>
  406764:	f8d8 3008 	ldr.w	r3, [r8, #8]
  406768:	68a2      	ldr	r2, [r4, #8]
  40676a:	6820      	ldr	r0, [r4, #0]
  40676c:	1b55      	subs	r5, r2, r5
  40676e:	4458      	add	r0, fp
  406770:	1b9e      	subs	r6, r3, r6
  406772:	60a5      	str	r5, [r4, #8]
  406774:	6020      	str	r0, [r4, #0]
  406776:	f8c8 6008 	str.w	r6, [r8, #8]
  40677a:	b33e      	cbz	r6, 4067cc <__ssprint_r+0xf0>
  40677c:	687e      	ldr	r6, [r7, #4]
  40677e:	463b      	mov	r3, r7
  406780:	3708      	adds	r7, #8
  406782:	2e00      	cmp	r6, #0
  406784:	d0fa      	beq.n	40677c <__ssprint_r+0xa0>
  406786:	42ae      	cmp	r6, r5
  406788:	f8d3 9000 	ldr.w	r9, [r3]
  40678c:	46ab      	mov	fp, r5
  40678e:	d2b2      	bcs.n	4066f6 <__ssprint_r+0x1a>
  406790:	4635      	mov	r5, r6
  406792:	46b3      	mov	fp, r6
  406794:	e7e2      	b.n	40675c <__ssprint_r+0x80>
  406796:	4650      	mov	r0, sl
  406798:	f000 fa60 	bl	406c5c <_realloc_r>
  40679c:	4603      	mov	r3, r0
  40679e:	2800      	cmp	r0, #0
  4067a0:	d1d2      	bne.n	406748 <__ssprint_r+0x6c>
  4067a2:	6921      	ldr	r1, [r4, #16]
  4067a4:	4650      	mov	r0, sl
  4067a6:	f000 f8f9 	bl	40699c <_free_r>
  4067aa:	230c      	movs	r3, #12
  4067ac:	f8ca 3000 	str.w	r3, [sl]
  4067b0:	89a3      	ldrh	r3, [r4, #12]
  4067b2:	2200      	movs	r2, #0
  4067b4:	f043 0340 	orr.w	r3, r3, #64	; 0x40
  4067b8:	f04f 30ff 	mov.w	r0, #4294967295
  4067bc:	81a3      	strh	r3, [r4, #12]
  4067be:	f8c8 2008 	str.w	r2, [r8, #8]
  4067c2:	f8c8 2004 	str.w	r2, [r8, #4]
  4067c6:	b003      	add	sp, #12
  4067c8:	e8bd 8ff0 	ldmia.w	sp!, {r4, r5, r6, r7, r8, r9, sl, fp, pc}
  4067cc:	2000      	movs	r0, #0
  4067ce:	f8c8 0004 	str.w	r0, [r8, #4]
  4067d2:	b003      	add	sp, #12
  4067d4:	e8bd 8ff0 	ldmia.w	sp!, {r4, r5, r6, r7, r8, r9, sl, fp, pc}

004067d8 <__register_exitproc>:
  4067d8:	e92d 43f8 	stmdb	sp!, {r3, r4, r5, r6, r7, r8, r9, lr}
  4067dc:	4d2c      	ldr	r5, [pc, #176]	; (406890 <__register_exitproc+0xb8>)
  4067de:	4606      	mov	r6, r0
  4067e0:	6828      	ldr	r0, [r5, #0]
  4067e2:	4698      	mov	r8, r3
  4067e4:	460f      	mov	r7, r1
  4067e6:	4691      	mov	r9, r2
  4067e8:	f7ff f838 	bl	40585c <__retarget_lock_acquire_recursive>
  4067ec:	4b29      	ldr	r3, [pc, #164]	; (406894 <__register_exitproc+0xbc>)
  4067ee:	681c      	ldr	r4, [r3, #0]
  4067f0:	f8d4 3148 	ldr.w	r3, [r4, #328]	; 0x148
  4067f4:	2b00      	cmp	r3, #0
  4067f6:	d03e      	beq.n	406876 <__register_exitproc+0x9e>
  4067f8:	685a      	ldr	r2, [r3, #4]
  4067fa:	2a1f      	cmp	r2, #31
  4067fc:	dc1c      	bgt.n	406838 <__register_exitproc+0x60>
  4067fe:	f102 0e01 	add.w	lr, r2, #1
  406802:	b176      	cbz	r6, 406822 <__register_exitproc+0x4a>
  406804:	eb03 0182 	add.w	r1, r3, r2, lsl #2
  406808:	2401      	movs	r4, #1
  40680a:	f8c1 9088 	str.w	r9, [r1, #136]	; 0x88
  40680e:	f8d3 0188 	ldr.w	r0, [r3, #392]	; 0x188
  406812:	4094      	lsls	r4, r2
  406814:	4320      	orrs	r0, r4
  406816:	2e02      	cmp	r6, #2
  406818:	f8c3 0188 	str.w	r0, [r3, #392]	; 0x188
  40681c:	f8c1 8108 	str.w	r8, [r1, #264]	; 0x108
  406820:	d023      	beq.n	40686a <__register_exitproc+0x92>
  406822:	3202      	adds	r2, #2
  406824:	f8c3 e004 	str.w	lr, [r3, #4]
  406828:	6828      	ldr	r0, [r5, #0]
  40682a:	f843 7022 	str.w	r7, [r3, r2, lsl #2]
  40682e:	f7ff f817 	bl	405860 <__retarget_lock_release_recursive>
  406832:	2000      	movs	r0, #0
  406834:	e8bd 83f8 	ldmia.w	sp!, {r3, r4, r5, r6, r7, r8, r9, pc}
  406838:	4b17      	ldr	r3, [pc, #92]	; (406898 <__register_exitproc+0xc0>)
  40683a:	b30b      	cbz	r3, 406880 <__register_exitproc+0xa8>
  40683c:	f44f 70c8 	mov.w	r0, #400	; 0x190
  406840:	f3af 8000 	nop.w
  406844:	4603      	mov	r3, r0
  406846:	b1d8      	cbz	r0, 406880 <__register_exitproc+0xa8>
  406848:	f8d4 2148 	ldr.w	r2, [r4, #328]	; 0x148
  40684c:	6002      	str	r2, [r0, #0]
  40684e:	2100      	movs	r1, #0
  406850:	6041      	str	r1, [r0, #4]
  406852:	460a      	mov	r2, r1
  406854:	f8c4 0148 	str.w	r0, [r4, #328]	; 0x148
  406858:	f04f 0e01 	mov.w	lr, #1
  40685c:	f8c0 1188 	str.w	r1, [r0, #392]	; 0x188
  406860:	f8c0 118c 	str.w	r1, [r0, #396]	; 0x18c
  406864:	2e00      	cmp	r6, #0
  406866:	d0dc      	beq.n	406822 <__register_exitproc+0x4a>
  406868:	e7cc      	b.n	406804 <__register_exitproc+0x2c>
  40686a:	f8d3 118c 	ldr.w	r1, [r3, #396]	; 0x18c
  40686e:	430c      	orrs	r4, r1
  406870:	f8c3 418c 	str.w	r4, [r3, #396]	; 0x18c
  406874:	e7d5      	b.n	406822 <__register_exitproc+0x4a>
  406876:	f504 73a6 	add.w	r3, r4, #332	; 0x14c
  40687a:	f8c4 3148 	str.w	r3, [r4, #328]	; 0x148
  40687e:	e7bb      	b.n	4067f8 <__register_exitproc+0x20>
  406880:	6828      	ldr	r0, [r5, #0]
  406882:	f7fe ffed 	bl	405860 <__retarget_lock_release_recursive>
  406886:	f04f 30ff 	mov.w	r0, #4294967295
  40688a:	e8bd 83f8 	ldmia.w	sp!, {r3, r4, r5, r6, r7, r8, r9, pc}
  40688e:	bf00      	nop
  406890:	20400450 	.word	0x20400450
  406894:	00408338 	.word	0x00408338
  406898:	00000000 	.word	0x00000000

0040689c <_calloc_r>:
  40689c:	b510      	push	{r4, lr}
  40689e:	fb02 f101 	mul.w	r1, r2, r1
  4068a2:	f7fe ffdf 	bl	405864 <_malloc_r>
  4068a6:	4604      	mov	r4, r0
  4068a8:	b1d8      	cbz	r0, 4068e2 <_calloc_r+0x46>
  4068aa:	f850 2c04 	ldr.w	r2, [r0, #-4]
  4068ae:	f022 0203 	bic.w	r2, r2, #3
  4068b2:	3a04      	subs	r2, #4
  4068b4:	2a24      	cmp	r2, #36	; 0x24
  4068b6:	d818      	bhi.n	4068ea <_calloc_r+0x4e>
  4068b8:	2a13      	cmp	r2, #19
  4068ba:	d914      	bls.n	4068e6 <_calloc_r+0x4a>
  4068bc:	2300      	movs	r3, #0
  4068be:	2a1b      	cmp	r2, #27
  4068c0:	6003      	str	r3, [r0, #0]
  4068c2:	6043      	str	r3, [r0, #4]
  4068c4:	d916      	bls.n	4068f4 <_calloc_r+0x58>
  4068c6:	2a24      	cmp	r2, #36	; 0x24
  4068c8:	6083      	str	r3, [r0, #8]
  4068ca:	60c3      	str	r3, [r0, #12]
  4068cc:	bf11      	iteee	ne
  4068ce:	f100 0210 	addne.w	r2, r0, #16
  4068d2:	6103      	streq	r3, [r0, #16]
  4068d4:	6143      	streq	r3, [r0, #20]
  4068d6:	f100 0218 	addeq.w	r2, r0, #24
  4068da:	2300      	movs	r3, #0
  4068dc:	6013      	str	r3, [r2, #0]
  4068de:	6053      	str	r3, [r2, #4]
  4068e0:	6093      	str	r3, [r2, #8]
  4068e2:	4620      	mov	r0, r4
  4068e4:	bd10      	pop	{r4, pc}
  4068e6:	4602      	mov	r2, r0
  4068e8:	e7f7      	b.n	4068da <_calloc_r+0x3e>
  4068ea:	2100      	movs	r1, #0
  4068ec:	f7fc fd1c 	bl	403328 <memset>
  4068f0:	4620      	mov	r0, r4
  4068f2:	bd10      	pop	{r4, pc}
  4068f4:	f100 0208 	add.w	r2, r0, #8
  4068f8:	e7ef      	b.n	4068da <_calloc_r+0x3e>
  4068fa:	bf00      	nop

004068fc <_malloc_trim_r>:
  4068fc:	b5f8      	push	{r3, r4, r5, r6, r7, lr}
  4068fe:	4f24      	ldr	r7, [pc, #144]	; (406990 <_malloc_trim_r+0x94>)
  406900:	460c      	mov	r4, r1
  406902:	4606      	mov	r6, r0
  406904:	f7ff fb4e 	bl	405fa4 <__malloc_lock>
  406908:	68bb      	ldr	r3, [r7, #8]
  40690a:	685d      	ldr	r5, [r3, #4]
  40690c:	f5c4 617e 	rsb	r1, r4, #4064	; 0xfe0
  406910:	310f      	adds	r1, #15
  406912:	f025 0503 	bic.w	r5, r5, #3
  406916:	4429      	add	r1, r5
  406918:	f421 617f 	bic.w	r1, r1, #4080	; 0xff0
  40691c:	f021 010f 	bic.w	r1, r1, #15
  406920:	f5a1 5480 	sub.w	r4, r1, #4096	; 0x1000
  406924:	f5b4 5f80 	cmp.w	r4, #4096	; 0x1000
  406928:	db07      	blt.n	40693a <_malloc_trim_r+0x3e>
  40692a:	2100      	movs	r1, #0
  40692c:	4630      	mov	r0, r6
  40692e:	f7ff fe3f 	bl	4065b0 <_sbrk_r>
  406932:	68bb      	ldr	r3, [r7, #8]
  406934:	442b      	add	r3, r5
  406936:	4298      	cmp	r0, r3
  406938:	d004      	beq.n	406944 <_malloc_trim_r+0x48>
  40693a:	4630      	mov	r0, r6
  40693c:	f7ff fb38 	bl	405fb0 <__malloc_unlock>
  406940:	2000      	movs	r0, #0
  406942:	bdf8      	pop	{r3, r4, r5, r6, r7, pc}
  406944:	4261      	negs	r1, r4
  406946:	4630      	mov	r0, r6
  406948:	f7ff fe32 	bl	4065b0 <_sbrk_r>
  40694c:	3001      	adds	r0, #1
  40694e:	d00d      	beq.n	40696c <_malloc_trim_r+0x70>
  406950:	4b10      	ldr	r3, [pc, #64]	; (406994 <_malloc_trim_r+0x98>)
  406952:	68ba      	ldr	r2, [r7, #8]
  406954:	6819      	ldr	r1, [r3, #0]
  406956:	1b2d      	subs	r5, r5, r4
  406958:	f045 0501 	orr.w	r5, r5, #1
  40695c:	4630      	mov	r0, r6
  40695e:	1b09      	subs	r1, r1, r4
  406960:	6055      	str	r5, [r2, #4]
  406962:	6019      	str	r1, [r3, #0]
  406964:	f7ff fb24 	bl	405fb0 <__malloc_unlock>
  406968:	2001      	movs	r0, #1
  40696a:	bdf8      	pop	{r3, r4, r5, r6, r7, pc}
  40696c:	2100      	movs	r1, #0
  40696e:	4630      	mov	r0, r6
  406970:	f7ff fe1e 	bl	4065b0 <_sbrk_r>
  406974:	68ba      	ldr	r2, [r7, #8]
  406976:	1a83      	subs	r3, r0, r2
  406978:	2b0f      	cmp	r3, #15
  40697a:	ddde      	ble.n	40693a <_malloc_trim_r+0x3e>
  40697c:	4c06      	ldr	r4, [pc, #24]	; (406998 <_malloc_trim_r+0x9c>)
  40697e:	4905      	ldr	r1, [pc, #20]	; (406994 <_malloc_trim_r+0x98>)
  406980:	6824      	ldr	r4, [r4, #0]
  406982:	f043 0301 	orr.w	r3, r3, #1
  406986:	1b00      	subs	r0, r0, r4
  406988:	6053      	str	r3, [r2, #4]
  40698a:	6008      	str	r0, [r1, #0]
  40698c:	e7d5      	b.n	40693a <_malloc_trim_r+0x3e>
  40698e:	bf00      	nop
  406990:	20400454 	.word	0x20400454
  406994:	20400c7c 	.word	0x20400c7c
  406998:	2040085c 	.word	0x2040085c

0040699c <_free_r>:
  40699c:	2900      	cmp	r1, #0
  40699e:	d044      	beq.n	406a2a <_free_r+0x8e>
  4069a0:	e92d 41f0 	stmdb	sp!, {r4, r5, r6, r7, r8, lr}
  4069a4:	460d      	mov	r5, r1
  4069a6:	4680      	mov	r8, r0
  4069a8:	f7ff fafc 	bl	405fa4 <__malloc_lock>
  4069ac:	f855 7c04 	ldr.w	r7, [r5, #-4]
  4069b0:	4969      	ldr	r1, [pc, #420]	; (406b58 <_free_r+0x1bc>)
  4069b2:	f027 0301 	bic.w	r3, r7, #1
  4069b6:	f1a5 0408 	sub.w	r4, r5, #8
  4069ba:	18e2      	adds	r2, r4, r3
  4069bc:	688e      	ldr	r6, [r1, #8]
  4069be:	6850      	ldr	r0, [r2, #4]
  4069c0:	42b2      	cmp	r2, r6
  4069c2:	f020 0003 	bic.w	r0, r0, #3
  4069c6:	d05e      	beq.n	406a86 <_free_r+0xea>
  4069c8:	07fe      	lsls	r6, r7, #31
  4069ca:	6050      	str	r0, [r2, #4]
  4069cc:	d40b      	bmi.n	4069e6 <_free_r+0x4a>
  4069ce:	f855 7c08 	ldr.w	r7, [r5, #-8]
  4069d2:	1be4      	subs	r4, r4, r7
  4069d4:	f101 0e08 	add.w	lr, r1, #8
  4069d8:	68a5      	ldr	r5, [r4, #8]
  4069da:	4575      	cmp	r5, lr
  4069dc:	443b      	add	r3, r7
  4069de:	d06d      	beq.n	406abc <_free_r+0x120>
  4069e0:	68e7      	ldr	r7, [r4, #12]
  4069e2:	60ef      	str	r7, [r5, #12]
  4069e4:	60bd      	str	r5, [r7, #8]
  4069e6:	1815      	adds	r5, r2, r0
  4069e8:	686d      	ldr	r5, [r5, #4]
  4069ea:	07ed      	lsls	r5, r5, #31
  4069ec:	d53e      	bpl.n	406a6c <_free_r+0xd0>
  4069ee:	f043 0201 	orr.w	r2, r3, #1
  4069f2:	6062      	str	r2, [r4, #4]
  4069f4:	50e3      	str	r3, [r4, r3]
  4069f6:	f5b3 7f00 	cmp.w	r3, #512	; 0x200
  4069fa:	d217      	bcs.n	406a2c <_free_r+0x90>
  4069fc:	08db      	lsrs	r3, r3, #3
  4069fe:	1c58      	adds	r0, r3, #1
  406a00:	109a      	asrs	r2, r3, #2
  406a02:	684d      	ldr	r5, [r1, #4]
  406a04:	f851 7030 	ldr.w	r7, [r1, r0, lsl #3]
  406a08:	60a7      	str	r7, [r4, #8]
  406a0a:	2301      	movs	r3, #1
  406a0c:	4093      	lsls	r3, r2
  406a0e:	eb01 02c0 	add.w	r2, r1, r0, lsl #3
  406a12:	432b      	orrs	r3, r5
  406a14:	3a08      	subs	r2, #8
  406a16:	60e2      	str	r2, [r4, #12]
  406a18:	604b      	str	r3, [r1, #4]
  406a1a:	f841 4030 	str.w	r4, [r1, r0, lsl #3]
  406a1e:	60fc      	str	r4, [r7, #12]
  406a20:	4640      	mov	r0, r8
  406a22:	e8bd 41f0 	ldmia.w	sp!, {r4, r5, r6, r7, r8, lr}
  406a26:	f7ff bac3 	b.w	405fb0 <__malloc_unlock>
  406a2a:	4770      	bx	lr
  406a2c:	0a5a      	lsrs	r2, r3, #9
  406a2e:	2a04      	cmp	r2, #4
  406a30:	d852      	bhi.n	406ad8 <_free_r+0x13c>
  406a32:	099a      	lsrs	r2, r3, #6
  406a34:	f102 0739 	add.w	r7, r2, #57	; 0x39
  406a38:	00ff      	lsls	r7, r7, #3
  406a3a:	f102 0538 	add.w	r5, r2, #56	; 0x38
  406a3e:	19c8      	adds	r0, r1, r7
  406a40:	59ca      	ldr	r2, [r1, r7]
  406a42:	3808      	subs	r0, #8
  406a44:	4290      	cmp	r0, r2
  406a46:	d04f      	beq.n	406ae8 <_free_r+0x14c>
  406a48:	6851      	ldr	r1, [r2, #4]
  406a4a:	f021 0103 	bic.w	r1, r1, #3
  406a4e:	428b      	cmp	r3, r1
  406a50:	d232      	bcs.n	406ab8 <_free_r+0x11c>
  406a52:	6892      	ldr	r2, [r2, #8]
  406a54:	4290      	cmp	r0, r2
  406a56:	d1f7      	bne.n	406a48 <_free_r+0xac>
  406a58:	68c3      	ldr	r3, [r0, #12]
  406a5a:	60a0      	str	r0, [r4, #8]
  406a5c:	60e3      	str	r3, [r4, #12]
  406a5e:	609c      	str	r4, [r3, #8]
  406a60:	60c4      	str	r4, [r0, #12]
  406a62:	4640      	mov	r0, r8
  406a64:	e8bd 41f0 	ldmia.w	sp!, {r4, r5, r6, r7, r8, lr}
  406a68:	f7ff baa2 	b.w	405fb0 <__malloc_unlock>
  406a6c:	6895      	ldr	r5, [r2, #8]
  406a6e:	4f3b      	ldr	r7, [pc, #236]	; (406b5c <_free_r+0x1c0>)
  406a70:	42bd      	cmp	r5, r7
  406a72:	4403      	add	r3, r0
  406a74:	d040      	beq.n	406af8 <_free_r+0x15c>
  406a76:	68d0      	ldr	r0, [r2, #12]
  406a78:	60e8      	str	r0, [r5, #12]
  406a7a:	f043 0201 	orr.w	r2, r3, #1
  406a7e:	6085      	str	r5, [r0, #8]
  406a80:	6062      	str	r2, [r4, #4]
  406a82:	50e3      	str	r3, [r4, r3]
  406a84:	e7b7      	b.n	4069f6 <_free_r+0x5a>
  406a86:	07ff      	lsls	r7, r7, #31
  406a88:	4403      	add	r3, r0
  406a8a:	d407      	bmi.n	406a9c <_free_r+0x100>
  406a8c:	f855 2c08 	ldr.w	r2, [r5, #-8]
  406a90:	1aa4      	subs	r4, r4, r2
  406a92:	4413      	add	r3, r2
  406a94:	68a0      	ldr	r0, [r4, #8]
  406a96:	68e2      	ldr	r2, [r4, #12]
  406a98:	60c2      	str	r2, [r0, #12]
  406a9a:	6090      	str	r0, [r2, #8]
  406a9c:	4a30      	ldr	r2, [pc, #192]	; (406b60 <_free_r+0x1c4>)
  406a9e:	6812      	ldr	r2, [r2, #0]
  406aa0:	f043 0001 	orr.w	r0, r3, #1
  406aa4:	4293      	cmp	r3, r2
  406aa6:	6060      	str	r0, [r4, #4]
  406aa8:	608c      	str	r4, [r1, #8]
  406aaa:	d3b9      	bcc.n	406a20 <_free_r+0x84>
  406aac:	4b2d      	ldr	r3, [pc, #180]	; (406b64 <_free_r+0x1c8>)
  406aae:	4640      	mov	r0, r8
  406ab0:	6819      	ldr	r1, [r3, #0]
  406ab2:	f7ff ff23 	bl	4068fc <_malloc_trim_r>
  406ab6:	e7b3      	b.n	406a20 <_free_r+0x84>
  406ab8:	4610      	mov	r0, r2
  406aba:	e7cd      	b.n	406a58 <_free_r+0xbc>
  406abc:	1811      	adds	r1, r2, r0
  406abe:	6849      	ldr	r1, [r1, #4]
  406ac0:	07c9      	lsls	r1, r1, #31
  406ac2:	d444      	bmi.n	406b4e <_free_r+0x1b2>
  406ac4:	6891      	ldr	r1, [r2, #8]
  406ac6:	68d2      	ldr	r2, [r2, #12]
  406ac8:	60ca      	str	r2, [r1, #12]
  406aca:	4403      	add	r3, r0
  406acc:	f043 0001 	orr.w	r0, r3, #1
  406ad0:	6091      	str	r1, [r2, #8]
  406ad2:	6060      	str	r0, [r4, #4]
  406ad4:	50e3      	str	r3, [r4, r3]
  406ad6:	e7a3      	b.n	406a20 <_free_r+0x84>
  406ad8:	2a14      	cmp	r2, #20
  406ada:	d816      	bhi.n	406b0a <_free_r+0x16e>
  406adc:	f102 075c 	add.w	r7, r2, #92	; 0x5c
  406ae0:	00ff      	lsls	r7, r7, #3
  406ae2:	f102 055b 	add.w	r5, r2, #91	; 0x5b
  406ae6:	e7aa      	b.n	406a3e <_free_r+0xa2>
  406ae8:	10aa      	asrs	r2, r5, #2
  406aea:	2301      	movs	r3, #1
  406aec:	684d      	ldr	r5, [r1, #4]
  406aee:	4093      	lsls	r3, r2
  406af0:	432b      	orrs	r3, r5
  406af2:	604b      	str	r3, [r1, #4]
  406af4:	4603      	mov	r3, r0
  406af6:	e7b0      	b.n	406a5a <_free_r+0xbe>
  406af8:	f043 0201 	orr.w	r2, r3, #1
  406afc:	614c      	str	r4, [r1, #20]
  406afe:	610c      	str	r4, [r1, #16]
  406b00:	60e5      	str	r5, [r4, #12]
  406b02:	60a5      	str	r5, [r4, #8]
  406b04:	6062      	str	r2, [r4, #4]
  406b06:	50e3      	str	r3, [r4, r3]
  406b08:	e78a      	b.n	406a20 <_free_r+0x84>
  406b0a:	2a54      	cmp	r2, #84	; 0x54
  406b0c:	d806      	bhi.n	406b1c <_free_r+0x180>
  406b0e:	0b1a      	lsrs	r2, r3, #12
  406b10:	f102 076f 	add.w	r7, r2, #111	; 0x6f
  406b14:	00ff      	lsls	r7, r7, #3
  406b16:	f102 056e 	add.w	r5, r2, #110	; 0x6e
  406b1a:	e790      	b.n	406a3e <_free_r+0xa2>
  406b1c:	f5b2 7faa 	cmp.w	r2, #340	; 0x154
  406b20:	d806      	bhi.n	406b30 <_free_r+0x194>
  406b22:	0bda      	lsrs	r2, r3, #15
  406b24:	f102 0778 	add.w	r7, r2, #120	; 0x78
  406b28:	00ff      	lsls	r7, r7, #3
  406b2a:	f102 0577 	add.w	r5, r2, #119	; 0x77
  406b2e:	e786      	b.n	406a3e <_free_r+0xa2>
  406b30:	f240 5054 	movw	r0, #1364	; 0x554
  406b34:	4282      	cmp	r2, r0
  406b36:	d806      	bhi.n	406b46 <_free_r+0x1aa>
  406b38:	0c9a      	lsrs	r2, r3, #18
  406b3a:	f102 077d 	add.w	r7, r2, #125	; 0x7d
  406b3e:	00ff      	lsls	r7, r7, #3
  406b40:	f102 057c 	add.w	r5, r2, #124	; 0x7c
  406b44:	e77b      	b.n	406a3e <_free_r+0xa2>
  406b46:	f44f 777e 	mov.w	r7, #1016	; 0x3f8
  406b4a:	257e      	movs	r5, #126	; 0x7e
  406b4c:	e777      	b.n	406a3e <_free_r+0xa2>
  406b4e:	f043 0101 	orr.w	r1, r3, #1
  406b52:	6061      	str	r1, [r4, #4]
  406b54:	6013      	str	r3, [r2, #0]
  406b56:	e763      	b.n	406a20 <_free_r+0x84>
  406b58:	20400454 	.word	0x20400454
  406b5c:	2040045c 	.word	0x2040045c
  406b60:	20400860 	.word	0x20400860
  406b64:	20400cac 	.word	0x20400cac

00406b68 <__ascii_mbtowc>:
  406b68:	b082      	sub	sp, #8
  406b6a:	b149      	cbz	r1, 406b80 <__ascii_mbtowc+0x18>
  406b6c:	b15a      	cbz	r2, 406b86 <__ascii_mbtowc+0x1e>
  406b6e:	b16b      	cbz	r3, 406b8c <__ascii_mbtowc+0x24>
  406b70:	7813      	ldrb	r3, [r2, #0]
  406b72:	600b      	str	r3, [r1, #0]
  406b74:	7812      	ldrb	r2, [r2, #0]
  406b76:	1c10      	adds	r0, r2, #0
  406b78:	bf18      	it	ne
  406b7a:	2001      	movne	r0, #1
  406b7c:	b002      	add	sp, #8
  406b7e:	4770      	bx	lr
  406b80:	a901      	add	r1, sp, #4
  406b82:	2a00      	cmp	r2, #0
  406b84:	d1f3      	bne.n	406b6e <__ascii_mbtowc+0x6>
  406b86:	4610      	mov	r0, r2
  406b88:	b002      	add	sp, #8
  406b8a:	4770      	bx	lr
  406b8c:	f06f 0001 	mvn.w	r0, #1
  406b90:	e7f4      	b.n	406b7c <__ascii_mbtowc+0x14>
  406b92:	bf00      	nop

00406b94 <memmove>:
  406b94:	4288      	cmp	r0, r1
  406b96:	b5f0      	push	{r4, r5, r6, r7, lr}
  406b98:	d90d      	bls.n	406bb6 <memmove+0x22>
  406b9a:	188b      	adds	r3, r1, r2
  406b9c:	4298      	cmp	r0, r3
  406b9e:	d20a      	bcs.n	406bb6 <memmove+0x22>
  406ba0:	1884      	adds	r4, r0, r2
  406ba2:	2a00      	cmp	r2, #0
  406ba4:	d051      	beq.n	406c4a <memmove+0xb6>
  406ba6:	4622      	mov	r2, r4
  406ba8:	f813 4d01 	ldrb.w	r4, [r3, #-1]!
  406bac:	f802 4d01 	strb.w	r4, [r2, #-1]!
  406bb0:	4299      	cmp	r1, r3
  406bb2:	d1f9      	bne.n	406ba8 <memmove+0x14>
  406bb4:	bdf0      	pop	{r4, r5, r6, r7, pc}
  406bb6:	2a0f      	cmp	r2, #15
  406bb8:	d948      	bls.n	406c4c <memmove+0xb8>
  406bba:	ea41 0300 	orr.w	r3, r1, r0
  406bbe:	079b      	lsls	r3, r3, #30
  406bc0:	d146      	bne.n	406c50 <memmove+0xbc>
  406bc2:	f100 0410 	add.w	r4, r0, #16
  406bc6:	f101 0310 	add.w	r3, r1, #16
  406bca:	4615      	mov	r5, r2
  406bcc:	f853 6c10 	ldr.w	r6, [r3, #-16]
  406bd0:	f844 6c10 	str.w	r6, [r4, #-16]
  406bd4:	f853 6c0c 	ldr.w	r6, [r3, #-12]
  406bd8:	f844 6c0c 	str.w	r6, [r4, #-12]
  406bdc:	f853 6c08 	ldr.w	r6, [r3, #-8]
  406be0:	f844 6c08 	str.w	r6, [r4, #-8]
  406be4:	3d10      	subs	r5, #16
  406be6:	f853 6c04 	ldr.w	r6, [r3, #-4]
  406bea:	f844 6c04 	str.w	r6, [r4, #-4]
  406bee:	2d0f      	cmp	r5, #15
  406bf0:	f103 0310 	add.w	r3, r3, #16
  406bf4:	f104 0410 	add.w	r4, r4, #16
  406bf8:	d8e8      	bhi.n	406bcc <memmove+0x38>
  406bfa:	f1a2 0310 	sub.w	r3, r2, #16
  406bfe:	f023 030f 	bic.w	r3, r3, #15
  406c02:	f002 0e0f 	and.w	lr, r2, #15
  406c06:	3310      	adds	r3, #16
  406c08:	f1be 0f03 	cmp.w	lr, #3
  406c0c:	4419      	add	r1, r3
  406c0e:	4403      	add	r3, r0
  406c10:	d921      	bls.n	406c56 <memmove+0xc2>
  406c12:	1f1e      	subs	r6, r3, #4
  406c14:	460d      	mov	r5, r1
  406c16:	4674      	mov	r4, lr
  406c18:	3c04      	subs	r4, #4
  406c1a:	f855 7b04 	ldr.w	r7, [r5], #4
  406c1e:	f846 7f04 	str.w	r7, [r6, #4]!
  406c22:	2c03      	cmp	r4, #3
  406c24:	d8f8      	bhi.n	406c18 <memmove+0x84>
  406c26:	f1ae 0404 	sub.w	r4, lr, #4
  406c2a:	f024 0403 	bic.w	r4, r4, #3
  406c2e:	3404      	adds	r4, #4
  406c30:	4421      	add	r1, r4
  406c32:	4423      	add	r3, r4
  406c34:	f002 0203 	and.w	r2, r2, #3
  406c38:	b162      	cbz	r2, 406c54 <memmove+0xc0>
  406c3a:	3b01      	subs	r3, #1
  406c3c:	440a      	add	r2, r1
  406c3e:	f811 4b01 	ldrb.w	r4, [r1], #1
  406c42:	f803 4f01 	strb.w	r4, [r3, #1]!
  406c46:	428a      	cmp	r2, r1
  406c48:	d1f9      	bne.n	406c3e <memmove+0xaa>
  406c4a:	bdf0      	pop	{r4, r5, r6, r7, pc}
  406c4c:	4603      	mov	r3, r0
  406c4e:	e7f3      	b.n	406c38 <memmove+0xa4>
  406c50:	4603      	mov	r3, r0
  406c52:	e7f2      	b.n	406c3a <memmove+0xa6>
  406c54:	bdf0      	pop	{r4, r5, r6, r7, pc}
  406c56:	4672      	mov	r2, lr
  406c58:	e7ee      	b.n	406c38 <memmove+0xa4>
  406c5a:	bf00      	nop

00406c5c <_realloc_r>:
  406c5c:	2900      	cmp	r1, #0
  406c5e:	f000 8095 	beq.w	406d8c <_realloc_r+0x130>
  406c62:	e92d 4ff0 	stmdb	sp!, {r4, r5, r6, r7, r8, r9, sl, fp, lr}
  406c66:	460d      	mov	r5, r1
  406c68:	4616      	mov	r6, r2
  406c6a:	b083      	sub	sp, #12
  406c6c:	4680      	mov	r8, r0
  406c6e:	f106 070b 	add.w	r7, r6, #11
  406c72:	f7ff f997 	bl	405fa4 <__malloc_lock>
  406c76:	f855 ec04 	ldr.w	lr, [r5, #-4]
  406c7a:	2f16      	cmp	r7, #22
  406c7c:	f02e 0403 	bic.w	r4, lr, #3
  406c80:	f1a5 0908 	sub.w	r9, r5, #8
  406c84:	d83c      	bhi.n	406d00 <_realloc_r+0xa4>
  406c86:	2210      	movs	r2, #16
  406c88:	4617      	mov	r7, r2
  406c8a:	42be      	cmp	r6, r7
  406c8c:	d83d      	bhi.n	406d0a <_realloc_r+0xae>
  406c8e:	4294      	cmp	r4, r2
  406c90:	da43      	bge.n	406d1a <_realloc_r+0xbe>
  406c92:	4bc4      	ldr	r3, [pc, #784]	; (406fa4 <_realloc_r+0x348>)
  406c94:	6899      	ldr	r1, [r3, #8]
  406c96:	eb09 0004 	add.w	r0, r9, r4
  406c9a:	4288      	cmp	r0, r1
  406c9c:	f000 80b4 	beq.w	406e08 <_realloc_r+0x1ac>
  406ca0:	6843      	ldr	r3, [r0, #4]
  406ca2:	f023 0101 	bic.w	r1, r3, #1
  406ca6:	4401      	add	r1, r0
  406ca8:	6849      	ldr	r1, [r1, #4]
  406caa:	07c9      	lsls	r1, r1, #31
  406cac:	d54c      	bpl.n	406d48 <_realloc_r+0xec>
  406cae:	f01e 0f01 	tst.w	lr, #1
  406cb2:	f000 809b 	beq.w	406dec <_realloc_r+0x190>
  406cb6:	4631      	mov	r1, r6
  406cb8:	4640      	mov	r0, r8
  406cba:	f7fe fdd3 	bl	405864 <_malloc_r>
  406cbe:	4606      	mov	r6, r0
  406cc0:	2800      	cmp	r0, #0
  406cc2:	d03a      	beq.n	406d3a <_realloc_r+0xde>
  406cc4:	f855 3c04 	ldr.w	r3, [r5, #-4]
  406cc8:	f023 0301 	bic.w	r3, r3, #1
  406ccc:	444b      	add	r3, r9
  406cce:	f1a0 0208 	sub.w	r2, r0, #8
  406cd2:	429a      	cmp	r2, r3
  406cd4:	f000 8121 	beq.w	406f1a <_realloc_r+0x2be>
  406cd8:	1f22      	subs	r2, r4, #4
  406cda:	2a24      	cmp	r2, #36	; 0x24
  406cdc:	f200 8107 	bhi.w	406eee <_realloc_r+0x292>
  406ce0:	2a13      	cmp	r2, #19
  406ce2:	f200 80db 	bhi.w	406e9c <_realloc_r+0x240>
  406ce6:	4603      	mov	r3, r0
  406ce8:	462a      	mov	r2, r5
  406cea:	6811      	ldr	r1, [r2, #0]
  406cec:	6019      	str	r1, [r3, #0]
  406cee:	6851      	ldr	r1, [r2, #4]
  406cf0:	6059      	str	r1, [r3, #4]
  406cf2:	6892      	ldr	r2, [r2, #8]
  406cf4:	609a      	str	r2, [r3, #8]
  406cf6:	4629      	mov	r1, r5
  406cf8:	4640      	mov	r0, r8
  406cfa:	f7ff fe4f 	bl	40699c <_free_r>
  406cfe:	e01c      	b.n	406d3a <_realloc_r+0xde>
  406d00:	f027 0707 	bic.w	r7, r7, #7
  406d04:	2f00      	cmp	r7, #0
  406d06:	463a      	mov	r2, r7
  406d08:	dabf      	bge.n	406c8a <_realloc_r+0x2e>
  406d0a:	2600      	movs	r6, #0
  406d0c:	230c      	movs	r3, #12
  406d0e:	4630      	mov	r0, r6
  406d10:	f8c8 3000 	str.w	r3, [r8]
  406d14:	b003      	add	sp, #12
  406d16:	e8bd 8ff0 	ldmia.w	sp!, {r4, r5, r6, r7, r8, r9, sl, fp, pc}
  406d1a:	462e      	mov	r6, r5
  406d1c:	1be3      	subs	r3, r4, r7
  406d1e:	2b0f      	cmp	r3, #15
  406d20:	d81e      	bhi.n	406d60 <_realloc_r+0x104>
  406d22:	f8d9 3004 	ldr.w	r3, [r9, #4]
  406d26:	f003 0301 	and.w	r3, r3, #1
  406d2a:	4323      	orrs	r3, r4
  406d2c:	444c      	add	r4, r9
  406d2e:	f8c9 3004 	str.w	r3, [r9, #4]
  406d32:	6863      	ldr	r3, [r4, #4]
  406d34:	f043 0301 	orr.w	r3, r3, #1
  406d38:	6063      	str	r3, [r4, #4]
  406d3a:	4640      	mov	r0, r8
  406d3c:	f7ff f938 	bl	405fb0 <__malloc_unlock>
  406d40:	4630      	mov	r0, r6
  406d42:	b003      	add	sp, #12
  406d44:	e8bd 8ff0 	ldmia.w	sp!, {r4, r5, r6, r7, r8, r9, sl, fp, pc}
  406d48:	f023 0303 	bic.w	r3, r3, #3
  406d4c:	18e1      	adds	r1, r4, r3
  406d4e:	4291      	cmp	r1, r2
  406d50:	db1f      	blt.n	406d92 <_realloc_r+0x136>
  406d52:	68c3      	ldr	r3, [r0, #12]
  406d54:	6882      	ldr	r2, [r0, #8]
  406d56:	462e      	mov	r6, r5
  406d58:	60d3      	str	r3, [r2, #12]
  406d5a:	460c      	mov	r4, r1
  406d5c:	609a      	str	r2, [r3, #8]
  406d5e:	e7dd      	b.n	406d1c <_realloc_r+0xc0>
  406d60:	f8d9 2004 	ldr.w	r2, [r9, #4]
  406d64:	eb09 0107 	add.w	r1, r9, r7
  406d68:	f002 0201 	and.w	r2, r2, #1
  406d6c:	444c      	add	r4, r9
  406d6e:	f043 0301 	orr.w	r3, r3, #1
  406d72:	4317      	orrs	r7, r2
  406d74:	f8c9 7004 	str.w	r7, [r9, #4]
  406d78:	604b      	str	r3, [r1, #4]
  406d7a:	6863      	ldr	r3, [r4, #4]
  406d7c:	f043 0301 	orr.w	r3, r3, #1
  406d80:	3108      	adds	r1, #8
  406d82:	6063      	str	r3, [r4, #4]
  406d84:	4640      	mov	r0, r8
  406d86:	f7ff fe09 	bl	40699c <_free_r>
  406d8a:	e7d6      	b.n	406d3a <_realloc_r+0xde>
  406d8c:	4611      	mov	r1, r2
  406d8e:	f7fe bd69 	b.w	405864 <_malloc_r>
  406d92:	f01e 0f01 	tst.w	lr, #1
  406d96:	d18e      	bne.n	406cb6 <_realloc_r+0x5a>
  406d98:	f855 1c08 	ldr.w	r1, [r5, #-8]
  406d9c:	eba9 0a01 	sub.w	sl, r9, r1
  406da0:	f8da 1004 	ldr.w	r1, [sl, #4]
  406da4:	f021 0103 	bic.w	r1, r1, #3
  406da8:	440b      	add	r3, r1
  406daa:	4423      	add	r3, r4
  406dac:	4293      	cmp	r3, r2
  406dae:	db25      	blt.n	406dfc <_realloc_r+0x1a0>
  406db0:	68c2      	ldr	r2, [r0, #12]
  406db2:	6881      	ldr	r1, [r0, #8]
  406db4:	4656      	mov	r6, sl
  406db6:	60ca      	str	r2, [r1, #12]
  406db8:	6091      	str	r1, [r2, #8]
  406dba:	f8da 100c 	ldr.w	r1, [sl, #12]
  406dbe:	f856 0f08 	ldr.w	r0, [r6, #8]!
  406dc2:	1f22      	subs	r2, r4, #4
  406dc4:	2a24      	cmp	r2, #36	; 0x24
  406dc6:	60c1      	str	r1, [r0, #12]
  406dc8:	6088      	str	r0, [r1, #8]
  406dca:	f200 8094 	bhi.w	406ef6 <_realloc_r+0x29a>
  406dce:	2a13      	cmp	r2, #19
  406dd0:	d96f      	bls.n	406eb2 <_realloc_r+0x256>
  406dd2:	6829      	ldr	r1, [r5, #0]
  406dd4:	f8ca 1008 	str.w	r1, [sl, #8]
  406dd8:	6869      	ldr	r1, [r5, #4]
  406dda:	f8ca 100c 	str.w	r1, [sl, #12]
  406dde:	2a1b      	cmp	r2, #27
  406de0:	f200 80a2 	bhi.w	406f28 <_realloc_r+0x2cc>
  406de4:	3508      	adds	r5, #8
  406de6:	f10a 0210 	add.w	r2, sl, #16
  406dea:	e063      	b.n	406eb4 <_realloc_r+0x258>
  406dec:	f855 3c08 	ldr.w	r3, [r5, #-8]
  406df0:	eba9 0a03 	sub.w	sl, r9, r3
  406df4:	f8da 1004 	ldr.w	r1, [sl, #4]
  406df8:	f021 0103 	bic.w	r1, r1, #3
  406dfc:	1863      	adds	r3, r4, r1
  406dfe:	4293      	cmp	r3, r2
  406e00:	f6ff af59 	blt.w	406cb6 <_realloc_r+0x5a>
  406e04:	4656      	mov	r6, sl
  406e06:	e7d8      	b.n	406dba <_realloc_r+0x15e>
  406e08:	6841      	ldr	r1, [r0, #4]
  406e0a:	f021 0b03 	bic.w	fp, r1, #3
  406e0e:	44a3      	add	fp, r4
  406e10:	f107 0010 	add.w	r0, r7, #16
  406e14:	4583      	cmp	fp, r0
  406e16:	da56      	bge.n	406ec6 <_realloc_r+0x26a>
  406e18:	f01e 0f01 	tst.w	lr, #1
  406e1c:	f47f af4b 	bne.w	406cb6 <_realloc_r+0x5a>
  406e20:	f855 1c08 	ldr.w	r1, [r5, #-8]
  406e24:	eba9 0a01 	sub.w	sl, r9, r1
  406e28:	f8da 1004 	ldr.w	r1, [sl, #4]
  406e2c:	f021 0103 	bic.w	r1, r1, #3
  406e30:	448b      	add	fp, r1
  406e32:	4558      	cmp	r0, fp
  406e34:	dce2      	bgt.n	406dfc <_realloc_r+0x1a0>
  406e36:	4656      	mov	r6, sl
  406e38:	f8da 100c 	ldr.w	r1, [sl, #12]
  406e3c:	f856 0f08 	ldr.w	r0, [r6, #8]!
  406e40:	1f22      	subs	r2, r4, #4
  406e42:	2a24      	cmp	r2, #36	; 0x24
  406e44:	60c1      	str	r1, [r0, #12]
  406e46:	6088      	str	r0, [r1, #8]
  406e48:	f200 808f 	bhi.w	406f6a <_realloc_r+0x30e>
  406e4c:	2a13      	cmp	r2, #19
  406e4e:	f240 808a 	bls.w	406f66 <_realloc_r+0x30a>
  406e52:	6829      	ldr	r1, [r5, #0]
  406e54:	f8ca 1008 	str.w	r1, [sl, #8]
  406e58:	6869      	ldr	r1, [r5, #4]
  406e5a:	f8ca 100c 	str.w	r1, [sl, #12]
  406e5e:	2a1b      	cmp	r2, #27
  406e60:	f200 808a 	bhi.w	406f78 <_realloc_r+0x31c>
  406e64:	3508      	adds	r5, #8
  406e66:	f10a 0210 	add.w	r2, sl, #16
  406e6a:	6829      	ldr	r1, [r5, #0]
  406e6c:	6011      	str	r1, [r2, #0]
  406e6e:	6869      	ldr	r1, [r5, #4]
  406e70:	6051      	str	r1, [r2, #4]
  406e72:	68a9      	ldr	r1, [r5, #8]
  406e74:	6091      	str	r1, [r2, #8]
  406e76:	eb0a 0107 	add.w	r1, sl, r7
  406e7a:	ebab 0207 	sub.w	r2, fp, r7
  406e7e:	f042 0201 	orr.w	r2, r2, #1
  406e82:	6099      	str	r1, [r3, #8]
  406e84:	604a      	str	r2, [r1, #4]
  406e86:	f8da 3004 	ldr.w	r3, [sl, #4]
  406e8a:	f003 0301 	and.w	r3, r3, #1
  406e8e:	431f      	orrs	r7, r3
  406e90:	4640      	mov	r0, r8
  406e92:	f8ca 7004 	str.w	r7, [sl, #4]
  406e96:	f7ff f88b 	bl	405fb0 <__malloc_unlock>
  406e9a:	e751      	b.n	406d40 <_realloc_r+0xe4>
  406e9c:	682b      	ldr	r3, [r5, #0]
  406e9e:	6003      	str	r3, [r0, #0]
  406ea0:	686b      	ldr	r3, [r5, #4]
  406ea2:	6043      	str	r3, [r0, #4]
  406ea4:	2a1b      	cmp	r2, #27
  406ea6:	d82d      	bhi.n	406f04 <_realloc_r+0x2a8>
  406ea8:	f100 0308 	add.w	r3, r0, #8
  406eac:	f105 0208 	add.w	r2, r5, #8
  406eb0:	e71b      	b.n	406cea <_realloc_r+0x8e>
  406eb2:	4632      	mov	r2, r6
  406eb4:	6829      	ldr	r1, [r5, #0]
  406eb6:	6011      	str	r1, [r2, #0]
  406eb8:	6869      	ldr	r1, [r5, #4]
  406eba:	6051      	str	r1, [r2, #4]
  406ebc:	68a9      	ldr	r1, [r5, #8]
  406ebe:	6091      	str	r1, [r2, #8]
  406ec0:	461c      	mov	r4, r3
  406ec2:	46d1      	mov	r9, sl
  406ec4:	e72a      	b.n	406d1c <_realloc_r+0xc0>
  406ec6:	eb09 0107 	add.w	r1, r9, r7
  406eca:	ebab 0b07 	sub.w	fp, fp, r7
  406ece:	f04b 0201 	orr.w	r2, fp, #1
  406ed2:	6099      	str	r1, [r3, #8]
  406ed4:	604a      	str	r2, [r1, #4]
  406ed6:	f855 3c04 	ldr.w	r3, [r5, #-4]
  406eda:	f003 0301 	and.w	r3, r3, #1
  406ede:	431f      	orrs	r7, r3
  406ee0:	4640      	mov	r0, r8
  406ee2:	f845 7c04 	str.w	r7, [r5, #-4]
  406ee6:	f7ff f863 	bl	405fb0 <__malloc_unlock>
  406eea:	462e      	mov	r6, r5
  406eec:	e728      	b.n	406d40 <_realloc_r+0xe4>
  406eee:	4629      	mov	r1, r5
  406ef0:	f7ff fe50 	bl	406b94 <memmove>
  406ef4:	e6ff      	b.n	406cf6 <_realloc_r+0x9a>
  406ef6:	4629      	mov	r1, r5
  406ef8:	4630      	mov	r0, r6
  406efa:	461c      	mov	r4, r3
  406efc:	46d1      	mov	r9, sl
  406efe:	f7ff fe49 	bl	406b94 <memmove>
  406f02:	e70b      	b.n	406d1c <_realloc_r+0xc0>
  406f04:	68ab      	ldr	r3, [r5, #8]
  406f06:	6083      	str	r3, [r0, #8]
  406f08:	68eb      	ldr	r3, [r5, #12]
  406f0a:	60c3      	str	r3, [r0, #12]
  406f0c:	2a24      	cmp	r2, #36	; 0x24
  406f0e:	d017      	beq.n	406f40 <_realloc_r+0x2e4>
  406f10:	f100 0310 	add.w	r3, r0, #16
  406f14:	f105 0210 	add.w	r2, r5, #16
  406f18:	e6e7      	b.n	406cea <_realloc_r+0x8e>
  406f1a:	f850 3c04 	ldr.w	r3, [r0, #-4]
  406f1e:	f023 0303 	bic.w	r3, r3, #3
  406f22:	441c      	add	r4, r3
  406f24:	462e      	mov	r6, r5
  406f26:	e6f9      	b.n	406d1c <_realloc_r+0xc0>
  406f28:	68a9      	ldr	r1, [r5, #8]
  406f2a:	f8ca 1010 	str.w	r1, [sl, #16]
  406f2e:	68e9      	ldr	r1, [r5, #12]
  406f30:	f8ca 1014 	str.w	r1, [sl, #20]
  406f34:	2a24      	cmp	r2, #36	; 0x24
  406f36:	d00c      	beq.n	406f52 <_realloc_r+0x2f6>
  406f38:	3510      	adds	r5, #16
  406f3a:	f10a 0218 	add.w	r2, sl, #24
  406f3e:	e7b9      	b.n	406eb4 <_realloc_r+0x258>
  406f40:	692b      	ldr	r3, [r5, #16]
  406f42:	6103      	str	r3, [r0, #16]
  406f44:	696b      	ldr	r3, [r5, #20]
  406f46:	6143      	str	r3, [r0, #20]
  406f48:	f105 0218 	add.w	r2, r5, #24
  406f4c:	f100 0318 	add.w	r3, r0, #24
  406f50:	e6cb      	b.n	406cea <_realloc_r+0x8e>
  406f52:	692a      	ldr	r2, [r5, #16]
  406f54:	f8ca 2018 	str.w	r2, [sl, #24]
  406f58:	696a      	ldr	r2, [r5, #20]
  406f5a:	f8ca 201c 	str.w	r2, [sl, #28]
  406f5e:	3518      	adds	r5, #24
  406f60:	f10a 0220 	add.w	r2, sl, #32
  406f64:	e7a6      	b.n	406eb4 <_realloc_r+0x258>
  406f66:	4632      	mov	r2, r6
  406f68:	e77f      	b.n	406e6a <_realloc_r+0x20e>
  406f6a:	4629      	mov	r1, r5
  406f6c:	4630      	mov	r0, r6
  406f6e:	9301      	str	r3, [sp, #4]
  406f70:	f7ff fe10 	bl	406b94 <memmove>
  406f74:	9b01      	ldr	r3, [sp, #4]
  406f76:	e77e      	b.n	406e76 <_realloc_r+0x21a>
  406f78:	68a9      	ldr	r1, [r5, #8]
  406f7a:	f8ca 1010 	str.w	r1, [sl, #16]
  406f7e:	68e9      	ldr	r1, [r5, #12]
  406f80:	f8ca 1014 	str.w	r1, [sl, #20]
  406f84:	2a24      	cmp	r2, #36	; 0x24
  406f86:	d003      	beq.n	406f90 <_realloc_r+0x334>
  406f88:	3510      	adds	r5, #16
  406f8a:	f10a 0218 	add.w	r2, sl, #24
  406f8e:	e76c      	b.n	406e6a <_realloc_r+0x20e>
  406f90:	692a      	ldr	r2, [r5, #16]
  406f92:	f8ca 2018 	str.w	r2, [sl, #24]
  406f96:	696a      	ldr	r2, [r5, #20]
  406f98:	f8ca 201c 	str.w	r2, [sl, #28]
  406f9c:	3518      	adds	r5, #24
  406f9e:	f10a 0220 	add.w	r2, sl, #32
  406fa2:	e762      	b.n	406e6a <_realloc_r+0x20e>
  406fa4:	20400454 	.word	0x20400454

00406fa8 <__ascii_wctomb>:
  406fa8:	b121      	cbz	r1, 406fb4 <__ascii_wctomb+0xc>
  406faa:	2aff      	cmp	r2, #255	; 0xff
  406fac:	d804      	bhi.n	406fb8 <__ascii_wctomb+0x10>
  406fae:	700a      	strb	r2, [r1, #0]
  406fb0:	2001      	movs	r0, #1
  406fb2:	4770      	bx	lr
  406fb4:	4608      	mov	r0, r1
  406fb6:	4770      	bx	lr
  406fb8:	238a      	movs	r3, #138	; 0x8a
  406fba:	6003      	str	r3, [r0, #0]
  406fbc:	f04f 30ff 	mov.w	r0, #4294967295
  406fc0:	4770      	bx	lr
  406fc2:	bf00      	nop

00406fc4 <__aeabi_drsub>:
  406fc4:	f081 4100 	eor.w	r1, r1, #2147483648	; 0x80000000
  406fc8:	e002      	b.n	406fd0 <__adddf3>
  406fca:	bf00      	nop

00406fcc <__aeabi_dsub>:
  406fcc:	f083 4300 	eor.w	r3, r3, #2147483648	; 0x80000000

00406fd0 <__adddf3>:
  406fd0:	b530      	push	{r4, r5, lr}
  406fd2:	ea4f 0441 	mov.w	r4, r1, lsl #1
  406fd6:	ea4f 0543 	mov.w	r5, r3, lsl #1
  406fda:	ea94 0f05 	teq	r4, r5
  406fde:	bf08      	it	eq
  406fe0:	ea90 0f02 	teqeq	r0, r2
  406fe4:	bf1f      	itttt	ne
  406fe6:	ea54 0c00 	orrsne.w	ip, r4, r0
  406fea:	ea55 0c02 	orrsne.w	ip, r5, r2
  406fee:	ea7f 5c64 	mvnsne.w	ip, r4, asr #21
  406ff2:	ea7f 5c65 	mvnsne.w	ip, r5, asr #21
  406ff6:	f000 80e2 	beq.w	4071be <__adddf3+0x1ee>
  406ffa:	ea4f 5454 	mov.w	r4, r4, lsr #21
  406ffe:	ebd4 5555 	rsbs	r5, r4, r5, lsr #21
  407002:	bfb8      	it	lt
  407004:	426d      	neglt	r5, r5
  407006:	dd0c      	ble.n	407022 <__adddf3+0x52>
  407008:	442c      	add	r4, r5
  40700a:	ea80 0202 	eor.w	r2, r0, r2
  40700e:	ea81 0303 	eor.w	r3, r1, r3
  407012:	ea82 0000 	eor.w	r0, r2, r0
  407016:	ea83 0101 	eor.w	r1, r3, r1
  40701a:	ea80 0202 	eor.w	r2, r0, r2
  40701e:	ea81 0303 	eor.w	r3, r1, r3
  407022:	2d36      	cmp	r5, #54	; 0x36
  407024:	bf88      	it	hi
  407026:	bd30      	pophi	{r4, r5, pc}
  407028:	f011 4f00 	tst.w	r1, #2147483648	; 0x80000000
  40702c:	ea4f 3101 	mov.w	r1, r1, lsl #12
  407030:	f44f 1c80 	mov.w	ip, #1048576	; 0x100000
  407034:	ea4c 3111 	orr.w	r1, ip, r1, lsr #12
  407038:	d002      	beq.n	407040 <__adddf3+0x70>
  40703a:	4240      	negs	r0, r0
  40703c:	eb61 0141 	sbc.w	r1, r1, r1, lsl #1
  407040:	f013 4f00 	tst.w	r3, #2147483648	; 0x80000000
  407044:	ea4f 3303 	mov.w	r3, r3, lsl #12
  407048:	ea4c 3313 	orr.w	r3, ip, r3, lsr #12
  40704c:	d002      	beq.n	407054 <__adddf3+0x84>
  40704e:	4252      	negs	r2, r2
  407050:	eb63 0343 	sbc.w	r3, r3, r3, lsl #1
  407054:	ea94 0f05 	teq	r4, r5
  407058:	f000 80a7 	beq.w	4071aa <__adddf3+0x1da>
  40705c:	f1a4 0401 	sub.w	r4, r4, #1
  407060:	f1d5 0e20 	rsbs	lr, r5, #32
  407064:	db0d      	blt.n	407082 <__adddf3+0xb2>
  407066:	fa02 fc0e 	lsl.w	ip, r2, lr
  40706a:	fa22 f205 	lsr.w	r2, r2, r5
  40706e:	1880      	adds	r0, r0, r2
  407070:	f141 0100 	adc.w	r1, r1, #0
  407074:	fa03 f20e 	lsl.w	r2, r3, lr
  407078:	1880      	adds	r0, r0, r2
  40707a:	fa43 f305 	asr.w	r3, r3, r5
  40707e:	4159      	adcs	r1, r3
  407080:	e00e      	b.n	4070a0 <__adddf3+0xd0>
  407082:	f1a5 0520 	sub.w	r5, r5, #32
  407086:	f10e 0e20 	add.w	lr, lr, #32
  40708a:	2a01      	cmp	r2, #1
  40708c:	fa03 fc0e 	lsl.w	ip, r3, lr
  407090:	bf28      	it	cs
  407092:	f04c 0c02 	orrcs.w	ip, ip, #2
  407096:	fa43 f305 	asr.w	r3, r3, r5
  40709a:	18c0      	adds	r0, r0, r3
  40709c:	eb51 71e3 	adcs.w	r1, r1, r3, asr #31
  4070a0:	f001 4500 	and.w	r5, r1, #2147483648	; 0x80000000
  4070a4:	d507      	bpl.n	4070b6 <__adddf3+0xe6>
  4070a6:	f04f 0e00 	mov.w	lr, #0
  4070aa:	f1dc 0c00 	rsbs	ip, ip, #0
  4070ae:	eb7e 0000 	sbcs.w	r0, lr, r0
  4070b2:	eb6e 0101 	sbc.w	r1, lr, r1
  4070b6:	f5b1 1f80 	cmp.w	r1, #1048576	; 0x100000
  4070ba:	d31b      	bcc.n	4070f4 <__adddf3+0x124>
  4070bc:	f5b1 1f00 	cmp.w	r1, #2097152	; 0x200000
  4070c0:	d30c      	bcc.n	4070dc <__adddf3+0x10c>
  4070c2:	0849      	lsrs	r1, r1, #1
  4070c4:	ea5f 0030 	movs.w	r0, r0, rrx
  4070c8:	ea4f 0c3c 	mov.w	ip, ip, rrx
  4070cc:	f104 0401 	add.w	r4, r4, #1
  4070d0:	ea4f 5244 	mov.w	r2, r4, lsl #21
  4070d4:	f512 0f80 	cmn.w	r2, #4194304	; 0x400000
  4070d8:	f080 809a 	bcs.w	407210 <__adddf3+0x240>
  4070dc:	f1bc 4f00 	cmp.w	ip, #2147483648	; 0x80000000
  4070e0:	bf08      	it	eq
  4070e2:	ea5f 0c50 	movseq.w	ip, r0, lsr #1
  4070e6:	f150 0000 	adcs.w	r0, r0, #0
  4070ea:	eb41 5104 	adc.w	r1, r1, r4, lsl #20
  4070ee:	ea41 0105 	orr.w	r1, r1, r5
  4070f2:	bd30      	pop	{r4, r5, pc}
  4070f4:	ea5f 0c4c 	movs.w	ip, ip, lsl #1
  4070f8:	4140      	adcs	r0, r0
  4070fa:	eb41 0101 	adc.w	r1, r1, r1
  4070fe:	f411 1f80 	tst.w	r1, #1048576	; 0x100000
  407102:	f1a4 0401 	sub.w	r4, r4, #1
  407106:	d1e9      	bne.n	4070dc <__adddf3+0x10c>
  407108:	f091 0f00 	teq	r1, #0
  40710c:	bf04      	itt	eq
  40710e:	4601      	moveq	r1, r0
  407110:	2000      	moveq	r0, #0
  407112:	fab1 f381 	clz	r3, r1
  407116:	bf08      	it	eq
  407118:	3320      	addeq	r3, #32
  40711a:	f1a3 030b 	sub.w	r3, r3, #11
  40711e:	f1b3 0220 	subs.w	r2, r3, #32
  407122:	da0c      	bge.n	40713e <__adddf3+0x16e>
  407124:	320c      	adds	r2, #12
  407126:	dd08      	ble.n	40713a <__adddf3+0x16a>
  407128:	f102 0c14 	add.w	ip, r2, #20
  40712c:	f1c2 020c 	rsb	r2, r2, #12
  407130:	fa01 f00c 	lsl.w	r0, r1, ip
  407134:	fa21 f102 	lsr.w	r1, r1, r2
  407138:	e00c      	b.n	407154 <__adddf3+0x184>
  40713a:	f102 0214 	add.w	r2, r2, #20
  40713e:	bfd8      	it	le
  407140:	f1c2 0c20 	rsble	ip, r2, #32
  407144:	fa01 f102 	lsl.w	r1, r1, r2
  407148:	fa20 fc0c 	lsr.w	ip, r0, ip
  40714c:	bfdc      	itt	le
  40714e:	ea41 010c 	orrle.w	r1, r1, ip
  407152:	4090      	lslle	r0, r2
  407154:	1ae4      	subs	r4, r4, r3
  407156:	bfa2      	ittt	ge
  407158:	eb01 5104 	addge.w	r1, r1, r4, lsl #20
  40715c:	4329      	orrge	r1, r5
  40715e:	bd30      	popge	{r4, r5, pc}
  407160:	ea6f 0404 	mvn.w	r4, r4
  407164:	3c1f      	subs	r4, #31
  407166:	da1c      	bge.n	4071a2 <__adddf3+0x1d2>
  407168:	340c      	adds	r4, #12
  40716a:	dc0e      	bgt.n	40718a <__adddf3+0x1ba>
  40716c:	f104 0414 	add.w	r4, r4, #20
  407170:	f1c4 0220 	rsb	r2, r4, #32
  407174:	fa20 f004 	lsr.w	r0, r0, r4
  407178:	fa01 f302 	lsl.w	r3, r1, r2
  40717c:	ea40 0003 	orr.w	r0, r0, r3
  407180:	fa21 f304 	lsr.w	r3, r1, r4
  407184:	ea45 0103 	orr.w	r1, r5, r3
  407188:	bd30      	pop	{r4, r5, pc}
  40718a:	f1c4 040c 	rsb	r4, r4, #12
  40718e:	f1c4 0220 	rsb	r2, r4, #32
  407192:	fa20 f002 	lsr.w	r0, r0, r2
  407196:	fa01 f304 	lsl.w	r3, r1, r4
  40719a:	ea40 0003 	orr.w	r0, r0, r3
  40719e:	4629      	mov	r1, r5
  4071a0:	bd30      	pop	{r4, r5, pc}
  4071a2:	fa21 f004 	lsr.w	r0, r1, r4
  4071a6:	4629      	mov	r1, r5
  4071a8:	bd30      	pop	{r4, r5, pc}
  4071aa:	f094 0f00 	teq	r4, #0
  4071ae:	f483 1380 	eor.w	r3, r3, #1048576	; 0x100000
  4071b2:	bf06      	itte	eq
  4071b4:	f481 1180 	eoreq.w	r1, r1, #1048576	; 0x100000
  4071b8:	3401      	addeq	r4, #1
  4071ba:	3d01      	subne	r5, #1
  4071bc:	e74e      	b.n	40705c <__adddf3+0x8c>
  4071be:	ea7f 5c64 	mvns.w	ip, r4, asr #21
  4071c2:	bf18      	it	ne
  4071c4:	ea7f 5c65 	mvnsne.w	ip, r5, asr #21
  4071c8:	d029      	beq.n	40721e <__adddf3+0x24e>
  4071ca:	ea94 0f05 	teq	r4, r5
  4071ce:	bf08      	it	eq
  4071d0:	ea90 0f02 	teqeq	r0, r2
  4071d4:	d005      	beq.n	4071e2 <__adddf3+0x212>
  4071d6:	ea54 0c00 	orrs.w	ip, r4, r0
  4071da:	bf04      	itt	eq
  4071dc:	4619      	moveq	r1, r3
  4071de:	4610      	moveq	r0, r2
  4071e0:	bd30      	pop	{r4, r5, pc}
  4071e2:	ea91 0f03 	teq	r1, r3
  4071e6:	bf1e      	ittt	ne
  4071e8:	2100      	movne	r1, #0
  4071ea:	2000      	movne	r0, #0
  4071ec:	bd30      	popne	{r4, r5, pc}
  4071ee:	ea5f 5c54 	movs.w	ip, r4, lsr #21
  4071f2:	d105      	bne.n	407200 <__adddf3+0x230>
  4071f4:	0040      	lsls	r0, r0, #1
  4071f6:	4149      	adcs	r1, r1
  4071f8:	bf28      	it	cs
  4071fa:	f041 4100 	orrcs.w	r1, r1, #2147483648	; 0x80000000
  4071fe:	bd30      	pop	{r4, r5, pc}
  407200:	f514 0480 	adds.w	r4, r4, #4194304	; 0x400000
  407204:	bf3c      	itt	cc
  407206:	f501 1180 	addcc.w	r1, r1, #1048576	; 0x100000
  40720a:	bd30      	popcc	{r4, r5, pc}
  40720c:	f001 4500 	and.w	r5, r1, #2147483648	; 0x80000000
  407210:	f045 41fe 	orr.w	r1, r5, #2130706432	; 0x7f000000
  407214:	f441 0170 	orr.w	r1, r1, #15728640	; 0xf00000
  407218:	f04f 0000 	mov.w	r0, #0
  40721c:	bd30      	pop	{r4, r5, pc}
  40721e:	ea7f 5c64 	mvns.w	ip, r4, asr #21
  407222:	bf1a      	itte	ne
  407224:	4619      	movne	r1, r3
  407226:	4610      	movne	r0, r2
  407228:	ea7f 5c65 	mvnseq.w	ip, r5, asr #21
  40722c:	bf1c      	itt	ne
  40722e:	460b      	movne	r3, r1
  407230:	4602      	movne	r2, r0
  407232:	ea50 3401 	orrs.w	r4, r0, r1, lsl #12
  407236:	bf06      	itte	eq
  407238:	ea52 3503 	orrseq.w	r5, r2, r3, lsl #12
  40723c:	ea91 0f03 	teqeq	r1, r3
  407240:	f441 2100 	orrne.w	r1, r1, #524288	; 0x80000
  407244:	bd30      	pop	{r4, r5, pc}
  407246:	bf00      	nop

00407248 <__aeabi_ui2d>:
  407248:	f090 0f00 	teq	r0, #0
  40724c:	bf04      	itt	eq
  40724e:	2100      	moveq	r1, #0
  407250:	4770      	bxeq	lr
  407252:	b530      	push	{r4, r5, lr}
  407254:	f44f 6480 	mov.w	r4, #1024	; 0x400
  407258:	f104 0432 	add.w	r4, r4, #50	; 0x32
  40725c:	f04f 0500 	mov.w	r5, #0
  407260:	f04f 0100 	mov.w	r1, #0
  407264:	e750      	b.n	407108 <__adddf3+0x138>
  407266:	bf00      	nop

00407268 <__aeabi_i2d>:
  407268:	f090 0f00 	teq	r0, #0
  40726c:	bf04      	itt	eq
  40726e:	2100      	moveq	r1, #0
  407270:	4770      	bxeq	lr
  407272:	b530      	push	{r4, r5, lr}
  407274:	f44f 6480 	mov.w	r4, #1024	; 0x400
  407278:	f104 0432 	add.w	r4, r4, #50	; 0x32
  40727c:	f010 4500 	ands.w	r5, r0, #2147483648	; 0x80000000
  407280:	bf48      	it	mi
  407282:	4240      	negmi	r0, r0
  407284:	f04f 0100 	mov.w	r1, #0
  407288:	e73e      	b.n	407108 <__adddf3+0x138>
  40728a:	bf00      	nop

0040728c <__aeabi_f2d>:
  40728c:	0042      	lsls	r2, r0, #1
  40728e:	ea4f 01e2 	mov.w	r1, r2, asr #3
  407292:	ea4f 0131 	mov.w	r1, r1, rrx
  407296:	ea4f 7002 	mov.w	r0, r2, lsl #28
  40729a:	bf1f      	itttt	ne
  40729c:	f012 437f 	andsne.w	r3, r2, #4278190080	; 0xff000000
  4072a0:	f093 4f7f 	teqne	r3, #4278190080	; 0xff000000
  4072a4:	f081 5160 	eorne.w	r1, r1, #939524096	; 0x38000000
  4072a8:	4770      	bxne	lr
  4072aa:	f092 0f00 	teq	r2, #0
  4072ae:	bf14      	ite	ne
  4072b0:	f093 4f7f 	teqne	r3, #4278190080	; 0xff000000
  4072b4:	4770      	bxeq	lr
  4072b6:	b530      	push	{r4, r5, lr}
  4072b8:	f44f 7460 	mov.w	r4, #896	; 0x380
  4072bc:	f001 4500 	and.w	r5, r1, #2147483648	; 0x80000000
  4072c0:	f021 4100 	bic.w	r1, r1, #2147483648	; 0x80000000
  4072c4:	e720      	b.n	407108 <__adddf3+0x138>
  4072c6:	bf00      	nop

004072c8 <__aeabi_ul2d>:
  4072c8:	ea50 0201 	orrs.w	r2, r0, r1
  4072cc:	bf08      	it	eq
  4072ce:	4770      	bxeq	lr
  4072d0:	b530      	push	{r4, r5, lr}
  4072d2:	f04f 0500 	mov.w	r5, #0
  4072d6:	e00a      	b.n	4072ee <__aeabi_l2d+0x16>

004072d8 <__aeabi_l2d>:
  4072d8:	ea50 0201 	orrs.w	r2, r0, r1
  4072dc:	bf08      	it	eq
  4072de:	4770      	bxeq	lr
  4072e0:	b530      	push	{r4, r5, lr}
  4072e2:	f011 4500 	ands.w	r5, r1, #2147483648	; 0x80000000
  4072e6:	d502      	bpl.n	4072ee <__aeabi_l2d+0x16>
  4072e8:	4240      	negs	r0, r0
  4072ea:	eb61 0141 	sbc.w	r1, r1, r1, lsl #1
  4072ee:	f44f 6480 	mov.w	r4, #1024	; 0x400
  4072f2:	f104 0432 	add.w	r4, r4, #50	; 0x32
  4072f6:	ea5f 5c91 	movs.w	ip, r1, lsr #22
  4072fa:	f43f aedc 	beq.w	4070b6 <__adddf3+0xe6>
  4072fe:	f04f 0203 	mov.w	r2, #3
  407302:	ea5f 0cdc 	movs.w	ip, ip, lsr #3
  407306:	bf18      	it	ne
  407308:	3203      	addne	r2, #3
  40730a:	ea5f 0cdc 	movs.w	ip, ip, lsr #3
  40730e:	bf18      	it	ne
  407310:	3203      	addne	r2, #3
  407312:	eb02 02dc 	add.w	r2, r2, ip, lsr #3
  407316:	f1c2 0320 	rsb	r3, r2, #32
  40731a:	fa00 fc03 	lsl.w	ip, r0, r3
  40731e:	fa20 f002 	lsr.w	r0, r0, r2
  407322:	fa01 fe03 	lsl.w	lr, r1, r3
  407326:	ea40 000e 	orr.w	r0, r0, lr
  40732a:	fa21 f102 	lsr.w	r1, r1, r2
  40732e:	4414      	add	r4, r2
  407330:	e6c1      	b.n	4070b6 <__adddf3+0xe6>
  407332:	bf00      	nop

00407334 <__aeabi_dmul>:
  407334:	b570      	push	{r4, r5, r6, lr}
  407336:	f04f 0cff 	mov.w	ip, #255	; 0xff
  40733a:	f44c 6ce0 	orr.w	ip, ip, #1792	; 0x700
  40733e:	ea1c 5411 	ands.w	r4, ip, r1, lsr #20
  407342:	bf1d      	ittte	ne
  407344:	ea1c 5513 	andsne.w	r5, ip, r3, lsr #20
  407348:	ea94 0f0c 	teqne	r4, ip
  40734c:	ea95 0f0c 	teqne	r5, ip
  407350:	f000 f8de 	bleq	407510 <__aeabi_dmul+0x1dc>
  407354:	442c      	add	r4, r5
  407356:	ea81 0603 	eor.w	r6, r1, r3
  40735a:	ea21 514c 	bic.w	r1, r1, ip, lsl #21
  40735e:	ea23 534c 	bic.w	r3, r3, ip, lsl #21
  407362:	ea50 3501 	orrs.w	r5, r0, r1, lsl #12
  407366:	bf18      	it	ne
  407368:	ea52 3503 	orrsne.w	r5, r2, r3, lsl #12
  40736c:	f441 1180 	orr.w	r1, r1, #1048576	; 0x100000
  407370:	f443 1380 	orr.w	r3, r3, #1048576	; 0x100000
  407374:	d038      	beq.n	4073e8 <__aeabi_dmul+0xb4>
  407376:	fba0 ce02 	umull	ip, lr, r0, r2
  40737a:	f04f 0500 	mov.w	r5, #0
  40737e:	fbe1 e502 	umlal	lr, r5, r1, r2
  407382:	f006 4200 	and.w	r2, r6, #2147483648	; 0x80000000
  407386:	fbe0 e503 	umlal	lr, r5, r0, r3
  40738a:	f04f 0600 	mov.w	r6, #0
  40738e:	fbe1 5603 	umlal	r5, r6, r1, r3
  407392:	f09c 0f00 	teq	ip, #0
  407396:	bf18      	it	ne
  407398:	f04e 0e01 	orrne.w	lr, lr, #1
  40739c:	f1a4 04ff 	sub.w	r4, r4, #255	; 0xff
  4073a0:	f5b6 7f00 	cmp.w	r6, #512	; 0x200
  4073a4:	f564 7440 	sbc.w	r4, r4, #768	; 0x300
  4073a8:	d204      	bcs.n	4073b4 <__aeabi_dmul+0x80>
  4073aa:	ea5f 0e4e 	movs.w	lr, lr, lsl #1
  4073ae:	416d      	adcs	r5, r5
  4073b0:	eb46 0606 	adc.w	r6, r6, r6
  4073b4:	ea42 21c6 	orr.w	r1, r2, r6, lsl #11
  4073b8:	ea41 5155 	orr.w	r1, r1, r5, lsr #21
  4073bc:	ea4f 20c5 	mov.w	r0, r5, lsl #11
  4073c0:	ea40 505e 	orr.w	r0, r0, lr, lsr #21
  4073c4:	ea4f 2ece 	mov.w	lr, lr, lsl #11
  4073c8:	f1b4 0cfd 	subs.w	ip, r4, #253	; 0xfd
  4073cc:	bf88      	it	hi
  4073ce:	f5bc 6fe0 	cmphi.w	ip, #1792	; 0x700
  4073d2:	d81e      	bhi.n	407412 <__aeabi_dmul+0xde>
  4073d4:	f1be 4f00 	cmp.w	lr, #2147483648	; 0x80000000
  4073d8:	bf08      	it	eq
  4073da:	ea5f 0e50 	movseq.w	lr, r0, lsr #1
  4073de:	f150 0000 	adcs.w	r0, r0, #0
  4073e2:	eb41 5104 	adc.w	r1, r1, r4, lsl #20
  4073e6:	bd70      	pop	{r4, r5, r6, pc}
  4073e8:	f006 4600 	and.w	r6, r6, #2147483648	; 0x80000000
  4073ec:	ea46 0101 	orr.w	r1, r6, r1
  4073f0:	ea40 0002 	orr.w	r0, r0, r2
  4073f4:	ea81 0103 	eor.w	r1, r1, r3
  4073f8:	ebb4 045c 	subs.w	r4, r4, ip, lsr #1
  4073fc:	bfc2      	ittt	gt
  4073fe:	ebd4 050c 	rsbsgt	r5, r4, ip
  407402:	ea41 5104 	orrgt.w	r1, r1, r4, lsl #20
  407406:	bd70      	popgt	{r4, r5, r6, pc}
  407408:	f441 1180 	orr.w	r1, r1, #1048576	; 0x100000
  40740c:	f04f 0e00 	mov.w	lr, #0
  407410:	3c01      	subs	r4, #1
  407412:	f300 80ab 	bgt.w	40756c <__aeabi_dmul+0x238>
  407416:	f114 0f36 	cmn.w	r4, #54	; 0x36
  40741a:	bfde      	ittt	le
  40741c:	2000      	movle	r0, #0
  40741e:	f001 4100 	andle.w	r1, r1, #2147483648	; 0x80000000
  407422:	bd70      	pople	{r4, r5, r6, pc}
  407424:	f1c4 0400 	rsb	r4, r4, #0
  407428:	3c20      	subs	r4, #32
  40742a:	da35      	bge.n	407498 <__aeabi_dmul+0x164>
  40742c:	340c      	adds	r4, #12
  40742e:	dc1b      	bgt.n	407468 <__aeabi_dmul+0x134>
  407430:	f104 0414 	add.w	r4, r4, #20
  407434:	f1c4 0520 	rsb	r5, r4, #32
  407438:	fa00 f305 	lsl.w	r3, r0, r5
  40743c:	fa20 f004 	lsr.w	r0, r0, r4
  407440:	fa01 f205 	lsl.w	r2, r1, r5
  407444:	ea40 0002 	orr.w	r0, r0, r2
  407448:	f001 4200 	and.w	r2, r1, #2147483648	; 0x80000000
  40744c:	f021 4100 	bic.w	r1, r1, #2147483648	; 0x80000000
  407450:	eb10 70d3 	adds.w	r0, r0, r3, lsr #31
  407454:	fa21 f604 	lsr.w	r6, r1, r4
  407458:	eb42 0106 	adc.w	r1, r2, r6
  40745c:	ea5e 0e43 	orrs.w	lr, lr, r3, lsl #1
  407460:	bf08      	it	eq
  407462:	ea20 70d3 	biceq.w	r0, r0, r3, lsr #31
  407466:	bd70      	pop	{r4, r5, r6, pc}
  407468:	f1c4 040c 	rsb	r4, r4, #12
  40746c:	f1c4 0520 	rsb	r5, r4, #32
  407470:	fa00 f304 	lsl.w	r3, r0, r4
  407474:	fa20 f005 	lsr.w	r0, r0, r5
  407478:	fa01 f204 	lsl.w	r2, r1, r4
  40747c:	ea40 0002 	orr.w	r0, r0, r2
  407480:	f001 4100 	and.w	r1, r1, #2147483648	; 0x80000000
  407484:	eb10 70d3 	adds.w	r0, r0, r3, lsr #31
  407488:	f141 0100 	adc.w	r1, r1, #0
  40748c:	ea5e 0e43 	orrs.w	lr, lr, r3, lsl #1
  407490:	bf08      	it	eq
  407492:	ea20 70d3 	biceq.w	r0, r0, r3, lsr #31
  407496:	bd70      	pop	{r4, r5, r6, pc}
  407498:	f1c4 0520 	rsb	r5, r4, #32
  40749c:	fa00 f205 	lsl.w	r2, r0, r5
  4074a0:	ea4e 0e02 	orr.w	lr, lr, r2
  4074a4:	fa20 f304 	lsr.w	r3, r0, r4
  4074a8:	fa01 f205 	lsl.w	r2, r1, r5
  4074ac:	ea43 0302 	orr.w	r3, r3, r2
  4074b0:	fa21 f004 	lsr.w	r0, r1, r4
  4074b4:	f001 4100 	and.w	r1, r1, #2147483648	; 0x80000000
  4074b8:	fa21 f204 	lsr.w	r2, r1, r4
  4074bc:	ea20 0002 	bic.w	r0, r0, r2
  4074c0:	eb00 70d3 	add.w	r0, r0, r3, lsr #31
  4074c4:	ea5e 0e43 	orrs.w	lr, lr, r3, lsl #1
  4074c8:	bf08      	it	eq
  4074ca:	ea20 70d3 	biceq.w	r0, r0, r3, lsr #31
  4074ce:	bd70      	pop	{r4, r5, r6, pc}
  4074d0:	f094 0f00 	teq	r4, #0
  4074d4:	d10f      	bne.n	4074f6 <__aeabi_dmul+0x1c2>
  4074d6:	f001 4600 	and.w	r6, r1, #2147483648	; 0x80000000
  4074da:	0040      	lsls	r0, r0, #1
  4074dc:	eb41 0101 	adc.w	r1, r1, r1
  4074e0:	f411 1f80 	tst.w	r1, #1048576	; 0x100000
  4074e4:	bf08      	it	eq
  4074e6:	3c01      	subeq	r4, #1
  4074e8:	d0f7      	beq.n	4074da <__aeabi_dmul+0x1a6>
  4074ea:	ea41 0106 	orr.w	r1, r1, r6
  4074ee:	f095 0f00 	teq	r5, #0
  4074f2:	bf18      	it	ne
  4074f4:	4770      	bxne	lr
  4074f6:	f003 4600 	and.w	r6, r3, #2147483648	; 0x80000000
  4074fa:	0052      	lsls	r2, r2, #1
  4074fc:	eb43 0303 	adc.w	r3, r3, r3
  407500:	f413 1f80 	tst.w	r3, #1048576	; 0x100000
  407504:	bf08      	it	eq
  407506:	3d01      	subeq	r5, #1
  407508:	d0f7      	beq.n	4074fa <__aeabi_dmul+0x1c6>
  40750a:	ea43 0306 	orr.w	r3, r3, r6
  40750e:	4770      	bx	lr
  407510:	ea94 0f0c 	teq	r4, ip
  407514:	ea0c 5513 	and.w	r5, ip, r3, lsr #20
  407518:	bf18      	it	ne
  40751a:	ea95 0f0c 	teqne	r5, ip
  40751e:	d00c      	beq.n	40753a <__aeabi_dmul+0x206>
  407520:	ea50 0641 	orrs.w	r6, r0, r1, lsl #1
  407524:	bf18      	it	ne
  407526:	ea52 0643 	orrsne.w	r6, r2, r3, lsl #1
  40752a:	d1d1      	bne.n	4074d0 <__aeabi_dmul+0x19c>
  40752c:	ea81 0103 	eor.w	r1, r1, r3
  407530:	f001 4100 	and.w	r1, r1, #2147483648	; 0x80000000
  407534:	f04f 0000 	mov.w	r0, #0
  407538:	bd70      	pop	{r4, r5, r6, pc}
  40753a:	ea50 0641 	orrs.w	r6, r0, r1, lsl #1
  40753e:	bf06      	itte	eq
  407540:	4610      	moveq	r0, r2
  407542:	4619      	moveq	r1, r3
  407544:	ea52 0643 	orrsne.w	r6, r2, r3, lsl #1
  407548:	d019      	beq.n	40757e <__aeabi_dmul+0x24a>
  40754a:	ea94 0f0c 	teq	r4, ip
  40754e:	d102      	bne.n	407556 <__aeabi_dmul+0x222>
  407550:	ea50 3601 	orrs.w	r6, r0, r1, lsl #12
  407554:	d113      	bne.n	40757e <__aeabi_dmul+0x24a>
  407556:	ea95 0f0c 	teq	r5, ip
  40755a:	d105      	bne.n	407568 <__aeabi_dmul+0x234>
  40755c:	ea52 3603 	orrs.w	r6, r2, r3, lsl #12
  407560:	bf1c      	itt	ne
  407562:	4610      	movne	r0, r2
  407564:	4619      	movne	r1, r3
  407566:	d10a      	bne.n	40757e <__aeabi_dmul+0x24a>
  407568:	ea81 0103 	eor.w	r1, r1, r3
  40756c:	f001 4100 	and.w	r1, r1, #2147483648	; 0x80000000
  407570:	f041 41fe 	orr.w	r1, r1, #2130706432	; 0x7f000000
  407574:	f441 0170 	orr.w	r1, r1, #15728640	; 0xf00000
  407578:	f04f 0000 	mov.w	r0, #0
  40757c:	bd70      	pop	{r4, r5, r6, pc}
  40757e:	f041 41fe 	orr.w	r1, r1, #2130706432	; 0x7f000000
  407582:	f441 0178 	orr.w	r1, r1, #16252928	; 0xf80000
  407586:	bd70      	pop	{r4, r5, r6, pc}

00407588 <__aeabi_ddiv>:
  407588:	b570      	push	{r4, r5, r6, lr}
  40758a:	f04f 0cff 	mov.w	ip, #255	; 0xff
  40758e:	f44c 6ce0 	orr.w	ip, ip, #1792	; 0x700
  407592:	ea1c 5411 	ands.w	r4, ip, r1, lsr #20
  407596:	bf1d      	ittte	ne
  407598:	ea1c 5513 	andsne.w	r5, ip, r3, lsr #20
  40759c:	ea94 0f0c 	teqne	r4, ip
  4075a0:	ea95 0f0c 	teqne	r5, ip
  4075a4:	f000 f8a7 	bleq	4076f6 <__aeabi_ddiv+0x16e>
  4075a8:	eba4 0405 	sub.w	r4, r4, r5
  4075ac:	ea81 0e03 	eor.w	lr, r1, r3
  4075b0:	ea52 3503 	orrs.w	r5, r2, r3, lsl #12
  4075b4:	ea4f 3101 	mov.w	r1, r1, lsl #12
  4075b8:	f000 8088 	beq.w	4076cc <__aeabi_ddiv+0x144>
  4075bc:	ea4f 3303 	mov.w	r3, r3, lsl #12
  4075c0:	f04f 5580 	mov.w	r5, #268435456	; 0x10000000
  4075c4:	ea45 1313 	orr.w	r3, r5, r3, lsr #4
  4075c8:	ea43 6312 	orr.w	r3, r3, r2, lsr #24
  4075cc:	ea4f 2202 	mov.w	r2, r2, lsl #8
  4075d0:	ea45 1511 	orr.w	r5, r5, r1, lsr #4
  4075d4:	ea45 6510 	orr.w	r5, r5, r0, lsr #24
  4075d8:	ea4f 2600 	mov.w	r6, r0, lsl #8
  4075dc:	f00e 4100 	and.w	r1, lr, #2147483648	; 0x80000000
  4075e0:	429d      	cmp	r5, r3
  4075e2:	bf08      	it	eq
  4075e4:	4296      	cmpeq	r6, r2
  4075e6:	f144 04fd 	adc.w	r4, r4, #253	; 0xfd
  4075ea:	f504 7440 	add.w	r4, r4, #768	; 0x300
  4075ee:	d202      	bcs.n	4075f6 <__aeabi_ddiv+0x6e>
  4075f0:	085b      	lsrs	r3, r3, #1
  4075f2:	ea4f 0232 	mov.w	r2, r2, rrx
  4075f6:	1ab6      	subs	r6, r6, r2
  4075f8:	eb65 0503 	sbc.w	r5, r5, r3
  4075fc:	085b      	lsrs	r3, r3, #1
  4075fe:	ea4f 0232 	mov.w	r2, r2, rrx
  407602:	f44f 1080 	mov.w	r0, #1048576	; 0x100000
  407606:	f44f 2c00 	mov.w	ip, #524288	; 0x80000
  40760a:	ebb6 0e02 	subs.w	lr, r6, r2
  40760e:	eb75 0e03 	sbcs.w	lr, r5, r3
  407612:	bf22      	ittt	cs
  407614:	1ab6      	subcs	r6, r6, r2
  407616:	4675      	movcs	r5, lr
  407618:	ea40 000c 	orrcs.w	r0, r0, ip
  40761c:	085b      	lsrs	r3, r3, #1
  40761e:	ea4f 0232 	mov.w	r2, r2, rrx
  407622:	ebb6 0e02 	subs.w	lr, r6, r2
  407626:	eb75 0e03 	sbcs.w	lr, r5, r3
  40762a:	bf22      	ittt	cs
  40762c:	1ab6      	subcs	r6, r6, r2
  40762e:	4675      	movcs	r5, lr
  407630:	ea40 005c 	orrcs.w	r0, r0, ip, lsr #1
  407634:	085b      	lsrs	r3, r3, #1
  407636:	ea4f 0232 	mov.w	r2, r2, rrx
  40763a:	ebb6 0e02 	subs.w	lr, r6, r2
  40763e:	eb75 0e03 	sbcs.w	lr, r5, r3
  407642:	bf22      	ittt	cs
  407644:	1ab6      	subcs	r6, r6, r2
  407646:	4675      	movcs	r5, lr
  407648:	ea40 009c 	orrcs.w	r0, r0, ip, lsr #2
  40764c:	085b      	lsrs	r3, r3, #1
  40764e:	ea4f 0232 	mov.w	r2, r2, rrx
  407652:	ebb6 0e02 	subs.w	lr, r6, r2
  407656:	eb75 0e03 	sbcs.w	lr, r5, r3
  40765a:	bf22      	ittt	cs
  40765c:	1ab6      	subcs	r6, r6, r2
  40765e:	4675      	movcs	r5, lr
  407660:	ea40 00dc 	orrcs.w	r0, r0, ip, lsr #3
  407664:	ea55 0e06 	orrs.w	lr, r5, r6
  407668:	d018      	beq.n	40769c <__aeabi_ddiv+0x114>
  40766a:	ea4f 1505 	mov.w	r5, r5, lsl #4
  40766e:	ea45 7516 	orr.w	r5, r5, r6, lsr #28
  407672:	ea4f 1606 	mov.w	r6, r6, lsl #4
  407676:	ea4f 03c3 	mov.w	r3, r3, lsl #3
  40767a:	ea43 7352 	orr.w	r3, r3, r2, lsr #29
  40767e:	ea4f 02c2 	mov.w	r2, r2, lsl #3
  407682:	ea5f 1c1c 	movs.w	ip, ip, lsr #4
  407686:	d1c0      	bne.n	40760a <__aeabi_ddiv+0x82>
  407688:	f411 1f80 	tst.w	r1, #1048576	; 0x100000
  40768c:	d10b      	bne.n	4076a6 <__aeabi_ddiv+0x11e>
  40768e:	ea41 0100 	orr.w	r1, r1, r0
  407692:	f04f 0000 	mov.w	r0, #0
  407696:	f04f 4c00 	mov.w	ip, #2147483648	; 0x80000000
  40769a:	e7b6      	b.n	40760a <__aeabi_ddiv+0x82>
  40769c:	f411 1f80 	tst.w	r1, #1048576	; 0x100000
  4076a0:	bf04      	itt	eq
  4076a2:	4301      	orreq	r1, r0
  4076a4:	2000      	moveq	r0, #0
  4076a6:	f1b4 0cfd 	subs.w	ip, r4, #253	; 0xfd
  4076aa:	bf88      	it	hi
  4076ac:	f5bc 6fe0 	cmphi.w	ip, #1792	; 0x700
  4076b0:	f63f aeaf 	bhi.w	407412 <__aeabi_dmul+0xde>
  4076b4:	ebb5 0c03 	subs.w	ip, r5, r3
  4076b8:	bf04      	itt	eq
  4076ba:	ebb6 0c02 	subseq.w	ip, r6, r2
  4076be:	ea5f 0c50 	movseq.w	ip, r0, lsr #1
  4076c2:	f150 0000 	adcs.w	r0, r0, #0
  4076c6:	eb41 5104 	adc.w	r1, r1, r4, lsl #20
  4076ca:	bd70      	pop	{r4, r5, r6, pc}
  4076cc:	f00e 4e00 	and.w	lr, lr, #2147483648	; 0x80000000
  4076d0:	ea4e 3111 	orr.w	r1, lr, r1, lsr #12
  4076d4:	eb14 045c 	adds.w	r4, r4, ip, lsr #1
  4076d8:	bfc2      	ittt	gt
  4076da:	ebd4 050c 	rsbsgt	r5, r4, ip
  4076de:	ea41 5104 	orrgt.w	r1, r1, r4, lsl #20
  4076e2:	bd70      	popgt	{r4, r5, r6, pc}
  4076e4:	f441 1180 	orr.w	r1, r1, #1048576	; 0x100000
  4076e8:	f04f 0e00 	mov.w	lr, #0
  4076ec:	3c01      	subs	r4, #1
  4076ee:	e690      	b.n	407412 <__aeabi_dmul+0xde>
  4076f0:	ea45 0e06 	orr.w	lr, r5, r6
  4076f4:	e68d      	b.n	407412 <__aeabi_dmul+0xde>
  4076f6:	ea0c 5513 	and.w	r5, ip, r3, lsr #20
  4076fa:	ea94 0f0c 	teq	r4, ip
  4076fe:	bf08      	it	eq
  407700:	ea95 0f0c 	teqeq	r5, ip
  407704:	f43f af3b 	beq.w	40757e <__aeabi_dmul+0x24a>
  407708:	ea94 0f0c 	teq	r4, ip
  40770c:	d10a      	bne.n	407724 <__aeabi_ddiv+0x19c>
  40770e:	ea50 3401 	orrs.w	r4, r0, r1, lsl #12
  407712:	f47f af34 	bne.w	40757e <__aeabi_dmul+0x24a>
  407716:	ea95 0f0c 	teq	r5, ip
  40771a:	f47f af25 	bne.w	407568 <__aeabi_dmul+0x234>
  40771e:	4610      	mov	r0, r2
  407720:	4619      	mov	r1, r3
  407722:	e72c      	b.n	40757e <__aeabi_dmul+0x24a>
  407724:	ea95 0f0c 	teq	r5, ip
  407728:	d106      	bne.n	407738 <__aeabi_ddiv+0x1b0>
  40772a:	ea52 3503 	orrs.w	r5, r2, r3, lsl #12
  40772e:	f43f aefd 	beq.w	40752c <__aeabi_dmul+0x1f8>
  407732:	4610      	mov	r0, r2
  407734:	4619      	mov	r1, r3
  407736:	e722      	b.n	40757e <__aeabi_dmul+0x24a>
  407738:	ea50 0641 	orrs.w	r6, r0, r1, lsl #1
  40773c:	bf18      	it	ne
  40773e:	ea52 0643 	orrsne.w	r6, r2, r3, lsl #1
  407742:	f47f aec5 	bne.w	4074d0 <__aeabi_dmul+0x19c>
  407746:	ea50 0441 	orrs.w	r4, r0, r1, lsl #1
  40774a:	f47f af0d 	bne.w	407568 <__aeabi_dmul+0x234>
  40774e:	ea52 0543 	orrs.w	r5, r2, r3, lsl #1
  407752:	f47f aeeb 	bne.w	40752c <__aeabi_dmul+0x1f8>
  407756:	e712      	b.n	40757e <__aeabi_dmul+0x24a>

00407758 <__gedf2>:
  407758:	f04f 3cff 	mov.w	ip, #4294967295
  40775c:	e006      	b.n	40776c <__cmpdf2+0x4>
  40775e:	bf00      	nop

00407760 <__ledf2>:
  407760:	f04f 0c01 	mov.w	ip, #1
  407764:	e002      	b.n	40776c <__cmpdf2+0x4>
  407766:	bf00      	nop

00407768 <__cmpdf2>:
  407768:	f04f 0c01 	mov.w	ip, #1
  40776c:	f84d cd04 	str.w	ip, [sp, #-4]!
  407770:	ea4f 0c41 	mov.w	ip, r1, lsl #1
  407774:	ea7f 5c6c 	mvns.w	ip, ip, asr #21
  407778:	ea4f 0c43 	mov.w	ip, r3, lsl #1
  40777c:	bf18      	it	ne
  40777e:	ea7f 5c6c 	mvnsne.w	ip, ip, asr #21
  407782:	d01b      	beq.n	4077bc <__cmpdf2+0x54>
  407784:	b001      	add	sp, #4
  407786:	ea50 0c41 	orrs.w	ip, r0, r1, lsl #1
  40778a:	bf0c      	ite	eq
  40778c:	ea52 0c43 	orrseq.w	ip, r2, r3, lsl #1
  407790:	ea91 0f03 	teqne	r1, r3
  407794:	bf02      	ittt	eq
  407796:	ea90 0f02 	teqeq	r0, r2
  40779a:	2000      	moveq	r0, #0
  40779c:	4770      	bxeq	lr
  40779e:	f110 0f00 	cmn.w	r0, #0
  4077a2:	ea91 0f03 	teq	r1, r3
  4077a6:	bf58      	it	pl
  4077a8:	4299      	cmppl	r1, r3
  4077aa:	bf08      	it	eq
  4077ac:	4290      	cmpeq	r0, r2
  4077ae:	bf2c      	ite	cs
  4077b0:	17d8      	asrcs	r0, r3, #31
  4077b2:	ea6f 70e3 	mvncc.w	r0, r3, asr #31
  4077b6:	f040 0001 	orr.w	r0, r0, #1
  4077ba:	4770      	bx	lr
  4077bc:	ea4f 0c41 	mov.w	ip, r1, lsl #1
  4077c0:	ea7f 5c6c 	mvns.w	ip, ip, asr #21
  4077c4:	d102      	bne.n	4077cc <__cmpdf2+0x64>
  4077c6:	ea50 3c01 	orrs.w	ip, r0, r1, lsl #12
  4077ca:	d107      	bne.n	4077dc <__cmpdf2+0x74>
  4077cc:	ea4f 0c43 	mov.w	ip, r3, lsl #1
  4077d0:	ea7f 5c6c 	mvns.w	ip, ip, asr #21
  4077d4:	d1d6      	bne.n	407784 <__cmpdf2+0x1c>
  4077d6:	ea52 3c03 	orrs.w	ip, r2, r3, lsl #12
  4077da:	d0d3      	beq.n	407784 <__cmpdf2+0x1c>
  4077dc:	f85d 0b04 	ldr.w	r0, [sp], #4
  4077e0:	4770      	bx	lr
  4077e2:	bf00      	nop

004077e4 <__aeabi_cdrcmple>:
  4077e4:	4684      	mov	ip, r0
  4077e6:	4610      	mov	r0, r2
  4077e8:	4662      	mov	r2, ip
  4077ea:	468c      	mov	ip, r1
  4077ec:	4619      	mov	r1, r3
  4077ee:	4663      	mov	r3, ip
  4077f0:	e000      	b.n	4077f4 <__aeabi_cdcmpeq>
  4077f2:	bf00      	nop

004077f4 <__aeabi_cdcmpeq>:
  4077f4:	b501      	push	{r0, lr}
  4077f6:	f7ff ffb7 	bl	407768 <__cmpdf2>
  4077fa:	2800      	cmp	r0, #0
  4077fc:	bf48      	it	mi
  4077fe:	f110 0f00 	cmnmi.w	r0, #0
  407802:	bd01      	pop	{r0, pc}

00407804 <__aeabi_dcmpeq>:
  407804:	f84d ed08 	str.w	lr, [sp, #-8]!
  407808:	f7ff fff4 	bl	4077f4 <__aeabi_cdcmpeq>
  40780c:	bf0c      	ite	eq
  40780e:	2001      	moveq	r0, #1
  407810:	2000      	movne	r0, #0
  407812:	f85d fb08 	ldr.w	pc, [sp], #8
  407816:	bf00      	nop

00407818 <__aeabi_dcmplt>:
  407818:	f84d ed08 	str.w	lr, [sp, #-8]!
  40781c:	f7ff ffea 	bl	4077f4 <__aeabi_cdcmpeq>
  407820:	bf34      	ite	cc
  407822:	2001      	movcc	r0, #1
  407824:	2000      	movcs	r0, #0
  407826:	f85d fb08 	ldr.w	pc, [sp], #8
  40782a:	bf00      	nop

0040782c <__aeabi_dcmple>:
  40782c:	f84d ed08 	str.w	lr, [sp, #-8]!
  407830:	f7ff ffe0 	bl	4077f4 <__aeabi_cdcmpeq>
  407834:	bf94      	ite	ls
  407836:	2001      	movls	r0, #1
  407838:	2000      	movhi	r0, #0
  40783a:	f85d fb08 	ldr.w	pc, [sp], #8
  40783e:	bf00      	nop

00407840 <__aeabi_dcmpge>:
  407840:	f84d ed08 	str.w	lr, [sp, #-8]!
  407844:	f7ff ffce 	bl	4077e4 <__aeabi_cdrcmple>
  407848:	bf94      	ite	ls
  40784a:	2001      	movls	r0, #1
  40784c:	2000      	movhi	r0, #0
  40784e:	f85d fb08 	ldr.w	pc, [sp], #8
  407852:	bf00      	nop

00407854 <__aeabi_dcmpgt>:
  407854:	f84d ed08 	str.w	lr, [sp, #-8]!
  407858:	f7ff ffc4 	bl	4077e4 <__aeabi_cdrcmple>
  40785c:	bf34      	ite	cc
  40785e:	2001      	movcc	r0, #1
  407860:	2000      	movcs	r0, #0
  407862:	f85d fb08 	ldr.w	pc, [sp], #8
  407866:	bf00      	nop

00407868 <__aeabi_dcmpun>:
  407868:	ea4f 0c41 	mov.w	ip, r1, lsl #1
  40786c:	ea7f 5c6c 	mvns.w	ip, ip, asr #21
  407870:	d102      	bne.n	407878 <__aeabi_dcmpun+0x10>
  407872:	ea50 3c01 	orrs.w	ip, r0, r1, lsl #12
  407876:	d10a      	bne.n	40788e <__aeabi_dcmpun+0x26>
  407878:	ea4f 0c43 	mov.w	ip, r3, lsl #1
  40787c:	ea7f 5c6c 	mvns.w	ip, ip, asr #21
  407880:	d102      	bne.n	407888 <__aeabi_dcmpun+0x20>
  407882:	ea52 3c03 	orrs.w	ip, r2, r3, lsl #12
  407886:	d102      	bne.n	40788e <__aeabi_dcmpun+0x26>
  407888:	f04f 0000 	mov.w	r0, #0
  40788c:	4770      	bx	lr
  40788e:	f04f 0001 	mov.w	r0, #1
  407892:	4770      	bx	lr

00407894 <__aeabi_d2iz>:
  407894:	ea4f 0241 	mov.w	r2, r1, lsl #1
  407898:	f512 1200 	adds.w	r2, r2, #2097152	; 0x200000
  40789c:	d215      	bcs.n	4078ca <__aeabi_d2iz+0x36>
  40789e:	d511      	bpl.n	4078c4 <__aeabi_d2iz+0x30>
  4078a0:	f46f 7378 	mvn.w	r3, #992	; 0x3e0
  4078a4:	ebb3 5262 	subs.w	r2, r3, r2, asr #21
  4078a8:	d912      	bls.n	4078d0 <__aeabi_d2iz+0x3c>
  4078aa:	ea4f 23c1 	mov.w	r3, r1, lsl #11
  4078ae:	f043 4300 	orr.w	r3, r3, #2147483648	; 0x80000000
  4078b2:	ea43 5350 	orr.w	r3, r3, r0, lsr #21
  4078b6:	f011 4f00 	tst.w	r1, #2147483648	; 0x80000000
  4078ba:	fa23 f002 	lsr.w	r0, r3, r2
  4078be:	bf18      	it	ne
  4078c0:	4240      	negne	r0, r0
  4078c2:	4770      	bx	lr
  4078c4:	f04f 0000 	mov.w	r0, #0
  4078c8:	4770      	bx	lr
  4078ca:	ea50 3001 	orrs.w	r0, r0, r1, lsl #12
  4078ce:	d105      	bne.n	4078dc <__aeabi_d2iz+0x48>
  4078d0:	f011 4000 	ands.w	r0, r1, #2147483648	; 0x80000000
  4078d4:	bf08      	it	eq
  4078d6:	f06f 4000 	mvneq.w	r0, #2147483648	; 0x80000000
  4078da:	4770      	bx	lr
  4078dc:	f04f 0000 	mov.w	r0, #0
  4078e0:	4770      	bx	lr
  4078e2:	bf00      	nop

004078e4 <sysfont_glyphs>:
	...
  407904:	0030 0030 0030 0030 0030 0030 0000 0030     0.0.0.0.0.0...0.
  407914:	0030 0000 0000 0000 0000 0000 006c 006c     0...........l.l.
  407924:	006c 006c 0000 0000 0000 0000 0000 0000     l.l.............
	...
  40793c:	0000 0028 0028 007c 0028 0028 007c 0028     ..(.(.|.(.(.|.(.
  40794c:	0028 0000 0000 0000 0000 0000 0010 003c     (.............<.
  40795c:	0040 0020 0010 0008 0004 0078 0010 0000     @. .......x.....
	...
  407974:	0000 007c 00a4 00a8 0050 0028 0054 0094     ..|.....P.(.T...
  407984:	0088 0000 0000 0000 0000 0000 0060 0090     ............`...
  407994:	0090 0090 0060 0094 0088 0088 0070 0000     ....`.......p...
	...
  4079ac:	0010 0010 0010 0000 0000 0000 0000 0000     ................
	...
  4079c8:	0008 0010 0020 0020 0020 0020 0020 0020     .... . . . . . .
  4079d8:	0010 0008 0000 0000 0000 0000 0020 0010     ............ ...
  4079e8:	0008 0008 0008 0008 0008 0008 0010 0020     .............. .
  4079f8:	0000 0000 0000 0028 0010 007c 0010 0028     ......(...|...(.
	...
  407a20:	0010 0010 0010 00fe 0010 0010 0010 0000     ................
	...
  407a48:	0010 0030 0020 0000 0000 0000 0000 0000     ..0. ...........
  407a58:	0000 0000 0000 007c 0000 0000 0000 0000     ......|.........
	...
  407a7c:	0000 0030 0030 0000 0000 0000 0000 0000     ..0.0...........
  407a8c:	0000 0008 0008 0010 0010 0020 0020 0040     .......... . .@.
  407a9c:	0040 0000 0000 0000 0000 0000 0000 0078     @.............x.
  407aac:	0084 008c 0094 00a4 00c4 0084 0078 0000     ............x...
	...
  407ac4:	0000 0010 0030 0050 0010 0010 0010 0010     ....0.P.........
  407ad4:	007c 0000 0000 0000 0000 0000 0000 0070     |.............p.
  407ae4:	0088 0008 0010 0020 0040 0080 00f8 0000     ...... .@.......
	...
  407afc:	0000 0070 0088 0008 0030 0008 0008 0088     ..p.....0.......
  407b0c:	0070 0000 0000 0000 0000 0000 0000 0008     p...............
  407b1c:	0018 0028 0048 0088 00fc 0008 0008 0000     ..(.H...........
	...
  407b34:	0000 0078 0080 0080 00f0 0008 0008 0008     ..x.............
  407b44:	00f0 0000 0000 0000 0000 0000 0000 0030     ..............0.
  407b54:	0040 0080 00f0 0088 0088 0088 0070 0000     @...........p...
	...
  407b6c:	0000 00f8 0008 0010 0010 0020 0020 0040     .......... . .@.
  407b7c:	0040 0000 0000 0000 0000 0000 0000 0070     @.............p.
  407b8c:	0088 0088 0070 0088 0088 0088 0070 0000     ....p.......p...
	...
  407ba4:	0000 0070 0088 0088 0088 0078 0008 0010     ..p.......x.....
  407bb4:	0060 0000 0000 0000 0000 0000 0000 0000     `...............
  407bc4:	0000 0030 0030 0000 0000 0030 0030 0000     ..0.0.....0.0...
	...
  407be0:	0000 0030 0030 0000 0000 0030 0030 0060     ..0.0.....0.0.`.
  407bf0:	0040 0000 0000 0000 0000 0000 0008 0010     @...............
  407c00:	0020 0040 0020 0010 0008 0000 0000 0000      .@. ...........
	...
  407c1c:	007c 0000 007c 0000 0000 0000 0000 0000     |...|...........
	...
  407c34:	0040 0020 0010 0008 0010 0020 0040 0000     @. ....... .@...
	...
  407c4c:	0000 0030 0048 0008 0010 0020 0000 0000     ..0.H..... .....
  407c5c:	0020 0000 0000 0000 0000 0000 0000 0000      ...............
  407c6c:	003c 0042 009a 00aa 00aa 00be 0080 0078     <.B...........x.
	...
  407c84:	0000 0010 0028 0028 0044 007c 0044 0044     ....(.(.D.|.D.D.
  407c94:	0044 0000 0000 0000 0000 0000 0000 00f8     D...............
  407ca4:	0084 0084 00f8 0084 0084 0084 00f8 0000     ................
	...
  407cbc:	0000 003c 0040 0080 0080 0080 0080 0040     ..<.@.........@.
  407ccc:	003c 0000 0000 0000 0000 0000 0000 00f0     <...............
  407cdc:	0088 0084 0084 0084 0084 0088 00f0 0000     ................
	...
  407cf4:	0000 00f8 0080 0080 00f0 0080 0080 0080     ................
  407d04:	00f8 0000 0000 0000 0000 0000 0000 00f8     ................
  407d14:	0080 0080 00f8 0080 0080 0080 0080 0000     ................
	...
  407d2c:	0000 003c 0040 0080 0080 009c 0084 0044     ..<.@.........D.
  407d3c:	0038 0000 0000 0000 0000 0000 0000 0088     8...............
  407d4c:	0088 0088 00f8 0088 0088 0088 0088 0000     ................
	...
  407d64:	0000 00f8 0020 0020 0020 0020 0020 0020     .... . . . . . .
  407d74:	00f8 0000 0000 0000 0000 0000 0000 00f8     ................
  407d84:	0008 0008 0008 0008 0008 0008 00f0 0000     ................
	...
  407d9c:	0000 0084 0088 0090 00a0 00d0 0088 0084     ................
  407dac:	0084 0000 0000 0000 0000 0000 0000 0080     ................
  407dbc:	0080 0080 0080 0080 0080 0080 00fc 0000     ................
	...
  407dd4:	0000 0084 00cc 00cc 00b4 00b4 0084 0084     ................
  407de4:	0084 0000 0000 0000 0000 0000 0000 0084     ................
  407df4:	00c4 00c4 00a4 00a4 0094 0094 008c 0000     ................
	...
  407e0c:	0000 0078 0084 0084 0084 0084 0084 0084     ..x.............
  407e1c:	0078 0000 0000 0000 0000 0000 0000 00f8     x...............
  407e2c:	0084 0084 0084 00f8 0080 0080 0080 0000     ................
	...
  407e44:	0000 0078 0084 0084 0084 0084 0084 0084     ..x.............
  407e54:	0078 0020 0018 0000 0000 0000 0000 00f8     x. .............
  407e64:	0084 0084 0084 00f8 0088 0084 0084 0000     ................
	...
  407e7c:	0000 007c 0080 0080 0060 0018 0004 0004     ..|.....`.......
  407e8c:	00f8 0000 0000 0000 0000 0000 0000 00f8     ................
  407e9c:	0020 0020 0020 0020 0020 0020 0020 0000      . . . . . . ...
	...
  407eb4:	0000 0084 0084 0084 0084 0084 0084 0084     ................
  407ec4:	0078 0000 0000 0000 0000 0000 0000 0084     x...............
  407ed4:	0084 0084 0048 0048 0048 0030 0030 0000     ....H.H.H.0.0...
	...
  407eec:	0000 0088 00a8 00a8 00a8 00a8 00a8 0050     ..............P.
  407efc:	0050 0000 0000 0000 0000 0000 0000 0088     P...............
  407f0c:	0088 0050 0020 0020 0050 0088 0088 0000     ..P. . .P.......
	...
  407f24:	0000 0088 0088 0088 0050 0050 0020 0020     ........P.P. . .
  407f34:	0020 0000 0000 0000 0000 0000 0000 00fc      ...............
  407f44:	0004 0008 0010 0020 0040 0080 00fc 0000     ...... .@.......
	...
  407f5c:	0070 0040 0040 0040 0040 0040 0040 0040     p.@.@.@.@.@.@.@.
  407f6c:	0040 0040 0070 0000 0000 0000 0040 0040     @.@.p.......@.@.
  407f7c:	0020 0020 0020 0010 0010 0010 0008 0008      . . ...........
	...
  407f94:	0038 0008 0008 0008 0008 0008 0008 0008     8...............
  407fa4:	0008 0008 0038 0000 0000 0000 0010 0028     ....8.........(.
  407fb4:	0044 0000 0000 0000 0000 0000 0000 0000     D...............
	...
  407fdc:	0038 0000 0000 0000 0000 0000 0000 0020     8............. .
  407fec:	0010 0000 0000 0000 0000 0000 0000 0000     ................
	...
  408008:	0000 0070 0008 0008 0078 0088 007c 0000     ..p.....x...|...
	...
  408020:	0080 0080 0080 00f8 0084 0084 0084 0084     ................
  408030:	00f8 0000 0000 0000 0000 0000 0000 0000     ................
  408040:	0000 0078 0080 0080 0080 0080 0078 0000     ..x.........x...
	...
  408058:	0004 0004 0004 007c 0084 0084 0084 008c     ......|.........
  408068:	0074 0000 0000 0000 0000 0000 0000 0000     t...............
  408078:	0000 0078 0084 00fc 0080 0080 007c 0000     ..x.........|...
	...
  408090:	001c 0020 0020 00fc 0020 0020 0020 0020     .. . ... . . . .
  4080a0:	00fc 0000 0000 0000 0000 0000 0000 0000     ................
  4080b0:	0000 007c 0084 0084 0084 0084 007c 0004     ..|.........|...
  4080c0:	0078 0000 0000 0000 0080 0080 0080 00b8     x...............
  4080d0:	00c4 0084 0084 0084 0084 0000 0000 0000     ................
  4080e0:	0000 0000 0000 0010 0000 0070 0010 0010     ..........p.....
  4080f0:	0010 0010 007c 0000 0000 0000 0000 0000     ....|...........
  408100:	0000 0008 0000 0078 0008 0008 0008 0008     ......x.........
  408110:	0008 0008 0008 0070 0000 0000 0080 0080     ......p.........
  408120:	0080 0088 0090 00a0 00d0 0088 0088 0000     ................
	...
  408138:	00e0 0020 0020 0020 0020 0020 0020 0020     .. . . . . . . .
  408148:	00f8 0000 0000 0000 0000 0000 0000 0000     ................
  408158:	0000 00a4 00fc 00a4 00a4 00a4 00a4 0000     ................
	...
  408174:	0000 00b8 00c4 0084 0084 0084 0084 0000     ................
	...
  408190:	0000 0078 0084 0084 0084 0084 0078 0000     ..x.........x...
	...
  4081ac:	0000 00b8 00c4 0084 0084 0084 00f8 0080     ................
  4081bc:	0080 0000 0000 0000 0000 0000 0000 007c     ..............|.
  4081cc:	0084 0084 0084 0084 007c 0004 0004 0000     ........|.......
	...
  4081e4:	0000 00d8 0060 0040 0040 0040 00f0 0000     ....`.@.@.@.....
	...
  408200:	0000 0078 0080 0040 0030 0008 00f0 0000     ..x...@.0.......
	...
  40821c:	0020 00fc 0020 0020 0020 0020 001c 0000      ... . . . .....
	...
  408238:	0000 0088 0088 0088 0088 0088 007c 0000     ............|...
	...
  408254:	0000 0084 0084 0084 0048 0048 0030 0000     ........H.H.0...
	...
  408270:	0000 0088 00a8 00a8 00a8 00a8 0050 0000     ............P...
	...
  40828c:	0000 0088 0050 0020 0020 0050 0088 0000     ....P. . .P.....
	...
  4082a8:	0000 0084 0084 0048 0048 0030 0010 0020     ......H.H.0... .
  4082b8:	0040 0000 0000 0000 0000 0000 0000 00f8     @...............
  4082c8:	0008 0010 0020 0040 00f8 0000 0000 0000     .... .@.........
  4082d8:	0000 0000 0010 0020 0020 0010 0020 0020     ...... . ... . .
  4082e8:	0010 0020 0020 0010 0000 0000 0000 0000     .. . ...........
  4082f8:	0010 0010 0010 0010 0000 0000 0010 0010     ................
  408308:	0010 0010 0000 0000 0000 0000 0020 0010     ............ ...
  408318:	0010 0020 0010 0010 0020 0010 0010 0020     .. ..... ..... .
  408328:	0000 0000 3025 6432 2f20 2520 3530 0064     ....%02d / %05d.

00408338 <_global_impure_ptr>:
  408338:	0028 2040 4e49 0046 6e69 0066 414e 004e     (.@ INF.inf.NAN.
  408348:	616e 006e 3130 3332 3534 3736 3938 4241     nan.0123456789AB
  408358:	4443 4645 0000 0000 3130 3332 3534 3736     CDEF....01234567
  408368:	3938 6261 6463 6665 0000 0000 6e28 6c75     89abcdef....(nul
  408378:	296c 0000 0030 0000                         l)..0...

00408380 <blanks.7223>:
  408380:	2020 2020 2020 2020 2020 2020 2020 2020                     

00408390 <zeroes.7224>:
  408390:	3030 3030 3030 3030 3030 3030 3030 3030     0000000000000000
  4083a0:	6e49 6966 696e 7974 0000 0000 614e 004e     Infinity....NaN.

004083b0 <__mprec_bigtens>:
  4083b0:	8000 37e0 c379 4341 6e17 b505 b8b5 4693     ...7y.AC.n.....F
  4083c0:	f9f5 e93f 4f03 4d38 1d32 f930 7748 5a82     ..?..O8M2.0.Hw.Z
  4083d0:	bf3c 7f73 4fdd 7515                         <.s..O.u

004083d8 <__mprec_tens>:
  4083d8:	0000 0000 0000 3ff0 0000 0000 0000 4024     .......?......$@
  4083e8:	0000 0000 0000 4059 0000 0000 4000 408f     ......Y@.....@.@
  4083f8:	0000 0000 8800 40c3 0000 0000 6a00 40f8     .......@.....j.@
  408408:	0000 0000 8480 412e 0000 0000 12d0 4163     .......A......cA
  408418:	0000 0000 d784 4197 0000 0000 cd65 41cd     .......A....e..A
  408428:	0000 2000 a05f 4202 0000 e800 4876 4237     ... _..B....vH7B
  408438:	0000 a200 1a94 426d 0000 e540 309c 42a2     ......mB..@..0.B
  408448:	0000 1e90 bcc4 42d6 0000 2634 6bf5 430c     .......B..4&.k.C
  408458:	8000 37e0 c379 4341 a000 85d8 3457 4376     ...7y.AC....W4vC
  408468:	c800 674e c16d 43ab 3d00 6091 58e4 43e1     ..Ngm..C.=.`.X.C
  408478:	8c40 78b5 af1d 4415 ef50 d6e2 1ae4 444b     @..x...DP.....KD
  408488:	d592 064d f0cf 4480 4af6 c7e1 2d02 44b5     ..M....D.J...-.D
  408498:	9db4 79d9 7843 44ea                         ...yCx.D

004084a0 <p05.6055>:
  4084a0:	0005 0000 0019 0000 007d 0000 0043 0000     ........}...C...
  4084b0:	4f50 4953 0058 0000 002e 0000               POSIX.......

004084bc <_ctype_>:
  4084bc:	2000 2020 2020 2020 2020 2828 2828 2028     .         ((((( 
  4084cc:	2020 2020 2020 2020 2020 2020 2020 2020                     
  4084dc:	8820 1010 1010 1010 1010 1010 1010 1010      ...............
  4084ec:	0410 0404 0404 0404 0404 1004 1010 1010     ................
  4084fc:	1010 4141 4141 4141 0101 0101 0101 0101     ..AAAAAA........
  40850c:	0101 0101 0101 0101 0101 0101 1010 1010     ................
  40851c:	1010 4242 4242 4242 0202 0202 0202 0202     ..BBBBBB........
  40852c:	0202 0202 0202 0202 0202 0202 1010 1010     ................
  40853c:	0020 0000 0000 0000 0000 0000 0000 0000      ...............
	...

004085c0 <_init>:
  4085c0:	b5f8      	push	{r3, r4, r5, r6, r7, lr}
  4085c2:	bf00      	nop
  4085c4:	bcf8      	pop	{r3, r4, r5, r6, r7}
  4085c6:	bc08      	pop	{r3}
  4085c8:	469e      	mov	lr, r3
  4085ca:	4770      	bx	lr

004085cc <__init_array_start>:
  4085cc:	0040486d 	.word	0x0040486d

004085d0 <__frame_dummy_init_array_entry>:
  4085d0:	00400165                                e.@.

004085d4 <_fini>:
  4085d4:	b5f8      	push	{r3, r4, r5, r6, r7, lr}
  4085d6:	bf00      	nop
  4085d8:	bcf8      	pop	{r3, r4, r5, r6, r7}
  4085da:	bc08      	pop	{r3}
  4085dc:	469e      	mov	lr, r3
  4085de:	4770      	bx	lr

004085e0 <__fini_array_start>:
  4085e0:	00400141 	.word	0x00400141

Disassembly of section .relocate:

20400000 <portable_delay_cycles>:
RAMFUNC
void portable_delay_cycles(unsigned long n)
{
	UNUSED(n);

	__asm (
20400000:	f3bf 8f5f 	dmb	sy
20400004:	3801      	subs	r0, #1
20400006:	d1fb      	bne.n	20400000 <portable_delay_cycles>
20400008:	4770      	bx	lr
	...

2040000c <sysfont>:
2040000c:	0000 0000 78e4 0040 0e0a 7d20               .....x@... }

20400018 <g_interrupt_enabled>:
20400018:	0001 0000                                   ....

2040001c <SystemCoreClock>:
2040001c:	0900 003d                                   ..=.

20400020 <_impure_ptr>:
20400020:	0028 2040 0000 0000                         (.@ ....

20400028 <impure_data>:
20400028:	0000 0000 0314 2040 037c 2040 03e4 2040     ......@ |.@ ..@ 
	...
204000d0:	0001 0000 0000 0000 330e abcd 1234 e66d     .........3..4.m.
204000e0:	deec 0005 000b 0000 0000 0000 0000 0000     ................
	...

20400450 <__atexit_recursive_mutex>:
20400450:	0cd0 2040                                   ..@ 

20400454 <__malloc_av_>:
	...
2040045c:	0454 2040 0454 2040 045c 2040 045c 2040     T.@ T.@ \.@ \.@ 
2040046c:	0464 2040 0464 2040 046c 2040 046c 2040     d.@ d.@ l.@ l.@ 
2040047c:	0474 2040 0474 2040 047c 2040 047c 2040     t.@ t.@ |.@ |.@ 
2040048c:	0484 2040 0484 2040 048c 2040 048c 2040     ..@ ..@ ..@ ..@ 
2040049c:	0494 2040 0494 2040 049c 2040 049c 2040     ..@ ..@ ..@ ..@ 
204004ac:	04a4 2040 04a4 2040 04ac 2040 04ac 2040     ..@ ..@ ..@ ..@ 
204004bc:	04b4 2040 04b4 2040 04bc 2040 04bc 2040     ..@ ..@ ..@ ..@ 
204004cc:	04c4 2040 04c4 2040 04cc 2040 04cc 2040     ..@ ..@ ..@ ..@ 
204004dc:	04d4 2040 04d4 2040 04dc 2040 04dc 2040     ..@ ..@ ..@ ..@ 
204004ec:	04e4 2040 04e4 2040 04ec 2040 04ec 2040     ..@ ..@ ..@ ..@ 
204004fc:	04f4 2040 04f4 2040 04fc 2040 04fc 2040     ..@ ..@ ..@ ..@ 
2040050c:	0504 2040 0504 2040 050c 2040 050c 2040     ..@ ..@ ..@ ..@ 
2040051c:	0514 2040 0514 2040 051c 2040 051c 2040     ..@ ..@ ..@ ..@ 
2040052c:	0524 2040 0524 2040 052c 2040 052c 2040     $.@ $.@ ,.@ ,.@ 
2040053c:	0534 2040 0534 2040 053c 2040 053c 2040     4.@ 4.@ <.@ <.@ 
2040054c:	0544 2040 0544 2040 054c 2040 054c 2040     D.@ D.@ L.@ L.@ 
2040055c:	0554 2040 0554 2040 055c 2040 055c 2040     T.@ T.@ \.@ \.@ 
2040056c:	0564 2040 0564 2040 056c 2040 056c 2040     d.@ d.@ l.@ l.@ 
2040057c:	0574 2040 0574 2040 057c 2040 057c 2040     t.@ t.@ |.@ |.@ 
2040058c:	0584 2040 0584 2040 058c 2040 058c 2040     ..@ ..@ ..@ ..@ 
2040059c:	0594 2040 0594 2040 059c 2040 059c 2040     ..@ ..@ ..@ ..@ 
204005ac:	05a4 2040 05a4 2040 05ac 2040 05ac 2040     ..@ ..@ ..@ ..@ 
204005bc:	05b4 2040 05b4 2040 05bc 2040 05bc 2040     ..@ ..@ ..@ ..@ 
204005cc:	05c4 2040 05c4 2040 05cc 2040 05cc 2040     ..@ ..@ ..@ ..@ 
204005dc:	05d4 2040 05d4 2040 05dc 2040 05dc 2040     ..@ ..@ ..@ ..@ 
204005ec:	05e4 2040 05e4 2040 05ec 2040 05ec 2040     ..@ ..@ ..@ ..@ 
204005fc:	05f4 2040 05f4 2040 05fc 2040 05fc 2040     ..@ ..@ ..@ ..@ 
2040060c:	0604 2040 0604 2040 060c 2040 060c 2040     ..@ ..@ ..@ ..@ 
2040061c:	0614 2040 0614 2040 061c 2040 061c 2040     ..@ ..@ ..@ ..@ 
2040062c:	0624 2040 0624 2040 062c 2040 062c 2040     $.@ $.@ ,.@ ,.@ 
2040063c:	0634 2040 0634 2040 063c 2040 063c 2040     4.@ 4.@ <.@ <.@ 
2040064c:	0644 2040 0644 2040 064c 2040 064c 2040     D.@ D.@ L.@ L.@ 
2040065c:	0654 2040 0654 2040 065c 2040 065c 2040     T.@ T.@ \.@ \.@ 
2040066c:	0664 2040 0664 2040 066c 2040 066c 2040     d.@ d.@ l.@ l.@ 
2040067c:	0674 2040 0674 2040 067c 2040 067c 2040     t.@ t.@ |.@ |.@ 
2040068c:	0684 2040 0684 2040 068c 2040 068c 2040     ..@ ..@ ..@ ..@ 
2040069c:	0694 2040 0694 2040 069c 2040 069c 2040     ..@ ..@ ..@ ..@ 
204006ac:	06a4 2040 06a4 2040 06ac 2040 06ac 2040     ..@ ..@ ..@ ..@ 
204006bc:	06b4 2040 06b4 2040 06bc 2040 06bc 2040     ..@ ..@ ..@ ..@ 
204006cc:	06c4 2040 06c4 2040 06cc 2040 06cc 2040     ..@ ..@ ..@ ..@ 
204006dc:	06d4 2040 06d4 2040 06dc 2040 06dc 2040     ..@ ..@ ..@ ..@ 
204006ec:	06e4 2040 06e4 2040 06ec 2040 06ec 2040     ..@ ..@ ..@ ..@ 
204006fc:	06f4 2040 06f4 2040 06fc 2040 06fc 2040     ..@ ..@ ..@ ..@ 
2040070c:	0704 2040 0704 2040 070c 2040 070c 2040     ..@ ..@ ..@ ..@ 
2040071c:	0714 2040 0714 2040 071c 2040 071c 2040     ..@ ..@ ..@ ..@ 
2040072c:	0724 2040 0724 2040 072c 2040 072c 2040     $.@ $.@ ,.@ ,.@ 
2040073c:	0734 2040 0734 2040 073c 2040 073c 2040     4.@ 4.@ <.@ <.@ 
2040074c:	0744 2040 0744 2040 074c 2040 074c 2040     D.@ D.@ L.@ L.@ 
2040075c:	0754 2040 0754 2040 075c 2040 075c 2040     T.@ T.@ \.@ \.@ 
2040076c:	0764 2040 0764 2040 076c 2040 076c 2040     d.@ d.@ l.@ l.@ 
2040077c:	0774 2040 0774 2040 077c 2040 077c 2040     t.@ t.@ |.@ |.@ 
2040078c:	0784 2040 0784 2040 078c 2040 078c 2040     ..@ ..@ ..@ ..@ 
2040079c:	0794 2040 0794 2040 079c 2040 079c 2040     ..@ ..@ ..@ ..@ 
204007ac:	07a4 2040 07a4 2040 07ac 2040 07ac 2040     ..@ ..@ ..@ ..@ 
204007bc:	07b4 2040 07b4 2040 07bc 2040 07bc 2040     ..@ ..@ ..@ ..@ 
204007cc:	07c4 2040 07c4 2040 07cc 2040 07cc 2040     ..@ ..@ ..@ ..@ 
204007dc:	07d4 2040 07d4 2040 07dc 2040 07dc 2040     ..@ ..@ ..@ ..@ 
204007ec:	07e4 2040 07e4 2040 07ec 2040 07ec 2040     ..@ ..@ ..@ ..@ 
204007fc:	07f4 2040 07f4 2040 07fc 2040 07fc 2040     ..@ ..@ ..@ ..@ 
2040080c:	0804 2040 0804 2040 080c 2040 080c 2040     ..@ ..@ ..@ ..@ 
2040081c:	0814 2040 0814 2040 081c 2040 081c 2040     ..@ ..@ ..@ ..@ 
2040082c:	0824 2040 0824 2040 082c 2040 082c 2040     $.@ $.@ ,.@ ,.@ 
2040083c:	0834 2040 0834 2040 083c 2040 083c 2040     4.@ 4.@ <.@ <.@ 
2040084c:	0844 2040 0844 2040 084c 2040 084c 2040     D.@ D.@ L.@ L.@ 

2040085c <__malloc_sbrk_base>:
2040085c:	ffff ffff                                   ....

20400860 <__malloc_trim_threshold>:
20400860:	0000 0002                                   ....

20400864 <__global_locale>:
20400864:	0043 0000 0000 0000 0000 0000 0000 0000     C...............
	...
20400884:	0043 0000 0000 0000 0000 0000 0000 0000     C...............
	...
204008a4:	0043 0000 0000 0000 0000 0000 0000 0000     C...............
	...
204008c4:	0043 0000 0000 0000 0000 0000 0000 0000     C...............
	...
204008e4:	0043 0000 0000 0000 0000 0000 0000 0000     C...............
	...
20400904:	0043 0000 0000 0000 0000 0000 0000 0000     C...............
	...
20400924:	0043 0000 0000 0000 0000 0000 0000 0000     C...............
	...
20400944:	6fa9 0040 6b69 0040 0000 0000 84bc 0040     .o@.ik@.......@.
20400954:	84b8 0040 835c 0040 835c 0040 835c 0040     ..@.\.@.\.@.\.@.
20400964:	835c 0040 835c 0040 835c 0040 835c 0040     \.@.\.@.\.@.\.@.
20400974:	835c 0040 835c 0040 ffff ffff ffff ffff     \.@.\.@.........
20400984:	ffff ffff ffff 0000 0001 5341 4943 0049     ..........ASCII.
	...
204009ac:	0000 5341 4943 0049 0000 0000 0000 0000     ..ASCII.........
	...
